---
triple:          'arm64-apple-darwin'
binary-path:     runtasks
relocations:
  - { offsetInCU: 0x46, offset: 0x46, size: 0x8, addend: 0x0, symName: _main, symObjAddr: 0x5DE8, symBinAddr: 0x100009A70, symSize: 0xA20 }
  - { offsetInCU: 0x6B, offset: 0x6B, size: 0x8, addend: 0x0, symName: __ZZ4mainE12long_options, symObjAddr: 0x1B400, symBinAddr: 0x100034000, symSize: 0x0 }
  - { offsetInCU: 0x270, offset: 0x270, size: 0x8, addend: 0x0, symName: __ZN10CycleTimer14secondsPerTickEv, symObjAddr: 0x68F4, symBinAddr: 0x10000A57C, symSize: 0xA0 }
  - { offsetInCU: 0x28F, offset: 0x28F, size: 0x8, addend: 0x0, symName: __ZZN10CycleTimer14secondsPerTickEvE11initialized, symObjAddr: 0x1B460, symBinAddr: 0x100034060, symSize: 0x0 }
  - { offsetInCU: 0x2A4, offset: 0x2A4, size: 0x8, addend: 0x0, symName: __ZZN10CycleTimer14secondsPerTickEvE18secondsPerTick_val, symObjAddr: 0x1B468, symBinAddr: 0x100034068, symSize: 0x0 }
  - { offsetInCU: 0x312C, offset: 0x312C, size: 0x8, addend: 0x0, symName: __ZNSt3__16chronogtB8ue170006IxNS_5ratioILl1ELl1EEExS3_EEbRKNS0_8durationIT_T0_EERKNS4_IT1_T2_EE, symObjAddr: 0x7C3C, symBinAddr: 0x10000B8C4, symSize: 0x30 }
  - { offsetInCU: 0x318D, offset: 0x318D, size: 0x8, addend: 0x0, symName: __ZNSt3__16chronoltB8ue170006IxNS_5ratioILl1ELl1EEEeS3_EEbRKNS0_8durationIT_T0_EERKNS4_IT1_T2_EE, symObjAddr: 0x7CA8, symBinAddr: 0x10000B930, symSize: 0x34 }
  - { offsetInCU: 0x31EE, offset: 0x31EE, size: 0x8, addend: 0x0, symName: __ZNSt3__16chrono13duration_castB8ue170006INS0_8durationIxNS_5ratioILl1ELl1000000000EEEEExNS3_ILl1ELl1EEEEENS_9enable_ifIXsr13__is_durationIT_EE5valueES8_E4typeERKNS2_IT0_T1_EE, symObjAddr: 0x7CDC, symBinAddr: 0x10000B964, symSize: 0x30 }
  - { offsetInCU: 0x3235, offset: 0x3235, size: 0x8, addend: 0x0, symName: __ZNSt3__16chronoltB8ue170006IxNS_5ratioILl1ELl1000000000EEExNS2_ILl1ELl1EEEEEbRKNS0_8durationIT_T0_EERKNS5_IT1_T2_EE, symObjAddr: 0x7D0C, symBinAddr: 0x10000B994, symSize: 0x34 }
  - { offsetInCU: 0x3296, offset: 0x3296, size: 0x8, addend: 0x0, symName: __ZNSt3__16chronoltB8ue170006IxNS_5ratioILl1ELl1EEExS3_EEbRKNS0_8durationIT_T0_EERKNS4_IT1_T2_EE, symObjAddr: 0x7D9C, symBinAddr: 0x10000BA24, symSize: 0x34 }
  - { offsetInCU: 0x3374, offset: 0x3374, size: 0x8, addend: 0x0, symName: __ZNSt3__16chrono13duration_castB8ue170006INS0_8durationIeNS_5ratioILl1ELl1EEEEExS4_EENS_9enable_ifIXsr13__is_durationIT_EE5valueES7_E4typeERKNS2_IT0_T1_EE, symObjAddr: 0x7FB4, symBinAddr: 0x10000BC3C, symSize: 0x30 }
  - { offsetInCU: 0x3406, offset: 0x3406, size: 0x8, addend: 0x0, symName: __ZNSt3__16chronogtB8ue170006IxNS_5ratioILl1ELl1000000EEExS3_EEbRKNS0_8durationIT_T0_EERKNS4_IT1_T2_EE, symObjAddr: 0x8AF0, symBinAddr: 0x10000C778, symSize: 0x30 }
  - { offsetInCU: 0x3467, offset: 0x3467, size: 0x8, addend: 0x0, symName: __ZNSt3__16chronoltB8ue170006IxNS_5ratioILl1ELl1000000EEEeNS2_ILl1ELl1EEEEEbRKNS0_8durationIT_T0_EERKNS5_IT1_T2_EE, symObjAddr: 0x8B5C, symBinAddr: 0x10000C7E4, symSize: 0x34 }
  - { offsetInCU: 0x34C8, offset: 0x34C8, size: 0x8, addend: 0x0, symName: __ZNSt3__16chrono13duration_castB8ue170006INS0_8durationIxNS_5ratioILl1ELl1000000000EEEEExNS3_ILl1ELl1000000EEEEENS_9enable_ifIXsr13__is_durationIT_EE5valueES8_E4typeERKNS2_IT0_T1_EE, symObjAddr: 0x8B90, symBinAddr: 0x10000C818, symSize: 0x30 }
  - { offsetInCU: 0x350F, offset: 0x350F, size: 0x8, addend: 0x0, symName: __ZNSt3__16chronoltB8ue170006IxNS_5ratioILl1ELl1000000000EEExNS2_ILl1ELl1000000EEEEEbRKNS0_8durationIT_T0_EERKNS5_IT1_T2_EE, symObjAddr: 0x8BC0, symBinAddr: 0x10000C848, symSize: 0x34 }
  - { offsetInCU: 0x3570, offset: 0x3570, size: 0x8, addend: 0x0, symName: __ZNSt3__16chronoltB8ue170006IxNS_5ratioILl1ELl1000000EEExS3_EEbRKNS0_8durationIT_T0_EERKNS4_IT1_T2_EE, symObjAddr: 0x8BF4, symBinAddr: 0x10000C87C, symSize: 0x34 }
  - { offsetInCU: 0x360E, offset: 0x360E, size: 0x8, addend: 0x0, symName: __ZNSt3__16chrono13duration_castB8ue170006INS0_8durationIeNS_5ratioILl1ELl1000000EEEEExS4_EENS_9enable_ifIXsr13__is_durationIT_EE5valueES7_E4typeERKNS2_IT0_T1_EE, symObjAddr: 0x8E40, symBinAddr: 0x10000CAC8, symSize: 0x30 }
  - { offsetInCU: 0x36A0, offset: 0x36A0, size: 0x8, addend: 0x0, symName: __ZNSt3__16chrono13duration_castB8ue170006INS0_8durationIeNS_5ratioILl1ELl1000000EEEEEeNS3_ILl1ELl1EEEEENS_9enable_ifIXsr13__is_durationIT_EE5valueES8_E4typeERKNS2_IT0_T1_EE, symObjAddr: 0x8F60, symBinAddr: 0x10000CBE8, symSize: 0x30 }
  - { offsetInCU: 0x14C0D, offset: 0x14C0D, size: 0x8, addend: 0x0, symName: __ZNSt3__1neB8ue170006IPNS_6vectorIiNS_9allocatorIiEEEEEEbRKNS_11__wrap_iterIT_EESA_, symObjAddr: 0x3804, symBinAddr: 0x10000748C, symSize: 0x34 }
  - { offsetInCU: 0x1531B, offset: 0x1531B, size: 0x8, addend: 0x0, symName: __ZNSt3__14swapB8ue170006IiEENS_9enable_ifIXaasr21is_move_constructibleIT_EE5valuesr18is_move_assignableIS2_EE5valueEvE4typeERS2_S5_, symObjAddr: 0x56E8, symBinAddr: 0x100009370, symSize: 0x3C }
  - { offsetInCU: 0x1536C, offset: 0x1536C, size: 0x8, addend: 0x0, symName: __ZNSt3__1neB8ue170006IPiEEbRKNS_11__wrap_iterIT_EES6_, symObjAddr: 0x593C, symBinAddr: 0x1000095C4, symSize: 0x34 }
  - { offsetInCU: 0x153AF, offset: 0x153AF, size: 0x8, addend: 0x0, symName: __ZNSt3__13minB8ue170006IdEERKT_S3_S3_, symObjAddr: 0x68B4, symBinAddr: 0x10000A53C, symSize: 0x2C }
  - { offsetInCU: 0x153F2, offset: 0x153F2, size: 0x8, addend: 0x0, symName: __ZNSt3__13minB8ue170006IiEERKT_S3_S3_, symObjAddr: 0x6B20, symBinAddr: 0x10000A7A8, symSize: 0x2C }
  - { offsetInCU: 0x15435, offset: 0x15435, size: 0x8, addend: 0x0, symName: __ZNSt3__13minB8ue170006IiNS_6__lessIvvEEEERKT_S5_S5_T0_, symObjAddr: 0x6B4C, symBinAddr: 0x10000A7D4, symSize: 0x54 }
  - { offsetInCU: 0x15536, offset: 0x15536, size: 0x8, addend: 0x0, symName: __ZNSt3__1eqB8ue170006IPNS_6vectorIiNS_9allocatorIiEEEEEEbRKNS_11__wrap_iterIT_EESA_, symObjAddr: 0x7470, symBinAddr: 0x10000B0F8, symSize: 0x48 }
  - { offsetInCU: 0x1557E, offset: 0x1557E, size: 0x8, addend: 0x0, symName: __ZNSt3__111this_thread9sleep_forB8ue170006IxNS_5ratioILl1ELl1EEEEEvRKNS_6chrono8durationIT_T0_EE, symObjAddr: 0x7B44, symBinAddr: 0x10000B7CC, symSize: 0xBC }
  - { offsetInCU: 0x155E2, offset: 0x155E2, size: 0x8, addend: 0x0, symName: __ZNSt3__111this_thread9sleep_forB8ue170006IxNS_5ratioILl1ELl1000000EEEEEvRKNS_6chrono8durationIT_T0_EE, symObjAddr: 0x89F8, symBinAddr: 0x10000C680, symSize: 0xBC }
  - { offsetInCU: 0x15864, offset: 0x15864, size: 0x8, addend: 0x0, symName: __ZNSt3__122__cxx_atomic_fetch_addB8ue170006IiEET_PNS_22__cxx_atomic_base_implIS1_EES1_NS_12memory_orderE, symObjAddr: 0x8770, symBinAddr: 0x10000C3F8, symSize: 0xC4 }
  - { offsetInCU: 0x158B9, offset: 0x158B9, size: 0x8, addend: 0x0, symName: __ZNSt3__1neB8ue170006IPKPbEEbRKNS_11__wrap_iterIT_EES8_, symObjAddr: 0x88A8, symBinAddr: 0x10000C530, symSize: 0x34 }
  - { offsetInCU: 0x158FC, offset: 0x158FC, size: 0x8, addend: 0x0, symName: __ZNSt3__1eqB8ue170006IPKPbEEbRKNS_11__wrap_iterIT_EES8_, symObjAddr: 0x8998, symBinAddr: 0x10000C620, symSize: 0x48 }
  - { offsetInCU: 0x1593F, offset: 0x1593F, size: 0x8, addend: 0x0, symName: __ZNSt3__1eqB8ue170006IPiEEbRKNS_11__wrap_iterIT_EES6_, symObjAddr: 0x9144, symBinAddr: 0x10000CDCC, symSize: 0x48 }
  - { offsetInCU: 0x15982, offset: 0x15982, size: 0x8, addend: 0x0, symName: __ZNSt3__118__constexpr_strlenB8ue170006EPKc, symObjAddr: 0x9328, symBinAddr: 0x10000CFB0, symSize: 0x24 }
  - { offsetInCU: 0x159AE, offset: 0x159AE, size: 0x8, addend: 0x0, symName: __ZNSt3__112__to_addressB8ue170006IiEEPT_S2_, symObjAddr: 0x97F8, symBinAddr: 0x10000D480, symSize: 0x14 }
  - { offsetInCU: 0x159E3, offset: 0x159E3, size: 0x8, addend: 0x0, symName: __ZNSt3__119__libcpp_deallocateB8ue170006EPvmm, symObjAddr: 0x98A8, symBinAddr: 0x10000D530, symSize: 0x30 }
  - { offsetInCU: 0x15A2B, offset: 0x15A2B, size: 0x8, addend: 0x0, symName: __ZNSt3__127__do_deallocate_handle_sizeB8ue170006IJEEEvPvmDpT_, symObjAddr: 0x98D8, symBinAddr: 0x10000D560, symSize: 0x28 }
  - { offsetInCU: 0x15A69, offset: 0x15A69, size: 0x8, addend: 0x0, symName: __ZNSt3__124__libcpp_operator_deleteB8ue170006IJPvEEEvDpT_, symObjAddr: 0x9900, symBinAddr: 0x10000D588, symSize: 0x24 }
  - { offsetInCU: 0x15A9E, offset: 0x15A9E, size: 0x8, addend: 0x0, symName: __ZNSt3__13maxB8ue170006ImEERKT_S3_S3_, symObjAddr: 0x9F5C, symBinAddr: 0x10000DBE4, symSize: 0x2C }
  - { offsetInCU: 0x15AE1, offset: 0x15AE1, size: 0x8, addend: 0x0, symName: __ZNSt3__13minB8ue170006ImEERKT_S3_S3_, symObjAddr: 0x9F88, symBinAddr: 0x10000DC10, symSize: 0x2C }
  - { offsetInCU: 0x15D25, offset: 0x15D25, size: 0x8, addend: 0x0, symName: __ZNSt3__13minB8ue170006ImNS_6__lessIvvEEEERKT_S5_S5_T0_, symObjAddr: 0xA014, symBinAddr: 0x10000DC9C, symSize: 0x54 }
  - { offsetInCU: 0x15D7F, offset: 0x15D7F, size: 0x8, addend: 0x0, symName: __ZNSt3__120__throw_length_errorB8ue170006EPKc, symObjAddr: 0xA0F0, symBinAddr: 0x10000DD78, symSize: 0x64 }
  - { offsetInCU: 0x15DA9, offset: 0x15DA9, size: 0x8, addend: 0x0, symName: __ZNSt3__13maxB8ue170006ImNS_6__lessIvvEEEERKT_S5_S5_T0_, symObjAddr: 0xA1D4, symBinAddr: 0x10000DE5C, symSize: 0x54 }
  - { offsetInCU: 0x15E03, offset: 0x15E03, size: 0x8, addend: 0x0, symName: __ZNSt3__119__allocate_at_leastB8ue170006INS_9allocatorIiEEEENS_19__allocation_resultINS_16allocator_traitsIT_E7pointerEEERS5_m, symObjAddr: 0xA338, symBinAddr: 0x10000DFC0, symSize: 0x40 }
  - { offsetInCU: 0x15E46, offset: 0x15E46, size: 0x8, addend: 0x0, symName: __ZNSt3__117__libcpp_allocateB8ue170006Emm, symObjAddr: 0xA4BC, symBinAddr: 0x10000E144, symSize: 0x28 }
  - { offsetInCU: 0x15E83, offset: 0x15E83, size: 0x8, addend: 0x0, symName: __ZNSt3__121__libcpp_operator_newB8ue170006IJmEEEPvDpT_, symObjAddr: 0xA4E4, symBinAddr: 0x10000E16C, symSize: 0x24 }
  - { offsetInCU: 0x15EBC, offset: 0x15EBC, size: 0x8, addend: 0x0, symName: __ZNSt3__142__uninitialized_allocator_move_if_noexceptB8ue170006INS_9allocatorIiEENS_16reverse_iteratorIPiEES5_ivEET1_RT_T0_S9_S6_, symObjAddr: 0xA56C, symBinAddr: 0x10000E1F4, symSize: 0x78 }
  - { offsetInCU: 0x15F39, offset: 0x15F39, size: 0x8, addend: 0x0, symName: __ZNSt3__14swapB8ue170006IPiEENS_9enable_ifIXaasr21is_move_constructibleIT_EE5valuesr18is_move_assignableIS3_EE5valueEvE4typeERS3_S6_, symObjAddr: 0xA630, symBinAddr: 0x10000E2B8, symSize: 0x3C }
  - { offsetInCU: 0x15F8A, offset: 0x15F8A, size: 0x8, addend: 0x0, symName: __ZNSt3__14moveB8ue170006INS_16reverse_iteratorIPiEES3_EET0_T_S5_S4_, symObjAddr: 0xA718, symBinAddr: 0x10000E3A0, symSize: 0x78 }
  - { offsetInCU: 0x15FE4, offset: 0x15FE4, size: 0x8, addend: 0x0, symName: __ZNSt3__16__moveB8ue170006INS_17_ClassicAlgPolicyENS_16reverse_iteratorIPiEES4_S4_EENS_4pairIT0_T2_EES6_T1_S7_, symObjAddr: 0xA790, symBinAddr: 0x10000E418, symSize: 0x64 }
  - { offsetInCU: 0x16050, offset: 0x16050, size: 0x8, addend: 0x0, symName: __ZNSt3__123__dispatch_copy_or_moveB8ue170006INS_17_ClassicAlgPolicyENS_11__move_loopIS1_EENS_14__move_trivialENS_16reverse_iteratorIPiEES7_S7_EENS_4pairIT2_T4_EES9_T3_SA_, symObjAddr: 0xA7F4, symBinAddr: 0x10000E47C, symSize: 0x64 }
  - { offsetInCU: 0x160CE, offset: 0x160CE, size: 0x8, addend: 0x0, symName: __ZNSt3__121__unwrap_and_dispatchB8ue170006INS_10__overloadINS_11__move_loopINS_17_ClassicAlgPolicyEEENS_14__move_trivialEEENS_16reverse_iteratorIPiEES9_S9_Li0EEENS_4pairIT0_T2_EESB_T1_SC_, symObjAddr: 0xA858, symBinAddr: 0x10000E4E0, symSize: 0x12C }
  - { offsetInCU: 0x1615E, offset: 0x1615E, size: 0x8, addend: 0x0, symName: __ZNSt3__114__unwrap_rangeB8ue170006INS_16reverse_iteratorIPiEES3_EENS_4pairIT0_S5_EET_S7_, symObjAddr: 0xA984, symBinAddr: 0x10000E60C, symSize: 0x84 }
  - { offsetInCU: 0x16396, offset: 0x16396, size: 0x8, addend: 0x0, symName: __ZNSt3__113__unwrap_iterB8ue170006INS_16reverse_iteratorIPiEENS_18__unwrap_iter_implIS3_Lb0EEELi0EEEDTclsrT0_8__unwrapclsr3stdE7declvalIT_EEEES7_, symObjAddr: 0xAAA8, symBinAddr: 0x10000E730, symSize: 0x44 }
  - { offsetInCU: 0x163DA, offset: 0x163DA, size: 0x8, addend: 0x0, symName: __ZNSt3__19make_pairB8ue170006INS_16reverse_iteratorIPiEES3_EENS_4pairINS_18__unwrap_ref_decayIT_E4typeENS5_IT0_E4typeEEEOS6_OS9_, symObjAddr: 0xAAEC, symBinAddr: 0x10000E774, symSize: 0x38 }
  - { offsetInCU: 0x16429, offset: 0x16429, size: 0x8, addend: 0x0, symName: __ZNSt3__114__rewrap_rangeB8ue170006INS_16reverse_iteratorIPiEES3_EET_S4_T0_, symObjAddr: 0xAB24, symBinAddr: 0x10000E7AC, symSize: 0x5C }
  - { offsetInCU: 0x16475, offset: 0x16475, size: 0x8, addend: 0x0, symName: __ZNSt3__113__rewrap_iterB8ue170006INS_16reverse_iteratorIPiEES3_NS_18__unwrap_iter_implIS3_Lb0EEEEET_S6_T0_, symObjAddr: 0xAB80, symBinAddr: 0x10000E808, symSize: 0x74 }
  - { offsetInCU: 0x164CA, offset: 0x164CA, size: 0x8, addend: 0x0, symName: __ZNSt3__1neB8ue170006IPiS1_EEbRKNS_16reverse_iteratorIT_EERKNS2_IT0_EE, symObjAddr: 0xABF4, symBinAddr: 0x10000E87C, symSize: 0x48 }
  - { offsetInCU: 0x16661, offset: 0x16661, size: 0x8, addend: 0x0, symName: __ZNSt3__122__make_exception_guardB8ue170006INS_6vectorIP12PingPongTaskNS_9allocatorIS3_EEE16__destroy_vectorEEENS_28__exception_guard_exceptionsIT_EES9_, symObjAddr: 0xB094, symBinAddr: 0x10000ED1C, symSize: 0x40 }
  - { offsetInCU: 0x16696, offset: 0x16696, size: 0x8, addend: 0x0, symName: __ZNSt3__119__allocate_at_leastB8ue170006INS_9allocatorIP12PingPongTaskEEEENS_19__allocation_resultINS_16allocator_traitsIT_E7pointerEEERS7_m, symObjAddr: 0xB480, symBinAddr: 0x10000F108, symSize: 0x40 }
  - { offsetInCU: 0x166D9, offset: 0x166D9, size: 0x8, addend: 0x0, symName: __ZNSt3__112__to_addressB8ue170006IP12PingPongTaskEEPT_S4_, symObjAddr: 0xB7A4, symBinAddr: 0x10000F42C, symSize: 0x14 }
  - { offsetInCU: 0x1670E, offset: 0x1670E, size: 0x8, addend: 0x0, symName: __ZNSt3__122__make_exception_guardB8ue170006INS_6vectorIP22RecursiveFibonacciTaskNS_9allocatorIS3_EEE16__destroy_vectorEEENS_28__exception_guard_exceptionsIT_EES9_, symObjAddr: 0xBDA4, symBinAddr: 0x10000FA2C, symSize: 0x40 }
  - { offsetInCU: 0x16743, offset: 0x16743, size: 0x8, addend: 0x0, symName: __ZNSt3__119__allocate_at_leastB8ue170006INS_9allocatorIP22RecursiveFibonacciTaskEEEENS_19__allocation_resultINS_16allocator_traitsIT_E7pointerEEERS7_m, symObjAddr: 0xC190, symBinAddr: 0x10000FE18, symSize: 0x40 }
  - { offsetInCU: 0x16786, offset: 0x16786, size: 0x8, addend: 0x0, symName: __ZNSt3__112__to_addressB8ue170006IP22RecursiveFibonacciTaskEEPT_S4_, symObjAddr: 0xC4B4, symBinAddr: 0x10001013C, symSize: 0x14 }
  - { offsetInCU: 0x167BB, offset: 0x167BB, size: 0x8, addend: 0x0, symName: __ZNSt3__112__to_addressB8ue170006I32MathOperationsInTightForLoopTaskEEPT_S3_, symObjAddr: 0xCE6C, symBinAddr: 0x100010AF4, symSize: 0x14 }
  - { offsetInCU: 0x167F0, offset: 0x167F0, size: 0x8, addend: 0x0, symName: __ZNSt3__119__allocate_at_leastB8ue170006INS_9allocatorI32MathOperationsInTightForLoopTaskEEEENS_19__allocation_resultINS_16allocator_traitsIT_E7pointerEEERS6_m, symObjAddr: 0xD820, symBinAddr: 0x1000114A8, symSize: 0x40 }
  - { offsetInCU: 0x16833, offset: 0x16833, size: 0x8, addend: 0x0, symName: __ZNSt3__142__uninitialized_allocator_move_if_noexceptB8ue170006INS_9allocatorI32MathOperationsInTightForLoopTaskEENS_16reverse_iteratorIPS2_EES6_S6_EET2_RT_T0_T1_S7_, symObjAddr: 0xD9D8, symBinAddr: 0x100011660, symSize: 0x12C }
  - { offsetInCU: 0x168D3, offset: 0x168D3, size: 0x8, addend: 0x0, symName: __ZNSt3__14swapB8ue170006IP32MathOperationsInTightForLoopTaskEENS_9enable_ifIXaasr21is_move_constructibleIT_EE5valuesr18is_move_assignableIS4_EE5valueEvE4typeERS4_S7_, symObjAddr: 0xDB50, symBinAddr: 0x1000117D8, symSize: 0x3C }
  - { offsetInCU: 0x16924, offset: 0x16924, size: 0x8, addend: 0x0, symName: __ZNSt3__122__make_exception_guardB8ue170006INS_29_AllocatorDestroyRangeReverseINS_9allocatorI32MathOperationsInTightForLoopTaskEENS_16reverse_iteratorIPS3_EEEEEENS_28__exception_guard_exceptionsIT_EESA_, symObjAddr: 0xDC54, symBinAddr: 0x1000118DC, symSize: 0x4C }
  - { offsetInCU: 0x1695A, offset: 0x1695A, size: 0x8, addend: 0x0, symName: __ZNSt3__1neB8ue170006IP32MathOperationsInTightForLoopTaskS2_EEbRKNS_16reverse_iteratorIT_EERKNS3_IT0_EE, symObjAddr: 0xDCE4, symBinAddr: 0x10001196C, symSize: 0x48 }
  - { offsetInCU: 0x169A6, offset: 0x169A6, size: 0x8, addend: 0x0, symName: __ZNSt3__112__to_addressB8ue170006INS_16reverse_iteratorIP32MathOperationsInTightForLoopTaskEEvEEu7__decayIDTclsr19__to_address_helperIT_EE6__callclsr3stdE7declvalIRKS5_EEEEES7_, symObjAddr: 0xDD2C, symBinAddr: 0x1000119B4, symSize: 0x24 }
  - { offsetInCU: 0x16A05, offset: 0x16A05, size: 0x8, addend: 0x0, symName: __ZNSt3__119__allocator_destroyB8ue170006INS_9allocatorI32MathOperationsInTightForLoopTaskEENS_16reverse_iteratorINS4_IPS2_EEEES7_EEvRT_T0_T1_, symObjAddr: 0xDFDC, symBinAddr: 0x100011C64, symSize: 0x70 }
  - { offsetInCU: 0x16A6A, offset: 0x16A6A, size: 0x8, addend: 0x0, symName: __ZNSt3__1neB8ue170006INS_16reverse_iteratorIP32MathOperationsInTightForLoopTaskEES4_EEbRKNS1_IT_EERKNS1_IT0_EE, symObjAddr: 0xE088, symBinAddr: 0x100011D10, symSize: 0x60 }
  - { offsetInCU: 0x16AB6, offset: 0x16AB6, size: 0x8, addend: 0x0, symName: __ZNSt3__112__to_addressB8ue170006INS_16reverse_iteratorINS1_IP32MathOperationsInTightForLoopTaskEEEEvEEu7__decayIDTclsr19__to_address_helperIT_EE6__callclsr3stdE7declvalIRKS6_EEEEES8_, symObjAddr: 0xE0E8, symBinAddr: 0x100011D70, symSize: 0x24 }
  - { offsetInCU: 0x16B15, offset: 0x16B15, size: 0x8, addend: 0x0, symName: __ZNSt3__112__to_addressB8ue170006IPfEEPT_S3_, symObjAddr: 0xE8FC, symBinAddr: 0x100012584, symSize: 0x14 }
  - { offsetInCU: 0x16B4A, offset: 0x16B4A, size: 0x8, addend: 0x0, symName: __ZNSt3__119__allocate_at_leastB8ue170006INS_9allocatorIPfEEEENS_19__allocation_resultINS_16allocator_traitsIT_E7pointerEEERS6_m, symObjAddr: 0xF1B4, symBinAddr: 0x100012E3C, symSize: 0x40 }
  - { offsetInCU: 0x16B8D, offset: 0x16B8D, size: 0x8, addend: 0x0, symName: __ZNSt3__142__uninitialized_allocator_move_if_noexceptB8ue170006INS_9allocatorIPfEENS_16reverse_iteratorIPS2_EES6_S2_vEET1_RT_T0_SA_S7_, symObjAddr: 0xF368, symBinAddr: 0x100012FF0, symSize: 0x78 }
  - { offsetInCU: 0x16C0A, offset: 0x16C0A, size: 0x8, addend: 0x0, symName: __ZNSt3__14swapB8ue170006IPPfEENS_9enable_ifIXaasr21is_move_constructibleIT_EE5valuesr18is_move_assignableIS4_EE5valueEvE4typeERS4_S7_, symObjAddr: 0xF42C, symBinAddr: 0x1000130B4, symSize: 0x3C }
  - { offsetInCU: 0x16C5B, offset: 0x16C5B, size: 0x8, addend: 0x0, symName: __ZNSt3__14moveB8ue170006INS_16reverse_iteratorIPPfEES4_EET0_T_S6_S5_, symObjAddr: 0xF514, symBinAddr: 0x10001319C, symSize: 0x78 }
  - { offsetInCU: 0x16CB5, offset: 0x16CB5, size: 0x8, addend: 0x0, symName: __ZNSt3__16__moveB8ue170006INS_17_ClassicAlgPolicyENS_16reverse_iteratorIPPfEES5_S5_EENS_4pairIT0_T2_EES7_T1_S8_, symObjAddr: 0xF58C, symBinAddr: 0x100013214, symSize: 0x64 }
  - { offsetInCU: 0x16D21, offset: 0x16D21, size: 0x8, addend: 0x0, symName: __ZNSt3__123__dispatch_copy_or_moveB8ue170006INS_17_ClassicAlgPolicyENS_11__move_loopIS1_EENS_14__move_trivialENS_16reverse_iteratorIPPfEES8_S8_EENS_4pairIT2_T4_EESA_T3_SB_, symObjAddr: 0xF5F0, symBinAddr: 0x100013278, symSize: 0x64 }
  - { offsetInCU: 0x16D9F, offset: 0x16D9F, size: 0x8, addend: 0x0, symName: __ZNSt3__121__unwrap_and_dispatchB8ue170006INS_10__overloadINS_11__move_loopINS_17_ClassicAlgPolicyEEENS_14__move_trivialEEENS_16reverse_iteratorIPPfEESA_SA_Li0EEENS_4pairIT0_T2_EESC_T1_SD_, symObjAddr: 0xF654, symBinAddr: 0x1000132DC, symSize: 0x12C }
  - { offsetInCU: 0x16E2F, offset: 0x16E2F, size: 0x8, addend: 0x0, symName: __ZNSt3__114__unwrap_rangeB8ue170006INS_16reverse_iteratorIPPfEES4_EENS_4pairIT0_S6_EET_S8_, symObjAddr: 0xF780, symBinAddr: 0x100013408, symSize: 0x84 }
  - { offsetInCU: 0x16F4F, offset: 0x16F4F, size: 0x8, addend: 0x0, symName: __ZNSt3__113__unwrap_iterB8ue170006INS_16reverse_iteratorIPPfEENS_18__unwrap_iter_implIS4_Lb0EEELi0EEEDTclsrT0_8__unwrapclsr3stdE7declvalIT_EEEES8_, symObjAddr: 0xF8A4, symBinAddr: 0x10001352C, symSize: 0x44 }
  - { offsetInCU: 0x16F93, offset: 0x16F93, size: 0x8, addend: 0x0, symName: __ZNSt3__19make_pairB8ue170006INS_16reverse_iteratorIPPfEES4_EENS_4pairINS_18__unwrap_ref_decayIT_E4typeENS6_IT0_E4typeEEEOS7_OSA_, symObjAddr: 0xF8E8, symBinAddr: 0x100013570, symSize: 0x38 }
  - { offsetInCU: 0x16FE2, offset: 0x16FE2, size: 0x8, addend: 0x0, symName: __ZNSt3__114__rewrap_rangeB8ue170006INS_16reverse_iteratorIPPfEES4_EET_S5_T0_, symObjAddr: 0xF920, symBinAddr: 0x1000135A8, symSize: 0x5C }
  - { offsetInCU: 0x1702E, offset: 0x1702E, size: 0x8, addend: 0x0, symName: __ZNSt3__113__rewrap_iterB8ue170006INS_16reverse_iteratorIPPfEES4_NS_18__unwrap_iter_implIS4_Lb0EEEEET_S7_T0_, symObjAddr: 0xF97C, symBinAddr: 0x100013604, symSize: 0x74 }
  - { offsetInCU: 0x17083, offset: 0x17083, size: 0x8, addend: 0x0, symName: __ZNSt3__1neB8ue170006IPPfS2_EEbRKNS_16reverse_iteratorIT_EERKNS3_IT0_EE, symObjAddr: 0xF9F0, symBinAddr: 0x100013678, symSize: 0x48 }
  - { offsetInCU: 0x1713B, offset: 0x1713B, size: 0x8, addend: 0x0, symName: __ZNSt3__112__to_addressB8ue170006I10ReduceTaskEEPT_S3_, symObjAddr: 0x1022C, symBinAddr: 0x100013EB4, symSize: 0x14 }
  - { offsetInCU: 0x17170, offset: 0x17170, size: 0x8, addend: 0x0, symName: __ZNSt3__119__allocate_at_leastB8ue170006INS_9allocatorI10ReduceTaskEEEENS_19__allocation_resultINS_16allocator_traitsIT_E7pointerEEERS6_m, symObjAddr: 0x10B74, symBinAddr: 0x1000147FC, symSize: 0x40 }
  - { offsetInCU: 0x171B3, offset: 0x171B3, size: 0x8, addend: 0x0, symName: __ZNSt3__142__uninitialized_allocator_move_if_noexceptB8ue170006INS_9allocatorI10ReduceTaskEENS_16reverse_iteratorIPS2_EES6_S6_EET2_RT_T0_T1_S7_, symObjAddr: 0x10D28, symBinAddr: 0x1000149B0, symSize: 0x12C }
  - { offsetInCU: 0x17253, offset: 0x17253, size: 0x8, addend: 0x0, symName: __ZNSt3__14swapB8ue170006IP10ReduceTaskEENS_9enable_ifIXaasr21is_move_constructibleIT_EE5valuesr18is_move_assignableIS4_EE5valueEvE4typeERS4_S7_, symObjAddr: 0x10EA0, symBinAddr: 0x100014B28, symSize: 0x3C }
  - { offsetInCU: 0x172A4, offset: 0x172A4, size: 0x8, addend: 0x0, symName: __ZNSt3__122__make_exception_guardB8ue170006INS_29_AllocatorDestroyRangeReverseINS_9allocatorI10ReduceTaskEENS_16reverse_iteratorIPS3_EEEEEENS_28__exception_guard_exceptionsIT_EESA_, symObjAddr: 0x10F88, symBinAddr: 0x100014C10, symSize: 0x4C }
  - { offsetInCU: 0x172DA, offset: 0x172DA, size: 0x8, addend: 0x0, symName: __ZNSt3__1neB8ue170006IP10ReduceTaskS2_EEbRKNS_16reverse_iteratorIT_EERKNS3_IT0_EE, symObjAddr: 0x11018, symBinAddr: 0x100014CA0, symSize: 0x48 }
  - { offsetInCU: 0x17326, offset: 0x17326, size: 0x8, addend: 0x0, symName: __ZNSt3__112__to_addressB8ue170006INS_16reverse_iteratorIP10ReduceTaskEEvEEu7__decayIDTclsr19__to_address_helperIT_EE6__callclsr3stdE7declvalIRKS5_EEEEES7_, symObjAddr: 0x11094, symBinAddr: 0x100014D1C, symSize: 0x24 }
  - { offsetInCU: 0x17385, offset: 0x17385, size: 0x8, addend: 0x0, symName: __ZNSt3__119__allocator_destroyB8ue170006INS_9allocatorI10ReduceTaskEENS_16reverse_iteratorINS4_IPS2_EEEES7_EEvRT_T0_T1_, symObjAddr: 0x11408, symBinAddr: 0x100015090, symSize: 0x70 }
  - { offsetInCU: 0x173EA, offset: 0x173EA, size: 0x8, addend: 0x0, symName: __ZNSt3__1neB8ue170006INS_16reverse_iteratorIP10ReduceTaskEES4_EEbRKNS1_IT_EERKNS1_IT0_EE, symObjAddr: 0x114B4, symBinAddr: 0x10001513C, symSize: 0x60 }
  - { offsetInCU: 0x17436, offset: 0x17436, size: 0x8, addend: 0x0, symName: __ZNSt3__112__to_addressB8ue170006INS_16reverse_iteratorINS1_IP10ReduceTaskEEEEvEEu7__decayIDTclsr19__to_address_helperIT_EE6__callclsr3stdE7declvalIRKS6_EEEEES8_, symObjAddr: 0x11514, symBinAddr: 0x10001519C, symSize: 0x24 }
  - { offsetInCU: 0x17495, offset: 0x17495, size: 0x8, addend: 0x0, symName: __ZNSt3__112__to_addressB8ue170006INS_6vectorIiNS_9allocatorIiEEEEEEPT_S6_, symObjAddr: 0x11D44, symBinAddr: 0x1000159CC, symSize: 0x14 }
  - { offsetInCU: 0x174CA, offset: 0x174CA, size: 0x8, addend: 0x0, symName: __ZNSt3__119__allocate_at_leastB8ue170006INS_9allocatorINS_6vectorIiNS1_IiEEEEEEEENS_19__allocation_resultINS_16allocator_traitsIT_E7pointerEEERS8_m, symObjAddr: 0x12634, symBinAddr: 0x1000162BC, symSize: 0x40 }
  - { offsetInCU: 0x1750D, offset: 0x1750D, size: 0x8, addend: 0x0, symName: __ZNSt3__142__uninitialized_allocator_move_if_noexceptB8ue170006INS_9allocatorINS_6vectorIiNS1_IiEEEEEENS_16reverse_iteratorIPS4_EES8_S8_EET2_RT_T0_T1_S9_, symObjAddr: 0x127EC, symBinAddr: 0x100016474, symSize: 0x12C }
  - { offsetInCU: 0x175AD, offset: 0x175AD, size: 0x8, addend: 0x0, symName: __ZNSt3__14swapB8ue170006IPNS_6vectorIiNS_9allocatorIiEEEEEENS_9enable_ifIXaasr21is_move_constructibleIT_EE5valuesr18is_move_assignableIS7_EE5valueEvE4typeERS7_SA_, symObjAddr: 0x12964, symBinAddr: 0x1000165EC, symSize: 0x3C }
  - { offsetInCU: 0x175FE, offset: 0x175FE, size: 0x8, addend: 0x0, symName: __ZNSt3__122__make_exception_guardB8ue170006INS_29_AllocatorDestroyRangeReverseINS_9allocatorINS_6vectorIiNS2_IiEEEEEENS_16reverse_iteratorIPS5_EEEEEENS_28__exception_guard_exceptionsIT_EESC_, symObjAddr: 0x12A68, symBinAddr: 0x1000166F0, symSize: 0x4C }
  - { offsetInCU: 0x17634, offset: 0x17634, size: 0x8, addend: 0x0, symName: __ZNSt3__1neB8ue170006IPNS_6vectorIiNS_9allocatorIiEEEES5_EEbRKNS_16reverse_iteratorIT_EERKNS6_IT0_EE, symObjAddr: 0x12AF8, symBinAddr: 0x100016780, symSize: 0x48 }
  - { offsetInCU: 0x17680, offset: 0x17680, size: 0x8, addend: 0x0, symName: __ZNSt3__112__to_addressB8ue170006INS_16reverse_iteratorIPNS_6vectorIiNS_9allocatorIiEEEEEEvEEu7__decayIDTclsr19__to_address_helperIT_EE6__callclsr3stdE7declvalIRKS8_EEEEESA_, symObjAddr: 0x12B74, symBinAddr: 0x1000167FC, symSize: 0x24 }
  - { offsetInCU: 0x176DF, offset: 0x176DF, size: 0x8, addend: 0x0, symName: __ZNSt3__119__allocator_destroyB8ue170006INS_9allocatorINS_6vectorIiNS1_IiEEEEEENS_16reverse_iteratorINS6_IPS4_EEEES9_EEvRT_T0_T1_, symObjAddr: 0x12FE4, symBinAddr: 0x100016C6C, symSize: 0x70 }
  - { offsetInCU: 0x17744, offset: 0x17744, size: 0x8, addend: 0x0, symName: __ZNSt3__1neB8ue170006INS_16reverse_iteratorIPNS_6vectorIiNS_9allocatorIiEEEEEES7_EEbRKNS1_IT_EERKNS1_IT0_EE, symObjAddr: 0x13090, symBinAddr: 0x100016D18, symSize: 0x60 }
  - { offsetInCU: 0x17790, offset: 0x17790, size: 0x8, addend: 0x0, symName: __ZNSt3__112__to_addressB8ue170006INS_16reverse_iteratorINS1_IPNS_6vectorIiNS_9allocatorIiEEEEEEEEvEEu7__decayIDTclsr19__to_address_helperIT_EE6__callclsr3stdE7declvalIRKS9_EEEEESB_, symObjAddr: 0x130F0, symBinAddr: 0x100016D78, symSize: 0x24 }
  - { offsetInCU: 0x177EF, offset: 0x177EF, size: 0x8, addend: 0x0, symName: __ZNSt3__122__make_exception_guardB8ue170006INS_6vectorIiNS_9allocatorIiEEE16__destroy_vectorEEENS_28__exception_guard_exceptionsIT_EES7_, symObjAddr: 0x1398C, symBinAddr: 0x100017614, symSize: 0x40 }
  - { offsetInCU: 0x17824, offset: 0x17824, size: 0x8, addend: 0x0, symName: __ZNSt3__130__uninitialized_allocator_copyB8ue170006INS_9allocatorIiEEPiS3_S3_EET2_RT_T0_T1_S4_, symObjAddr: 0x13BA4, symBinAddr: 0x10001782C, symSize: 0x80 }
  - { offsetInCU: 0x178C1, offset: 0x178C1, size: 0x8, addend: 0x0, symName: __ZNSt3__114__unwrap_rangeB8ue170006IPiS1_EENS_4pairIT0_S3_EET_S5_, symObjAddr: 0x13C24, symBinAddr: 0x1000178AC, symSize: 0x60 }
  - { offsetInCU: 0x1790D, offset: 0x1790D, size: 0x8, addend: 0x0, symName: __ZNSt3__135__uninitialized_allocator_copy_implB8ue170006INS_9allocatorIiEEiiiLPv0EEEPT2_RT_PT0_S9_S5_, symObjAddr: 0x13C84, symBinAddr: 0x10001790C, symSize: 0x38 }
  - { offsetInCU: 0x1798E, offset: 0x1798E, size: 0x8, addend: 0x0, symName: __ZNSt3__113__unwrap_iterB8ue170006IPiNS_18__unwrap_iter_implIS1_Lb1EEELi0EEEDTclsrT0_8__unwrapclsr3stdE7declvalIT_EEEES5_, symObjAddr: 0x13CBC, symBinAddr: 0x100017944, symSize: 0x24 }
  - { offsetInCU: 0x179D2, offset: 0x179D2, size: 0x8, addend: 0x0, symName: __ZNSt3__113__rewrap_iterB8ue170006IPiS1_NS_18__unwrap_iter_implIS1_Lb1EEEEET_S4_T0_, symObjAddr: 0x13CE0, symBinAddr: 0x100017968, symSize: 0x3C }
  - { offsetInCU: 0x17A27, offset: 0x17A27, size: 0x8, addend: 0x0, symName: __ZNSt3__19make_pairB8ue170006IPiS1_EENS_4pairINS_18__unwrap_ref_decayIT_E4typeENS3_IT0_E4typeEEEOS4_OS7_, symObjAddr: 0x13D1C, symBinAddr: 0x1000179A4, symSize: 0x38 }
  - { offsetInCU: 0x17B79, offset: 0x17B79, size: 0x8, addend: 0x0, symName: __ZNSt3__14copyB8ue170006IPiS1_EET0_T_S3_S2_, symObjAddr: 0x13DC4, symBinAddr: 0x100017A4C, symSize: 0x40 }
  - { offsetInCU: 0x17BD3, offset: 0x17BD3, size: 0x8, addend: 0x0, symName: __ZNSt3__16__copyB8ue170006INS_17_ClassicAlgPolicyEPiS2_S2_EENS_4pairIT0_T2_EES4_T1_S5_, symObjAddr: 0x13E04, symBinAddr: 0x100017A8C, symSize: 0x44 }
  - { offsetInCU: 0x17C3F, offset: 0x17C3F, size: 0x8, addend: 0x0, symName: __ZNSt3__123__dispatch_copy_or_moveB8ue170006INS_17_ClassicAlgPolicyENS_11__copy_loopIS1_EENS_14__copy_trivialEPiS5_S5_EENS_4pairIT2_T4_EES7_T3_S8_, symObjAddr: 0x13E48, symBinAddr: 0x100017AD0, symSize: 0x44 }
  - { offsetInCU: 0x17CBD, offset: 0x17CBD, size: 0x8, addend: 0x0, symName: __ZNSt3__121__unwrap_and_dispatchB8ue170006INS_10__overloadINS_11__copy_loopINS_17_ClassicAlgPolicyEEENS_14__copy_trivialEEEPiS7_S7_Li0EEENS_4pairIT0_T2_EES9_T1_SA_, symObjAddr: 0x13E8C, symBinAddr: 0x100017B14, symSize: 0xB4 }
  - { offsetInCU: 0x17DCD, offset: 0x17DCD, size: 0x8, addend: 0x0, symName: __ZNSt3__114__rewrap_rangeB8ue170006IPiS1_EET_S2_T0_, symObjAddr: 0x13F88, symBinAddr: 0x100017C10, symSize: 0x2C }
  - { offsetInCU: 0x17E19, offset: 0x17E19, size: 0x8, addend: 0x0, symName: __ZNSt3__119__copy_trivial_implB8ue170006IiiEENS_4pairIPT_PT0_EES3_S3_S5_, symObjAddr: 0x13FB4, symBinAddr: 0x100017C3C, symSize: 0x80 }
  - { offsetInCU: 0x17E81, offset: 0x17E81, size: 0x8, addend: 0x0, symName: __ZNSt3__119__constexpr_memmoveB8ue170006IiiLi0EEEPT_S2_PT0_NS_15__element_countE, symObjAddr: 0x14034, symBinAddr: 0x100017CBC, symSize: 0x64 }
  - { offsetInCU: 0x17EEF, offset: 0x17EEF, size: 0x8, addend: 0x0, symName: __ZNSt3__19make_pairB8ue170006IRPiS1_EENS_4pairINS_18__unwrap_ref_decayIT_E4typeENS4_IT0_E4typeEEEOS5_OS8_, symObjAddr: 0x14098, symBinAddr: 0x100017D20, symSize: 0x38 }
  - { offsetInCU: 0x17F91, offset: 0x17F91, size: 0x8, addend: 0x0, symName: __ZNSt3__112__to_addressB8ue170006IPbEEPT_S3_, symObjAddr: 0x146A8, symBinAddr: 0x100018330, symSize: 0x14 }
  - { offsetInCU: 0x17FC6, offset: 0x17FC6, size: 0x8, addend: 0x0, symName: __ZNSt3__122__make_exception_guardB8ue170006INS_6vectorIPbNS_9allocatorIS2_EEE16__destroy_vectorEEENS_28__exception_guard_exceptionsIT_EES8_, symObjAddr: 0x14938, symBinAddr: 0x1000185C0, symSize: 0x40 }
  - { offsetInCU: 0x17FFB, offset: 0x17FFB, size: 0x8, addend: 0x0, symName: __ZNSt3__119__allocate_at_leastB8ue170006INS_9allocatorIPbEEEENS_19__allocation_resultINS_16allocator_traitsIT_E7pointerEEERS6_m, symObjAddr: 0x14C1C, symBinAddr: 0x1000188A4, symSize: 0x40 }
  - { offsetInCU: 0x1803E, offset: 0x1803E, size: 0x8, addend: 0x0, symName: __ZNSt3__130__uninitialized_allocator_copyB8ue170006INS_9allocatorIPbEEPKS2_S5_PS2_EET2_RT_T0_T1_S7_, symObjAddr: 0x14E94, symBinAddr: 0x100018B1C, symSize: 0x80 }
  - { offsetInCU: 0x180DB, offset: 0x180DB, size: 0x8, addend: 0x0, symName: __ZNSt3__114__unwrap_rangeB8ue170006IPKPbS3_EENS_4pairIT0_S5_EET_S7_, symObjAddr: 0x14F84, symBinAddr: 0x100018C0C, symSize: 0x60 }
  - { offsetInCU: 0x18127, offset: 0x18127, size: 0x8, addend: 0x0, symName: __ZNSt3__135__uninitialized_allocator_copy_implB8ue170006INS_9allocatorIPbEEKS2_S2_S2_LPv0EEEPT2_RT_PT0_SB_S7_, symObjAddr: 0x14FE4, symBinAddr: 0x100018C6C, symSize: 0x38 }
  - { offsetInCU: 0x181A8, offset: 0x181A8, size: 0x8, addend: 0x0, symName: __ZNSt3__113__unwrap_iterB8ue170006IPPbNS_18__unwrap_iter_implIS2_Lb1EEELi0EEEDTclsrT0_8__unwrapclsr3stdE7declvalIT_EEEES6_, symObjAddr: 0x1501C, symBinAddr: 0x100018CA4, symSize: 0x24 }
  - { offsetInCU: 0x181EC, offset: 0x181EC, size: 0x8, addend: 0x0, symName: __ZNSt3__113__rewrap_iterB8ue170006IPPbS2_NS_18__unwrap_iter_implIS2_Lb1EEEEET_S5_T0_, symObjAddr: 0x15040, symBinAddr: 0x100018CC8, symSize: 0x3C }
  - { offsetInCU: 0x18241, offset: 0x18241, size: 0x8, addend: 0x0, symName: __ZNSt3__19make_pairB8ue170006IPKPbS3_EENS_4pairINS_18__unwrap_ref_decayIT_E4typeENS5_IT0_E4typeEEEOS6_OS9_, symObjAddr: 0x1507C, symBinAddr: 0x100018D04, symSize: 0x38 }
  - { offsetInCU: 0x18290, offset: 0x18290, size: 0x8, addend: 0x0, symName: __ZNSt3__113__unwrap_iterB8ue170006IPKPbNS_18__unwrap_iter_implIS3_Lb1EEELi0EEEDTclsrT0_8__unwrapclsr3stdE7declvalIT_EEEES7_, symObjAddr: 0x150B4, symBinAddr: 0x100018D3C, symSize: 0x24 }
  - { offsetInCU: 0x183FB, offset: 0x183FB, size: 0x8, addend: 0x0, symName: __ZNSt3__112__to_addressB8ue170006IKPbEEPT_S4_, symObjAddr: 0x1516C, symBinAddr: 0x100018DF4, symSize: 0x14 }
  - { offsetInCU: 0x18430, offset: 0x18430, size: 0x8, addend: 0x0, symName: __ZNSt3__14copyB8ue170006IPKPbPS1_EET0_T_S6_S5_, symObjAddr: 0x15180, symBinAddr: 0x100018E08, symSize: 0x40 }
  - { offsetInCU: 0x1848A, offset: 0x1848A, size: 0x8, addend: 0x0, symName: __ZNSt3__16__copyB8ue170006INS_17_ClassicAlgPolicyEPKPbS4_PS2_EENS_4pairIT0_T2_EES7_T1_S8_, symObjAddr: 0x151C0, symBinAddr: 0x100018E48, symSize: 0x44 }
  - { offsetInCU: 0x184F6, offset: 0x184F6, size: 0x8, addend: 0x0, symName: __ZNSt3__123__dispatch_copy_or_moveB8ue170006INS_17_ClassicAlgPolicyENS_11__copy_loopIS1_EENS_14__copy_trivialEPKPbS7_PS5_EENS_4pairIT2_T4_EESA_T3_SB_, symObjAddr: 0x15204, symBinAddr: 0x100018E8C, symSize: 0x44 }
  - { offsetInCU: 0x18574, offset: 0x18574, size: 0x8, addend: 0x0, symName: __ZNSt3__121__unwrap_and_dispatchB8ue170006INS_10__overloadINS_11__copy_loopINS_17_ClassicAlgPolicyEEENS_14__copy_trivialEEEPKPbS9_PS7_Li0EEENS_4pairIT0_T2_EESC_T1_SD_, symObjAddr: 0x15248, symBinAddr: 0x100018ED0, symSize: 0xB4 }
  - { offsetInCU: 0x18705, offset: 0x18705, size: 0x8, addend: 0x0, symName: __ZNSt3__19make_pairB8ue170006IPKPbPS1_EENS_4pairINS_18__unwrap_ref_decayIT_E4typeENS6_IT0_E4typeEEEOS7_OSA_, symObjAddr: 0x15344, symBinAddr: 0x100018FCC, symSize: 0x38 }
  - { offsetInCU: 0x18754, offset: 0x18754, size: 0x8, addend: 0x0, symName: __ZNSt3__114__rewrap_rangeB8ue170006IPKPbS3_EET_S4_T0_, symObjAddr: 0x1537C, symBinAddr: 0x100019004, symSize: 0x2C }
  - { offsetInCU: 0x187A0, offset: 0x187A0, size: 0x8, addend: 0x0, symName: __ZNSt3__119__copy_trivial_implB8ue170006IKPbS1_EENS_4pairIPT_PT0_EES5_S5_S7_, symObjAddr: 0x153A8, symBinAddr: 0x100019030, symSize: 0x80 }
  - { offsetInCU: 0x18808, offset: 0x18808, size: 0x8, addend: 0x0, symName: __ZNSt3__119__constexpr_memmoveB8ue170006IPbKS1_Li0EEEPT_S4_PT0_NS_15__element_countE, symObjAddr: 0x15428, symBinAddr: 0x1000190B0, symSize: 0x64 }
  - { offsetInCU: 0x18876, offset: 0x18876, size: 0x8, addend: 0x0, symName: __ZNSt3__19make_pairB8ue170006IRPKPbPS1_EENS_4pairINS_18__unwrap_ref_decayIT_E4typeENS7_IT0_E4typeEEEOS8_OSB_, symObjAddr: 0x1548C, symBinAddr: 0x100019114, symSize: 0x38 }
  - { offsetInCU: 0x188C5, offset: 0x188C5, size: 0x8, addend: 0x0, symName: __ZNSt3__113__rewrap_iterB8ue170006IPKPbS3_NS_18__unwrap_iter_implIS3_Lb1EEEEET_S6_T0_, symObjAddr: 0x155A4, symBinAddr: 0x10001922C, symSize: 0x3C }
  - { offsetInCU: 0x189A0, offset: 0x189A0, size: 0x8, addend: 0x0, symName: __ZNSt3__1ltB8ue170006IiiiiEEbRKNS_4pairIT_T0_EERKNS1_IT1_T2_EE, symObjAddr: 0x15E94, symBinAddr: 0x100019B1C, symSize: 0x98 }
  - { offsetInCU: 0x18A01, offset: 0x18A01, size: 0x8, addend: 0x0, symName: __ZNSt3__142__uninitialized_allocator_move_if_noexceptB8ue170006INS_9allocatorIPbEENS_16reverse_iteratorIPS2_EES6_S2_vEET1_RT_T0_SA_S7_, symObjAddr: 0x16584, symBinAddr: 0x10001A20C, symSize: 0x78 }
  - { offsetInCU: 0x18A7E, offset: 0x18A7E, size: 0x8, addend: 0x0, symName: __ZNSt3__14swapB8ue170006IPPbEENS_9enable_ifIXaasr21is_move_constructibleIT_EE5valuesr18is_move_assignableIS4_EE5valueEvE4typeERS4_S7_, symObjAddr: 0x16648, symBinAddr: 0x10001A2D0, symSize: 0x3C }
  - { offsetInCU: 0x18ACF, offset: 0x18ACF, size: 0x8, addend: 0x0, symName: __ZNSt3__14moveB8ue170006INS_16reverse_iteratorIPPbEES4_EET0_T_S6_S5_, symObjAddr: 0x16684, symBinAddr: 0x10001A30C, symSize: 0x78 }
  - { offsetInCU: 0x18B29, offset: 0x18B29, size: 0x8, addend: 0x0, symName: __ZNSt3__16__moveB8ue170006INS_17_ClassicAlgPolicyENS_16reverse_iteratorIPPbEES5_S5_EENS_4pairIT0_T2_EES7_T1_S8_, symObjAddr: 0x166FC, symBinAddr: 0x10001A384, symSize: 0x64 }
  - { offsetInCU: 0x18B95, offset: 0x18B95, size: 0x8, addend: 0x0, symName: __ZNSt3__123__dispatch_copy_or_moveB8ue170006INS_17_ClassicAlgPolicyENS_11__move_loopIS1_EENS_14__move_trivialENS_16reverse_iteratorIPPbEES8_S8_EENS_4pairIT2_T4_EESA_T3_SB_, symObjAddr: 0x16760, symBinAddr: 0x10001A3E8, symSize: 0x64 }
  - { offsetInCU: 0x18C13, offset: 0x18C13, size: 0x8, addend: 0x0, symName: __ZNSt3__121__unwrap_and_dispatchB8ue170006INS_10__overloadINS_11__move_loopINS_17_ClassicAlgPolicyEEENS_14__move_trivialEEENS_16reverse_iteratorIPPbEESA_SA_Li0EEENS_4pairIT0_T2_EESC_T1_SD_, symObjAddr: 0x167C4, symBinAddr: 0x10001A44C, symSize: 0x12C }
  - { offsetInCU: 0x18CA3, offset: 0x18CA3, size: 0x8, addend: 0x0, symName: __ZNSt3__114__unwrap_rangeB8ue170006INS_16reverse_iteratorIPPbEES4_EENS_4pairIT0_S6_EET_S8_, symObjAddr: 0x168F0, symBinAddr: 0x10001A578, symSize: 0x84 }
  - { offsetInCU: 0x18DC3, offset: 0x18DC3, size: 0x8, addend: 0x0, symName: __ZNSt3__113__unwrap_iterB8ue170006INS_16reverse_iteratorIPPbEENS_18__unwrap_iter_implIS4_Lb0EEELi0EEEDTclsrT0_8__unwrapclsr3stdE7declvalIT_EEEES8_, symObjAddr: 0x16A14, symBinAddr: 0x10001A69C, symSize: 0x44 }
  - { offsetInCU: 0x18E07, offset: 0x18E07, size: 0x8, addend: 0x0, symName: __ZNSt3__19make_pairB8ue170006INS_16reverse_iteratorIPPbEES4_EENS_4pairINS_18__unwrap_ref_decayIT_E4typeENS6_IT0_E4typeEEEOS7_OSA_, symObjAddr: 0x16A58, symBinAddr: 0x10001A6E0, symSize: 0x38 }
  - { offsetInCU: 0x18E56, offset: 0x18E56, size: 0x8, addend: 0x0, symName: __ZNSt3__114__rewrap_rangeB8ue170006INS_16reverse_iteratorIPPbEES4_EET_S5_T0_, symObjAddr: 0x16A90, symBinAddr: 0x10001A718, symSize: 0x5C }
  - { offsetInCU: 0x18EA2, offset: 0x18EA2, size: 0x8, addend: 0x0, symName: __ZNSt3__113__rewrap_iterB8ue170006INS_16reverse_iteratorIPPbEES4_NS_18__unwrap_iter_implIS4_Lb0EEEEET_S7_T0_, symObjAddr: 0x16AEC, symBinAddr: 0x10001A774, symSize: 0x74 }
  - { offsetInCU: 0x18EF7, offset: 0x18EF7, size: 0x8, addend: 0x0, symName: __ZNSt3__1neB8ue170006IPPbS2_EEbRKNS_16reverse_iteratorIT_EERKNS3_IT0_EE, symObjAddr: 0x16B60, symBinAddr: 0x10001A7E8, symSize: 0x48 }
  - { offsetInCU: 0x18FCD, offset: 0x18FCD, size: 0x8, addend: 0x0, symName: __ZNSt3__127__tree_balance_after_insertB8ue170006IPNS_16__tree_node_baseIPvEEEEvT_S5_, symObjAddr: 0x1790C, symBinAddr: 0x10001B594, symSize: 0x32C }
  - { offsetInCU: 0x19049, offset: 0x19049, size: 0x8, addend: 0x0, symName: __ZNSt3__120__tree_is_left_childB8ue170006IPNS_16__tree_node_baseIPvEEEEbT_, symObjAddr: 0x17C78, symBinAddr: 0x10001B900, symSize: 0x2C }
  - { offsetInCU: 0x1907E, offset: 0x1907E, size: 0x8, addend: 0x0, symName: __ZNSt3__118__tree_left_rotateB8ue170006IPNS_16__tree_node_baseIPvEEEEvT_, symObjAddr: 0x17CA4, symBinAddr: 0x10001B92C, symSize: 0xD8 }
  - { offsetInCU: 0x190C0, offset: 0x190C0, size: 0x8, addend: 0x0, symName: __ZNSt3__119__tree_right_rotateB8ue170006IPNS_16__tree_node_baseIPvEEEEvT_, symObjAddr: 0x17D7C, symBinAddr: 0x10001BA04, symSize: 0xCC }
  - { offsetInCU: 0x19102, offset: 0x19102, size: 0x8, addend: 0x0, symName: __ZNSt3__112__to_addressB8ue170006IP9IRunnableEEPT_S4_, symObjAddr: 0x185B0, symBinAddr: 0x10001C238, symSize: 0x14 }
  - { offsetInCU: 0x19137, offset: 0x19137, size: 0x8, addend: 0x0, symName: __ZNSt3__119__allocate_at_leastB8ue170006INS_9allocatorIP9IRunnableEEEENS_19__allocation_resultINS_16allocator_traitsIT_E7pointerEEERS7_m, symObjAddr: 0x18E68, symBinAddr: 0x10001CAF0, symSize: 0x40 }
  - { offsetInCU: 0x1917A, offset: 0x1917A, size: 0x8, addend: 0x0, symName: __ZNSt3__142__uninitialized_allocator_move_if_noexceptB8ue170006INS_9allocatorIP9IRunnableEENS_16reverse_iteratorIPS3_EES7_S3_vEET1_RT_T0_SB_S8_, symObjAddr: 0x1901C, symBinAddr: 0x10001CCA4, symSize: 0x78 }
  - { offsetInCU: 0x191F7, offset: 0x191F7, size: 0x8, addend: 0x0, symName: __ZNSt3__14swapB8ue170006IPP9IRunnableEENS_9enable_ifIXaasr21is_move_constructibleIT_EE5valuesr18is_move_assignableIS5_EE5valueEvE4typeERS5_S8_, symObjAddr: 0x190E0, symBinAddr: 0x10001CD68, symSize: 0x3C }
  - { offsetInCU: 0x19248, offset: 0x19248, size: 0x8, addend: 0x0, symName: __ZNSt3__14moveB8ue170006INS_16reverse_iteratorIPP9IRunnableEES5_EET0_T_S7_S6_, symObjAddr: 0x191C8, symBinAddr: 0x10001CE50, symSize: 0x78 }
  - { offsetInCU: 0x192A2, offset: 0x192A2, size: 0x8, addend: 0x0, symName: __ZNSt3__16__moveB8ue170006INS_17_ClassicAlgPolicyENS_16reverse_iteratorIPP9IRunnableEES6_S6_EENS_4pairIT0_T2_EES8_T1_S9_, symObjAddr: 0x19240, symBinAddr: 0x10001CEC8, symSize: 0x64 }
  - { offsetInCU: 0x1930E, offset: 0x1930E, size: 0x8, addend: 0x0, symName: __ZNSt3__123__dispatch_copy_or_moveB8ue170006INS_17_ClassicAlgPolicyENS_11__move_loopIS1_EENS_14__move_trivialENS_16reverse_iteratorIPP9IRunnableEES9_S9_EENS_4pairIT2_T4_EESB_T3_SC_, symObjAddr: 0x192A4, symBinAddr: 0x10001CF2C, symSize: 0x64 }
  - { offsetInCU: 0x1938C, offset: 0x1938C, size: 0x8, addend: 0x0, symName: __ZNSt3__121__unwrap_and_dispatchB8ue170006INS_10__overloadINS_11__move_loopINS_17_ClassicAlgPolicyEEENS_14__move_trivialEEENS_16reverse_iteratorIPP9IRunnableEESB_SB_Li0EEENS_4pairIT0_T2_EESD_T1_SE_, symObjAddr: 0x19308, symBinAddr: 0x10001CF90, symSize: 0x12C }
  - { offsetInCU: 0x1941C, offset: 0x1941C, size: 0x8, addend: 0x0, symName: __ZNSt3__114__unwrap_rangeB8ue170006INS_16reverse_iteratorIPP9IRunnableEES5_EENS_4pairIT0_S7_EET_S9_, symObjAddr: 0x19434, symBinAddr: 0x10001D0BC, symSize: 0x84 }
  - { offsetInCU: 0x1953C, offset: 0x1953C, size: 0x8, addend: 0x0, symName: __ZNSt3__113__unwrap_iterB8ue170006INS_16reverse_iteratorIPP9IRunnableEENS_18__unwrap_iter_implIS5_Lb0EEELi0EEEDTclsrT0_8__unwrapclsr3stdE7declvalIT_EEEES9_, symObjAddr: 0x19558, symBinAddr: 0x10001D1E0, symSize: 0x44 }
  - { offsetInCU: 0x19580, offset: 0x19580, size: 0x8, addend: 0x0, symName: __ZNSt3__19make_pairB8ue170006INS_16reverse_iteratorIPP9IRunnableEES5_EENS_4pairINS_18__unwrap_ref_decayIT_E4typeENS7_IT0_E4typeEEEOS8_OSB_, symObjAddr: 0x1959C, symBinAddr: 0x10001D224, symSize: 0x38 }
  - { offsetInCU: 0x195CF, offset: 0x195CF, size: 0x8, addend: 0x0, symName: __ZNSt3__114__rewrap_rangeB8ue170006INS_16reverse_iteratorIPP9IRunnableEES5_EET_S6_T0_, symObjAddr: 0x195D4, symBinAddr: 0x10001D25C, symSize: 0x5C }
  - { offsetInCU: 0x1961B, offset: 0x1961B, size: 0x8, addend: 0x0, symName: __ZNSt3__113__rewrap_iterB8ue170006INS_16reverse_iteratorIPP9IRunnableEES5_NS_18__unwrap_iter_implIS5_Lb0EEEEET_S8_T0_, symObjAddr: 0x19630, symBinAddr: 0x10001D2B8, symSize: 0x74 }
  - { offsetInCU: 0x19670, offset: 0x19670, size: 0x8, addend: 0x0, symName: __ZNSt3__1neB8ue170006IPP9IRunnableS3_EEbRKNS_16reverse_iteratorIT_EERKNS4_IT0_EE, symObjAddr: 0x196A4, symBinAddr: 0x10001D32C, symSize: 0x48 }
  - { offsetInCU: 0x19728, offset: 0x19728, size: 0x8, addend: 0x0, symName: __ZNSt3__112__to_addressB8ue170006IKcEEPT_S3_, symObjAddr: 0x19AE0, symBinAddr: 0x10001D768, symSize: 0x14 }
  - { offsetInCU: 0x19790, offset: 0x19790, size: 0x8, addend: 0x0, symName: __ZNSt3__13minB8ue170006IdNS_6__lessIvvEEEERKT_S5_S5_T0_, symObjAddr: 0x19FD4, symBinAddr: 0x10001DC5C, symSize: 0x54 }
  - { offsetInCU: 0x1A02A, offset: 0x1A02A, size: 0x8, addend: 0x0, symName: __ZSt28__throw_bad_array_new_lengthB8ue170006v, symObjAddr: 0xA488, symBinAddr: 0x10000E110, symSize: 0x34 }
  - { offsetInCU: 0x1A3E9, offset: 0x1A3E9, size: 0x8, addend: 0x0, symName: __ZNKSt3__16chrono13__duration_ltINS0_8durationIxNS_5ratioILl1ELl1EEEEENS2_IeS4_EEEclB8ue170006ERKS5_RKS6_, symObjAddr: 0x7EAC, symBinAddr: 0x10000BB34, symSize: 0x6C }
  - { offsetInCU: 0x1A464, offset: 0x1A464, size: 0x8, addend: 0x0, symName: __ZNKSt3__16chrono15__duration_castINS0_8durationIxNS_5ratioILl1ELl1EEEEENS2_IxNS3_ILl1ELl1000000000EEEEENS3_ILl1000000000ELl1EEELb0ELb1EEclB8ue170006ERKS5_, symObjAddr: 0x808C, symBinAddr: 0x10000BD14, symSize: 0x4C }
  - { offsetInCU: 0x1A4AB, offset: 0x1A4AB, size: 0x8, addend: 0x0, symName: __ZNKSt3__16chrono13__duration_ltINS0_8durationIxNS_5ratioILl1ELl1000000000EEEEENS2_IxNS3_ILl1ELl1EEEEEEclB8ue170006ERKS5_RKS7_, symObjAddr: 0x813C, symBinAddr: 0x10000BDC4, symSize: 0x6C }
  - { offsetInCU: 0x1A6BB, offset: 0x1A6BB, size: 0x8, addend: 0x0, symName: __ZNKSt3__16chrono13__duration_ltINS0_8durationIxNS_5ratioILl1ELl1000000EEEEENS2_IeNS3_ILl1ELl1EEEEEEclB8ue170006ERKS5_RKS7_, symObjAddr: 0x8CF0, symBinAddr: 0x10000C978, symSize: 0x78 }
  - { offsetInCU: 0x1A736, offset: 0x1A736, size: 0x8, addend: 0x0, symName: __ZNKSt3__16chrono15__duration_castINS0_8durationIeNS_5ratioILl1ELl1EEEEENS2_IeNS3_ILl1ELl1000000EEEEENS3_ILl1000000ELl1EEELb0ELb1EEclB8ue170006ERKS5_, symObjAddr: 0x8F90, symBinAddr: 0x10000CC18, symSize: 0x4C }
  - { offsetInCU: 0x1A77D, offset: 0x1A77D, size: 0x8, addend: 0x0, symName: __ZNKSt3__16chrono15__duration_castINS0_8durationIxNS_5ratioILl1ELl1000000EEEEENS2_IxNS3_ILl1ELl1000000000EEEEENS3_ILl1000ELl1EEELb0ELb1EEclB8ue170006ERKS5_, symObjAddr: 0x8FDC, symBinAddr: 0x10000CC64, symSize: 0x48 }
  - { offsetInCU: 0x1A7C4, offset: 0x1A7C4, size: 0x8, addend: 0x0, symName: __ZNKSt3__16chrono13__duration_ltINS0_8durationIxNS_5ratioILl1ELl1000000000EEEEENS2_IxNS3_ILl1ELl1000000EEEEEEclB8ue170006ERKS5_RKS7_, symObjAddr: 0x9024, symBinAddr: 0x10000CCAC, symSize: 0x6C }
  - { offsetInCU: 0x1A9CC, offset: 0x1A9CC, size: 0x8, addend: 0x0, symName: __ZNSt3__16vectorIiNS_9allocatorIiEEE26__swap_out_circular_bufferERNS_14__split_bufferIiRS2_EE, symObjAddr: 0x9DA4, symBinAddr: 0x10000DA2C, symSize: 0x110 }
  - { offsetInCU: 0x1B017, offset: 0x1B017, size: 0x8, addend: 0x0, symName: __ZNSt3__16vectorI32MathOperationsInTightForLoopTaskNS_9allocatorIS1_EEE26__swap_out_circular_bufferERNS_14__split_bufferIS1_RS3_EE, symObjAddr: 0xD4B0, symBinAddr: 0x100011138, symSize: 0x110 }
  - { offsetInCU: 0x1B229, offset: 0x1B229, size: 0x8, addend: 0x0, symName: __ZNSt3__16vectorIPfNS_9allocatorIS1_EEE26__swap_out_circular_bufferERNS_14__split_bufferIS1_RS3_EE, symObjAddr: 0xEE54, symBinAddr: 0x100012ADC, symSize: 0x110 }
  - { offsetInCU: 0x1B4C1, offset: 0x1B4C1, size: 0x8, addend: 0x0, symName: __ZNSt3__16vectorI10ReduceTaskNS_9allocatorIS1_EEE26__swap_out_circular_bufferERNS_14__split_bufferIS1_RS3_EE, symObjAddr: 0x10814, symBinAddr: 0x10001449C, symSize: 0x110 }
  - { offsetInCU: 0x1B6C9, offset: 0x1B6C9, size: 0x8, addend: 0x0, symName: __ZNSt3__16vectorINS0_IiNS_9allocatorIiEEEENS1_IS3_EEE26__swap_out_circular_bufferERNS_14__split_bufferIS3_RS4_EE, symObjAddr: 0x122C4, symBinAddr: 0x100015F4C, symSize: 0x110 }
  - { offsetInCU: 0x1BA76, offset: 0x1BA76, size: 0x8, addend: 0x0, symName: __ZNSt3__16vectorIPbNS_9allocatorIS1_EEE26__swap_out_circular_bufferERNS_14__split_bufferIS1_RS3_EE, symObjAddr: 0x1621C, symBinAddr: 0x100019EA4, symSize: 0x110 }
  - { offsetInCU: 0x1BC3D, offset: 0x1BC3D, size: 0x8, addend: 0x0, symName: __ZNSt3__16vectorIP9IRunnableNS_9allocatorIS2_EEE26__swap_out_circular_bufferERNS_14__split_bufferIS2_RS4_EE, symObjAddr: 0x18B08, symBinAddr: 0x10001C790, symSize: 0x110 }
  - { offsetInCU: 0x1DF46, offset: 0x1DF46, size: 0x8, addend: 0x0, symName: __Z8yourTestP11ITaskSystembii, symObjAddr: 0x0, symBinAddr: 0x100003C88, symSize: 0x19C }
  - { offsetInCU: 0x1E037, offset: 0x1E037, size: 0x8, addend: 0x0, symName: __ZN10CycleTimer14currentSecondsEv, symObjAddr: 0x19C, symBinAddr: 0x100003E24, symSize: 0x34 }
  - { offsetInCU: 0x1E04A, offset: 0x1E04A, size: 0x8, addend: 0x0, symName: __Z10simpleTestP11ITaskSystemb, symObjAddr: 0x1D0, symBinAddr: 0x100003E58, symSize: 0x3C8 }
  - { offsetInCU: 0x1E282, offset: 0x1E282, size: 0x8, addend: 0x0, symName: __ZN18SimpleMultiplyTaskC1EiPi, symObjAddr: 0x598, symBinAddr: 0x100004220, symSize: 0x3C }
  - { offsetInCU: 0x1E2C7, offset: 0x1E2C7, size: 0x8, addend: 0x0, symName: __ZNSt3__16vectorIiNS_9allocatorIiEEEC1B8ue170006Ev, symObjAddr: 0x5D4, symBinAddr: 0x10000425C, symSize: 0x2C }
  - { offsetInCU: 0x1E2EF, offset: 0x1E2EF, size: 0x8, addend: 0x0, symName: __ZNSt3__16vectorIiNS_9allocatorIiEEE9push_backB8ue170006ERKi, symObjAddr: 0x600, symBinAddr: 0x100004288, symSize: 0x6C }
  - { offsetInCU: 0x1E325, offset: 0x1E325, size: 0x8, addend: 0x0, symName: __ZNSt3__16vectorIiNS_9allocatorIiEEED1B8ue170006Ev, symObjAddr: 0x66C, symBinAddr: 0x1000042F4, symSize: 0x2C }
  - { offsetInCU: 0x1E34E, offset: 0x1E34E, size: 0x8, addend: 0x0, symName: __ZN18SimpleMultiplyTask13multiply_taskEii, symObjAddr: 0x698, symBinAddr: 0x100004320, symSize: 0x64 }
  - { offsetInCU: 0x1E3A9, offset: 0x1E3A9, size: 0x8, addend: 0x0, symName: __ZN18SimpleMultiplyTaskD1Ev, symObjAddr: 0x6FC, symBinAddr: 0x100004384, symSize: 0x2C }
  - { offsetInCU: 0x1E3D1, offset: 0x1E3D1, size: 0x8, addend: 0x0, symName: __Z14simpleTestSyncP11ITaskSystem, symObjAddr: 0x728, symBinAddr: 0x1000043B0, symSize: 0x3C }
  - { offsetInCU: 0x1E3FF, offset: 0x1E3FF, size: 0x8, addend: 0x0, symName: __Z15simpleTestAsyncP11ITaskSystem, symObjAddr: 0x764, symBinAddr: 0x1000043EC, symSize: 0x3C }
  - { offsetInCU: 0x1E42D, offset: 0x1E42D, size: 0x8, addend: 0x0, symName: __Z12pingPongTestP11ITaskSystembbii, symObjAddr: 0x7A0, symBinAddr: 0x100004428, symSize: 0x614 }
  - { offsetInCU: 0x1E64B, offset: 0x1E64B, size: 0x8, addend: 0x0, symName: __ZNSt3__16vectorIP12PingPongTaskNS_9allocatorIS2_EEEC1Em, symObjAddr: 0xDB4, symBinAddr: 0x100004A3C, symSize: 0x34 }
  - { offsetInCU: 0x1E685, offset: 0x1E685, size: 0x8, addend: 0x0, symName: __ZN12PingPongTaskC1EiPiS0_bi, symObjAddr: 0xDE8, symBinAddr: 0x100004A70, symSize: 0x60 }
  - { offsetInCU: 0x1E6F4, offset: 0x1E6F4, size: 0x8, addend: 0x0, symName: __ZNSt3__16vectorIP12PingPongTaskNS_9allocatorIS2_EEEixB8ue170006Em, symObjAddr: 0xE48, symBinAddr: 0x100004AD0, symSize: 0x24 }
  - { offsetInCU: 0x1E729, offset: 0x1E729, size: 0x8, addend: 0x0, symName: __ZN12PingPongTask15ping_pong_itersEiii, symObjAddr: 0xE6C, symBinAddr: 0x100004AF4, symSize: 0x64 }
  - { offsetInCU: 0x1E776, offset: 0x1E776, size: 0x8, addend: 0x0, symName: __ZN12PingPongTask14ping_pong_workEii, symObjAddr: 0xED0, symBinAddr: 0x100004B58, symSize: 0x88 }
  - { offsetInCU: 0x1E7D1, offset: 0x1E7D1, size: 0x8, addend: 0x0, symName: __ZNSt3__16vectorIP12PingPongTaskNS_9allocatorIS2_EEED1B8ue170006Ev, symObjAddr: 0xF58, symBinAddr: 0x100004BE0, symSize: 0x2C }
  - { offsetInCU: 0x1E7F9, offset: 0x1E7F9, size: 0x8, addend: 0x0, symName: __Z19superSuperLightTestP11ITaskSystem, symObjAddr: 0xF84, symBinAddr: 0x100004C0C, symSize: 0x58 }
  - { offsetInCU: 0x1E845, offset: 0x1E845, size: 0x8, addend: 0x0, symName: __Z24superSuperLightAsyncTestP11ITaskSystem, symObjAddr: 0xFDC, symBinAddr: 0x100004C64, symSize: 0x54 }
  - { offsetInCU: 0x1E891, offset: 0x1E891, size: 0x8, addend: 0x0, symName: __Z14superLightTestP11ITaskSystem, symObjAddr: 0x1030, symBinAddr: 0x100004CB8, symSize: 0x5C }
  - { offsetInCU: 0x1E8DD, offset: 0x1E8DD, size: 0x8, addend: 0x0, symName: __Z19superLightAsyncTestP11ITaskSystem, symObjAddr: 0x108C, symBinAddr: 0x100004D14, symSize: 0x58 }
  - { offsetInCU: 0x1E929, offset: 0x1E929, size: 0x8, addend: 0x0, symName: __Z17pingPongEqualTestP11ITaskSystem, symObjAddr: 0x10E4, symBinAddr: 0x100004D6C, symSize: 0x5C }
  - { offsetInCU: 0x1E975, offset: 0x1E975, size: 0x8, addend: 0x0, symName: __Z19pingPongUnequalTestP11ITaskSystem, symObjAddr: 0x1140, symBinAddr: 0x100004DC8, symSize: 0x58 }
  - { offsetInCU: 0x1E9C1, offset: 0x1E9C1, size: 0x8, addend: 0x0, symName: __Z22pingPongEqualAsyncTestP11ITaskSystem, symObjAddr: 0x1198, symBinAddr: 0x100004E20, symSize: 0x58 }
  - { offsetInCU: 0x1EA0D, offset: 0x1EA0D, size: 0x8, addend: 0x0, symName: __Z24pingPongUnequalAsyncTestP11ITaskSystem, symObjAddr: 0x11F0, symBinAddr: 0x100004E78, symSize: 0x5C }
  - { offsetInCU: 0x1EA59, offset: 0x1EA59, size: 0x8, addend: 0x0, symName: __Z26recursiveFibonacciTestBaseP11ITaskSystemb, symObjAddr: 0x124C, symBinAddr: 0x100004ED4, symSize: 0x3F4 }
  - { offsetInCU: 0x1EBDB, offset: 0x1EBDB, size: 0x8, addend: 0x0, symName: __ZNSt3__16vectorIP22RecursiveFibonacciTaskNS_9allocatorIS2_EEEC1Em, symObjAddr: 0x1640, symBinAddr: 0x1000052C8, symSize: 0x34 }
  - { offsetInCU: 0x1EC15, offset: 0x1EC15, size: 0x8, addend: 0x0, symName: __ZN22RecursiveFibonacciTaskC1EiPi, symObjAddr: 0x1674, symBinAddr: 0x1000052FC, symSize: 0x3C }
  - { offsetInCU: 0x1EC5A, offset: 0x1EC5A, size: 0x8, addend: 0x0, symName: __ZNSt3__16vectorIP22RecursiveFibonacciTaskNS_9allocatorIS2_EEEixB8ue170006Em, symObjAddr: 0x16B0, symBinAddr: 0x100005338, symSize: 0x24 }
  - { offsetInCU: 0x1EC90, offset: 0x1EC90, size: 0x8, addend: 0x0, symName: __ZNSt3__16vectorIP22RecursiveFibonacciTaskNS_9allocatorIS2_EEED1B8ue170006Ev, symObjAddr: 0x16D4, symBinAddr: 0x10000535C, symSize: 0x2C }
  - { offsetInCU: 0x1ECB8, offset: 0x1ECB8, size: 0x8, addend: 0x0, symName: __Z22recursiveFibonacciTestP11ITaskSystem, symObjAddr: 0x1700, symBinAddr: 0x100005388, symSize: 0x3C }
  - { offsetInCU: 0x1ECE6, offset: 0x1ECE6, size: 0x8, addend: 0x0, symName: __Z27recursiveFibonacciAsyncTestP11ITaskSystem, symObjAddr: 0x173C, symBinAddr: 0x1000053C4, symSize: 0x3C }
  - { offsetInCU: 0x1ED14, offset: 0x1ED14, size: 0x8, addend: 0x0, symName: __Z36mathOperationsInTightForLoopTestBaseP11ITaskSystemibb, symObjAddr: 0x1778, symBinAddr: 0x100005400, symSize: 0x638 }
  - { offsetInCU: 0x1EEE2, offset: 0x1EEE2, size: 0x8, addend: 0x0, symName: __ZNSt3__16vectorI32MathOperationsInTightForLoopTaskNS_9allocatorIS1_EEEC1B8ue170006Ev, symObjAddr: 0x1DB0, symBinAddr: 0x100005A38, symSize: 0x2C }
  - { offsetInCU: 0x1EF0A, offset: 0x1EF0A, size: 0x8, addend: 0x0, symName: __ZNSt3__16vectorI32MathOperationsInTightForLoopTaskNS_9allocatorIS1_EEE9push_backB8ue170006EOS1_, symObjAddr: 0x1DDC, symBinAddr: 0x100005A64, symSize: 0x6C }
  - { offsetInCU: 0x1EF40, offset: 0x1EF40, size: 0x8, addend: 0x0, symName: __ZN32MathOperationsInTightForLoopTaskC1EiPf, symObjAddr: 0x1E48, symBinAddr: 0x100005AD0, symSize: 0x3C }
  - { offsetInCU: 0x1EF85, offset: 0x1EF85, size: 0x8, addend: 0x0, symName: __ZN32MathOperationsInTightForLoopTaskD1Ev, symObjAddr: 0x1E84, symBinAddr: 0x100005B0C, symSize: 0x2C }
  - { offsetInCU: 0x1EFAE, offset: 0x1EFAE, size: 0x8, addend: 0x0, symName: __ZNSt3__16vectorI32MathOperationsInTightForLoopTaskNS_9allocatorIS1_EEEixB8ue170006Em, symObjAddr: 0x1EB0, symBinAddr: 0x100005B38, symSize: 0x2C }
  - { offsetInCU: 0x1EFE3, offset: 0x1EFE3, size: 0x8, addend: 0x0, symName: __Z5floorB8ue170006f, symObjAddr: 0x1EDC, symBinAddr: 0x100005B64, symSize: 0x18 }
  - { offsetInCU: 0x1F012, offset: 0x1F012, size: 0x8, addend: 0x0, symName: __ZNSt3__16vectorI32MathOperationsInTightForLoopTaskNS_9allocatorIS1_EEED1B8ue170006Ev, symObjAddr: 0x1EF4, symBinAddr: 0x100005B7C, symSize: 0x2C }
  - { offsetInCU: 0x1F03A, offset: 0x1F03A, size: 0x8, addend: 0x0, symName: __Z32mathOperationsInTightForLoopTestP11ITaskSystem, symObjAddr: 0x1F20, symBinAddr: 0x100005BA8, symSize: 0x48 }
  - { offsetInCU: 0x1F068, offset: 0x1F068, size: 0x8, addend: 0x0, symName: __Z37mathOperationsInTightForLoopAsyncTestP11ITaskSystem, symObjAddr: 0x1F68, symBinAddr: 0x100005BF0, symSize: 0x44 }
  - { offsetInCU: 0x1F096, offset: 0x1F096, size: 0x8, addend: 0x0, symName: __Z42mathOperationsInTightForLoopFewerTasksTestP11ITaskSystem, symObjAddr: 0x1FAC, symBinAddr: 0x100005C34, symSize: 0x44 }
  - { offsetInCU: 0x1F0C4, offset: 0x1F0C4, size: 0x8, addend: 0x0, symName: __Z47mathOperationsInTightForLoopFewerTasksAsyncTestP11ITaskSystem, symObjAddr: 0x1FF0, symBinAddr: 0x100005C78, symSize: 0x48 }
  - { offsetInCU: 0x1F0F2, offset: 0x1F0F2, size: 0x8, addend: 0x0, symName: __Z41mathOperationsInTightForLoopFanInTestBaseP11ITaskSystemb, symObjAddr: 0x2038, symBinAddr: 0x100005CC0, symSize: 0x688 }
  - { offsetInCU: 0x1F295, offset: 0x1F295, size: 0x8, addend: 0x0, symName: __ZN10ReduceTaskC1EiiPfS0_, symObjAddr: 0x26C0, symBinAddr: 0x100006348, symSize: 0x4C }
  - { offsetInCU: 0x1F2FA, offset: 0x1F2FA, size: 0x8, addend: 0x0, symName: __ZN10ReduceTaskD1Ev, symObjAddr: 0x270C, symBinAddr: 0x100006394, symSize: 0x2C }
  - { offsetInCU: 0x1F325, offset: 0x1F325, size: 0x8, addend: 0x0, symName: __Z37mathOperationsInTightForLoopFanInTestP11ITaskSystem, symObjAddr: 0x2738, symBinAddr: 0x1000063C0, symSize: 0x3C }
  - { offsetInCU: 0x1F353, offset: 0x1F353, size: 0x8, addend: 0x0, symName: __Z42mathOperationsInTightForLoopFanInAsyncTestP11ITaskSystem, symObjAddr: 0x2774, symBinAddr: 0x1000063FC, symSize: 0x3C }
  - { offsetInCU: 0x1F381, offset: 0x1F381, size: 0x8, addend: 0x0, symName: __Z49mathOperationsInTightForLoopReductionTreeTestBaseP11ITaskSystemb, symObjAddr: 0x27B0, symBinAddr: 0x100006438, symSize: 0xD18 }
  - { offsetInCU: 0x1F6EE, offset: 0x1F6EE, size: 0x8, addend: 0x0, symName: __ZNSt3__16vectorIPfNS_9allocatorIS1_EEEC1B8ue170006Ev, symObjAddr: 0x34C8, symBinAddr: 0x100007150, symSize: 0x2C }
  - { offsetInCU: 0x1F716, offset: 0x1F716, size: 0x8, addend: 0x0, symName: __ZNSt3__16vectorIPfNS_9allocatorIS1_EEE9push_backB8ue170006ERKS1_, symObjAddr: 0x34F4, symBinAddr: 0x10000717C, symSize: 0x6C }
  - { offsetInCU: 0x1F74C, offset: 0x1F74C, size: 0x8, addend: 0x0, symName: __ZNSt3__16vectorI10ReduceTaskNS_9allocatorIS1_EEEC1B8ue170006Ev, symObjAddr: 0x3560, symBinAddr: 0x1000071E8, symSize: 0x2C }
  - { offsetInCU: 0x1F775, offset: 0x1F775, size: 0x8, addend: 0x0, symName: __ZNSt3__16vectorIPfNS_9allocatorIS1_EEEixB8ue170006Em, symObjAddr: 0x358C, symBinAddr: 0x100007214, symSize: 0x24 }
  - { offsetInCU: 0x1F7AA, offset: 0x1F7AA, size: 0x8, addend: 0x0, symName: __ZNSt3__16vectorI10ReduceTaskNS_9allocatorIS1_EEE12emplace_backIJRS1_EEEvDpOT_, symObjAddr: 0x35B0, symBinAddr: 0x100007238, symSize: 0x6C }
  - { offsetInCU: 0x1F7EB, offset: 0x1F7EB, size: 0x8, addend: 0x0, symName: __ZNSt3__16vectorINS0_IiNS_9allocatorIiEEEENS1_IS3_EEEC1B8ue170006Ev, symObjAddr: 0x361C, symBinAddr: 0x1000072A4, symSize: 0x2C }
  - { offsetInCU: 0x1F814, offset: 0x1F814, size: 0x8, addend: 0x0, symName: __ZNKSt3__16vectorIiNS_9allocatorIiEEE4sizeB8ue170006Ev, symObjAddr: 0x3648, symBinAddr: 0x1000072D0, symSize: 0x28 }
  - { offsetInCU: 0x1F838, offset: 0x1F838, size: 0x8, addend: 0x0, symName: __ZNSt3__16vectorINS0_IiNS_9allocatorIiEEEENS1_IS3_EEE12emplace_backIJRS3_EEEvDpOT_, symObjAddr: 0x3670, symBinAddr: 0x1000072F8, symSize: 0x6C }
  - { offsetInCU: 0x1F878, offset: 0x1F878, size: 0x8, addend: 0x0, symName: __ZNSt3__16vectorIiNS_9allocatorIiEEEaSB8ue170006EOS3_, symObjAddr: 0x36DC, symBinAddr: 0x100007364, symSize: 0x34 }
  - { offsetInCU: 0x1F8AE, offset: 0x1F8AE, size: 0x8, addend: 0x0, symName: __ZNSt3__16vectorI10ReduceTaskNS_9allocatorIS1_EEEixB8ue170006Em, symObjAddr: 0x3710, symBinAddr: 0x100007398, symSize: 0x24 }
  - { offsetInCU: 0x1F8E4, offset: 0x1F8E4, size: 0x8, addend: 0x0, symName: __ZNSt3__16vectorINS0_IiNS_9allocatorIiEEEENS1_IS3_EEEixB8ue170006Em, symObjAddr: 0x3734, symBinAddr: 0x1000073BC, symSize: 0x2C }
  - { offsetInCU: 0x1F919, offset: 0x1F919, size: 0x8, addend: 0x0, symName: __ZNSt3__16vectorINS0_IiNS_9allocatorIiEEEENS1_IS3_EEE5clearB8ue170006Ev, symObjAddr: 0x3760, symBinAddr: 0x1000073E8, symSize: 0x44 }
  - { offsetInCU: 0x1F94C, offset: 0x1F94C, size: 0x8, addend: 0x0, symName: __ZNSt3__16vectorINS0_IiNS_9allocatorIiEEEENS1_IS3_EEE5beginB8ue170006Ev, symObjAddr: 0x37A4, symBinAddr: 0x10000742C, symSize: 0x30 }
  - { offsetInCU: 0x1F972, offset: 0x1F972, size: 0x8, addend: 0x0, symName: __ZNSt3__16vectorINS0_IiNS_9allocatorIiEEEENS1_IS3_EEE3endB8ue170006Ev, symObjAddr: 0x37D4, symBinAddr: 0x10000745C, symSize: 0x30 }
  - { offsetInCU: 0x1F999, offset: 0x1F999, size: 0x8, addend: 0x0, symName: __ZNKSt3__111__wrap_iterIPNS_6vectorIiNS_9allocatorIiEEEEEdeB8ue170006Ev, symObjAddr: 0x3838, symBinAddr: 0x1000074C0, symSize: 0x18 }
  - { offsetInCU: 0x1F9BE, offset: 0x1F9BE, size: 0x8, addend: 0x0, symName: __ZNSt3__16vectorIiNS_9allocatorIiEEEC1ERKS3_, symObjAddr: 0x3850, symBinAddr: 0x1000074D8, symSize: 0x34 }
  - { offsetInCU: 0x1F9F8, offset: 0x1F9F8, size: 0x8, addend: 0x0, symName: __ZNSt3__111__wrap_iterIPNS_6vectorIiNS_9allocatorIiEEEEEppB8ue170006Ev, symObjAddr: 0x3884, symBinAddr: 0x10000750C, symSize: 0x20 }
  - { offsetInCU: 0x1FA1D, offset: 0x1FA1D, size: 0x8, addend: 0x0, symName: __ZNSt3__16vectorINS0_IiNS_9allocatorIiEEEENS1_IS3_EEED1B8ue170006Ev, symObjAddr: 0x38A4, symBinAddr: 0x10000752C, symSize: 0x2C }
  - { offsetInCU: 0x1FA46, offset: 0x1FA46, size: 0x8, addend: 0x0, symName: __ZNKSt3__16vectorI10ReduceTaskNS_9allocatorIS1_EEE4sizeB8ue170006Ev, symObjAddr: 0x38D0, symBinAddr: 0x100007558, symSize: 0x28 }
  - { offsetInCU: 0x1FA6B, offset: 0x1FA6B, size: 0x8, addend: 0x0, symName: __ZNSt3__16vectorI10ReduceTaskNS_9allocatorIS1_EEED1B8ue170006Ev, symObjAddr: 0x38F8, symBinAddr: 0x100007580, symSize: 0x2C }
  - { offsetInCU: 0x1FA94, offset: 0x1FA94, size: 0x8, addend: 0x0, symName: __ZNSt3__16vectorIPfNS_9allocatorIS1_EEED1B8ue170006Ev, symObjAddr: 0x3924, symBinAddr: 0x1000075AC, symSize: 0x2C }
  - { offsetInCU: 0x1FABC, offset: 0x1FABC, size: 0x8, addend: 0x0, symName: __Z45mathOperationsInTightForLoopReductionTreeTestP11ITaskSystem, symObjAddr: 0x3950, symBinAddr: 0x1000075D8, symSize: 0x3C }
  - { offsetInCU: 0x1FAEA, offset: 0x1FAEA, size: 0x8, addend: 0x0, symName: __Z50mathOperationsInTightForLoopReductionTreeAsyncTestP11ITaskSystem, symObjAddr: 0x398C, symBinAddr: 0x100007614, symSize: 0x3C }
  - { offsetInCU: 0x1FB18, offset: 0x1FB18, size: 0x8, addend: 0x0, symName: __Z27spinBetweenRunCallsTestBaseP11ITaskSystemb, symObjAddr: 0x39C8, symBinAddr: 0x100007650, symSize: 0x3EC }
  - { offsetInCU: 0x1FCE6, offset: 0x1FCE6, size: 0x8, addend: 0x0, symName: __ZN9LightTaskC1EPi, symObjAddr: 0x3DB4, symBinAddr: 0x100007A3C, symSize: 0x34 }
  - { offsetInCU: 0x1FD1D, offset: 0x1FD1D, size: 0x8, addend: 0x0, symName: __ZN22RecursiveFibonacciTaskD1Ev, symObjAddr: 0x3DE8, symBinAddr: 0x100007A70, symSize: 0x2C }
  - { offsetInCU: 0x1FD46, offset: 0x1FD46, size: 0x8, addend: 0x0, symName: __ZN9LightTaskD1Ev, symObjAddr: 0x3E14, symBinAddr: 0x100007A9C, symSize: 0x2C }
  - { offsetInCU: 0x1FD6E, offset: 0x1FD6E, size: 0x8, addend: 0x0, symName: __Z23spinBetweenRunCallsTestP11ITaskSystem, symObjAddr: 0x3E40, symBinAddr: 0x100007AC8, symSize: 0x3C }
  - { offsetInCU: 0x1FD9C, offset: 0x1FD9C, size: 0x8, addend: 0x0, symName: __Z28spinBetweenRunCallsAsyncTestP11ITaskSystem, symObjAddr: 0x3E7C, symBinAddr: 0x100007B04, symSize: 0x3C }
  - { offsetInCU: 0x1FDCA, offset: 0x1FDCA, size: 0x8, addend: 0x0, symName: __Z25mandelbrotChunkedTestBaseP11ITaskSystemb, symObjAddr: 0x3EB8, symBinAddr: 0x100007B40, symSize: 0x36C }
  - { offsetInCU: 0x2008C, offset: 0x2008C, size: 0x8, addend: 0x0, symName: __ZN14MandelbrotTaskC1EPNS_10MandelArgsEi, symObjAddr: 0x4224, symBinAddr: 0x100007EAC, symSize: 0x3C }
  - { offsetInCU: 0x200D2, offset: 0x200D2, size: 0x8, addend: 0x0, symName: __ZN14MandelbrotTask16mandelbrotSerialEffffiiiiiPi, symObjAddr: 0x4260, symBinAddr: 0x100007EE8, symSize: 0x168 }
  - { offsetInCU: 0x2022F, offset: 0x2022F, size: 0x8, addend: 0x0, symName: __ZN14MandelbrotTaskD1Ev, symObjAddr: 0x43C8, symBinAddr: 0x100008050, symSize: 0x2C }
  - { offsetInCU: 0x20257, offset: 0x20257, size: 0x8, addend: 0x0, symName: __Z21mandelbrotChunkedTestP11ITaskSystem, symObjAddr: 0x43F4, symBinAddr: 0x10000807C, symSize: 0x3C }
  - { offsetInCU: 0x20285, offset: 0x20285, size: 0x8, addend: 0x0, symName: __Z26mandelbrotChunkedAsyncTestP11ITaskSystem, symObjAddr: 0x4430, symBinAddr: 0x1000080B8, symSize: 0x3C }
  - { offsetInCU: 0x202B3, offset: 0x202B3, size: 0x8, addend: 0x0, symName: __Z17simpleRunDepsTestP11ITaskSystem, symObjAddr: 0x446C, symBinAddr: 0x1000080F4, symSize: 0x2B0 }
  - { offsetInCU: 0x20409, offset: 0x20409, size: 0x8, addend: 0x0, symName: __ZN9SleepTaskC1Ei, symObjAddr: 0x471C, symBinAddr: 0x1000083A4, symSize: 0x34 }
  - { offsetInCU: 0x20440, offset: 0x20440, size: 0x8, addend: 0x0, symName: __Z21strictDiamondDepsTestP11ITaskSystem, symObjAddr: 0x4750, symBinAddr: 0x1000083D8, symSize: 0x568 }
  - { offsetInCU: 0x205A0, offset: 0x205A0, size: 0x8, addend: 0x0, symName: __ZNSt3__16vectorIPbNS_9allocatorIS1_EEEC1B8ue170006Ev, symObjAddr: 0x4CB8, symBinAddr: 0x100008940, symSize: 0x2C }
  - { offsetInCU: 0x206AE, offset: 0x206AE, size: 0x8, addend: 0x0, symName: __ZN20StrictDependencyTaskC1ERKNSt3__16vectorIPbNS0_9allocatorIS2_EEEES2_, symObjAddr: 0x4CE4, symBinAddr: 0x10000896C, symSize: 0x3C }
  - { offsetInCU: 0x206F5, offset: 0x206F5, size: 0x8, addend: 0x0, symName: __ZNSt3__16vectorIPbNS_9allocatorIS1_EEEC1B8ue170006ESt16initializer_listIS1_E, symObjAddr: 0x4D20, symBinAddr: 0x1000089A8, symSize: 0x3C }
  - { offsetInCU: 0x2072F, offset: 0x2072F, size: 0x8, addend: 0x0, symName: __ZNSt3__16vectorIPbNS_9allocatorIS1_EEED1B8ue170006Ev, symObjAddr: 0x4D5C, symBinAddr: 0x1000089E4, symSize: 0x2C }
  - { offsetInCU: 0x20757, offset: 0x20757, size: 0x8, addend: 0x0, symName: __Z23strictGraphDepsTestBaseP11ITaskSystemiij, symObjAddr: 0x4D88, symBinAddr: 0x100008A10, symSize: 0x934 }
  - { offsetInCU: 0x209C0, offset: 0x209C0, size: 0x8, addend: 0x0, symName: __ZNSt3__13setINS_4pairIiiEENS_4lessIS2_EENS_9allocatorIS2_EEEC1B8ue170006Ev, symObjAddr: 0x56BC, symBinAddr: 0x100009344, symSize: 0x2C }
  - { offsetInCU: 0x209E8, offset: 0x209E8, size: 0x8, addend: 0x0, symName: __ZNKSt3__13setINS_4pairIiiEENS_4lessIS2_EENS_9allocatorIS2_EEE5countB8ue170006ERKS2_, symObjAddr: 0x5724, symBinAddr: 0x1000093AC, symSize: 0x2C }
  - { offsetInCU: 0x20A1C, offset: 0x20A1C, size: 0x8, addend: 0x0, symName: __ZNSt3__14pairIiiEC1B8ue170006IRiS3_LPv0EEEOT_OT0_, symObjAddr: 0x5750, symBinAddr: 0x1000093D8, symSize: 0x3C }
  - { offsetInCU: 0x20A78, offset: 0x20A78, size: 0x8, addend: 0x0, symName: __ZNSt3__16vectorIPbNS_9allocatorIS1_EEE9push_backB8ue170006EOS1_, symObjAddr: 0x578C, symBinAddr: 0x100009414, symSize: 0x6C }
  - { offsetInCU: 0x20AAD, offset: 0x20AAD, size: 0x8, addend: 0x0, symName: __ZNSt3__13setINS_4pairIiiEENS_4lessIS2_EENS_9allocatorIS2_EEE6insertB8ue170006EOS2_, symObjAddr: 0x57F8, symBinAddr: 0x100009480, symSize: 0x4C }
  - { offsetInCU: 0x20AE1, offset: 0x20AE1, size: 0x8, addend: 0x0, symName: __ZNSt3__16vectorIP9IRunnableNS_9allocatorIS2_EEEC1B8ue170006Ev, symObjAddr: 0x5844, symBinAddr: 0x1000094CC, symSize: 0x2C }
  - { offsetInCU: 0x20B09, offset: 0x20B09, size: 0x8, addend: 0x0, symName: __ZNSt3__16vectorIP9IRunnableNS_9allocatorIS2_EEE9push_backB8ue170006EOS2_, symObjAddr: 0x5870, symBinAddr: 0x1000094F8, symSize: 0x6C }
  - { offsetInCU: 0x20B3E, offset: 0x20B3E, size: 0x8, addend: 0x0, symName: __ZNSt3__16vectorIiNS_9allocatorIiEEE5beginB8ue170006Ev, symObjAddr: 0x58DC, symBinAddr: 0x100009564, symSize: 0x30 }
  - { offsetInCU: 0x20B64, offset: 0x20B64, size: 0x8, addend: 0x0, symName: __ZNSt3__16vectorIiNS_9allocatorIiEEE3endB8ue170006Ev, symObjAddr: 0x590C, symBinAddr: 0x100009594, symSize: 0x30 }
  - { offsetInCU: 0x20B8B, offset: 0x20B8B, size: 0x8, addend: 0x0, symName: __ZNKSt3__111__wrap_iterIPiEdeB8ue170006Ev, symObjAddr: 0x5970, symBinAddr: 0x1000095F8, symSize: 0x18 }
  - { offsetInCU: 0x20BB0, offset: 0x20BB0, size: 0x8, addend: 0x0, symName: __ZNSt3__111__wrap_iterIPiEppB8ue170006Ev, symObjAddr: 0x5988, symBinAddr: 0x100009610, symSize: 0x20 }
  - { offsetInCU: 0x20BD5, offset: 0x20BD5, size: 0x8, addend: 0x0, symName: __ZNSt3__16vectorIP9IRunnableNS_9allocatorIS2_EEEixB8ue170006Em, symObjAddr: 0x59A8, symBinAddr: 0x100009630, symSize: 0x24 }
  - { offsetInCU: 0x20C0B, offset: 0x20C0B, size: 0x8, addend: 0x0, symName: __ZNSt3__16vectorIP9IRunnableNS_9allocatorIS2_EEED1B8ue170006Ev, symObjAddr: 0x59CC, symBinAddr: 0x100009654, symSize: 0x2C }
  - { offsetInCU: 0x20C34, offset: 0x20C34, size: 0x8, addend: 0x0, symName: __ZNSt3__13setINS_4pairIiiEENS_4lessIS2_EENS_9allocatorIS2_EEED1B8ue170006Ev, symObjAddr: 0x59F8, symBinAddr: 0x100009680, symSize: 0x2C }
  - { offsetInCU: 0x20C5C, offset: 0x20C5C, size: 0x8, addend: 0x0, symName: __Z20strictGraphDepsSmallP11ITaskSystem, symObjAddr: 0x5A24, symBinAddr: 0x1000096AC, symSize: 0x40 }
  - { offsetInCU: 0x20C8A, offset: 0x20C8A, size: 0x8, addend: 0x0, symName: __Z21strictGraphDepsMediumP11ITaskSystem, symObjAddr: 0x5A64, symBinAddr: 0x1000096EC, symSize: 0x40 }
  - { offsetInCU: 0x20CB8, offset: 0x20CB8, size: 0x8, addend: 0x0, symName: __Z20strictGraphDepsLargeP11ITaskSystem, symObjAddr: 0x5AA4, symBinAddr: 0x10000972C, symSize: 0x40 }
  - { offsetInCU: 0x20CE6, offset: 0x20CE6, size: 0x8, addend: 0x0, symName: __Z5usagePKcPNSt3__112basic_stringIcNS1_11char_traitsIcEENS1_9allocatorIcEEEEi, symObjAddr: 0x5AE4, symBinAddr: 0x10000976C, symSize: 0x124 }
  - { offsetInCU: 0x20D46, offset: 0x20D46, size: 0x8, addend: 0x0, symName: __ZNKSt3__112basic_stringIcNS_11char_traitsIcEENS_9allocatorIcEEE5c_strB8ue170006Ev, symObjAddr: 0x5C08, symBinAddr: 0x100009890, symSize: 0x24 }
  - { offsetInCU: 0x20D6A, offset: 0x20D6A, size: 0x8, addend: 0x0, symName: __Z23selectTaskSystemRefImpli14TaskSystemType, symObjAddr: 0x5C2C, symBinAddr: 0x1000098B4, symSize: 0x1BC }
  - { offsetInCU: 0x20DAA, offset: 0x20DAA, size: 0x8, addend: 0x0, symName: __ZNSt3__112basic_stringIcNS_11char_traitsIcEENS_9allocatorIcEEEC1B8ue170006ILi0EEEPKc, symObjAddr: 0x6808, symBinAddr: 0x10000A490, symSize: 0x34 }
  - { offsetInCU: 0x20DE8, offset: 0x20DE8, size: 0x8, addend: 0x0, symName: __ZNSt3__112basic_stringIcNS_11char_traitsIcEENS_9allocatorIcEEEC1B8ue170006Ev, symObjAddr: 0x683C, symBinAddr: 0x10000A4C4, symSize: 0x2C }
  - { offsetInCU: 0x20E10, offset: 0x20E10, size: 0x8, addend: 0x0, symName: __ZNKSt3__112basic_stringIcNS_11char_traitsIcEENS_9allocatorIcEEE7compareB8ue170006ERKS5_, symObjAddr: 0x6868, symBinAddr: 0x10000A4F0, symSize: 0x4C }
  - { offsetInCU: 0x20E46, offset: 0x20E46, size: 0x8, addend: 0x0, symName: __ZN10CycleTimer12currentTicksEv, symObjAddr: 0x68E0, symBinAddr: 0x10000A568, symSize: 0x14 }
  - { offsetInCU: 0x20E5A, offset: 0x20E5A, size: 0x8, addend: 0x0, symName: __ZN18SimpleMultiplyTaskC2EiPi, symObjAddr: 0x6994, symBinAddr: 0x10000A61C, symSize: 0x5C }
  - { offsetInCU: 0x20E9F, offset: 0x20E9F, size: 0x8, addend: 0x0, symName: __ZN9IRunnableC2Ev, symObjAddr: 0x69F0, symBinAddr: 0x10000A678, symSize: 0x24 }
  - { offsetInCU: 0x20ECA, offset: 0x20ECA, size: 0x8, addend: 0x0, symName: __ZN18SimpleMultiplyTaskD0Ev, symObjAddr: 0x6A14, symBinAddr: 0x10000A69C, symSize: 0x30 }
  - { offsetInCU: 0x20EF2, offset: 0x20EF2, size: 0x8, addend: 0x0, symName: __ZN18SimpleMultiplyTask7runTaskEii, symObjAddr: 0x6A44, symBinAddr: 0x10000A6CC, symSize: 0xDC }
  - { offsetInCU: 0x20F83, offset: 0x20F83, size: 0x8, addend: 0x0, symName: __ZNKSt3__16__lessIvvEclB8ue170006IiiEEbRKT_RKT0_, symObjAddr: 0x6BA0, symBinAddr: 0x10000A828, symSize: 0x34 }
  - { offsetInCU: 0x20FD6, offset: 0x20FD6, size: 0x8, addend: 0x0, symName: __ZN18SimpleMultiplyTaskD2Ev, symObjAddr: 0x6BD4, symBinAddr: 0x10000A85C, symSize: 0x2C }
  - { offsetInCU: 0x20FFF, offset: 0x20FFF, size: 0x8, addend: 0x0, symName: __ZN12PingPongTaskC2EiPiS0_bi, symObjAddr: 0x6C00, symBinAddr: 0x10000A888, symSize: 0x8C }
  - { offsetInCU: 0x2106E, offset: 0x2106E, size: 0x8, addend: 0x0, symName: __ZN12PingPongTaskD1Ev, symObjAddr: 0x6C8C, symBinAddr: 0x10000A914, symSize: 0x2C }
  - { offsetInCU: 0x21097, offset: 0x21097, size: 0x8, addend: 0x0, symName: __ZN12PingPongTaskD0Ev, symObjAddr: 0x6CB8, symBinAddr: 0x10000A940, symSize: 0x30 }
  - { offsetInCU: 0x210BF, offset: 0x210BF, size: 0x8, addend: 0x0, symName: __ZN12PingPongTask7runTaskEii, symObjAddr: 0x6CE8, symBinAddr: 0x10000A970, symSize: 0x16C }
  - { offsetInCU: 0x2117E, offset: 0x2117E, size: 0x8, addend: 0x0, symName: __ZN12PingPongTaskD2Ev, symObjAddr: 0x6E54, symBinAddr: 0x10000AADC, symSize: 0x2C }
  - { offsetInCU: 0x211A7, offset: 0x211A7, size: 0x8, addend: 0x0, symName: __ZN22RecursiveFibonacciTaskC2EiPi, symObjAddr: 0x6E80, symBinAddr: 0x10000AB08, symSize: 0x5C }
  - { offsetInCU: 0x211EC, offset: 0x211EC, size: 0x8, addend: 0x0, symName: __ZN22RecursiveFibonacciTaskD0Ev, symObjAddr: 0x6EDC, symBinAddr: 0x10000AB64, symSize: 0x30 }
  - { offsetInCU: 0x21214, offset: 0x21214, size: 0x8, addend: 0x0, symName: __ZN22RecursiveFibonacciTask7runTaskEii, symObjAddr: 0x6F0C, symBinAddr: 0x10000AB94, symSize: 0x44 }
  - { offsetInCU: 0x21254, offset: 0x21254, size: 0x8, addend: 0x0, symName: __ZN22RecursiveFibonacciTask6slowFnEi, symObjAddr: 0x6F50, symBinAddr: 0x10000ABD8, symSize: 0x88 }
  - { offsetInCU: 0x21287, offset: 0x21287, size: 0x8, addend: 0x0, symName: __ZN32MathOperationsInTightForLoopTaskC2EiPf, symObjAddr: 0x6FD8, symBinAddr: 0x10000AC60, symSize: 0x5C }
  - { offsetInCU: 0x212CC, offset: 0x212CC, size: 0x8, addend: 0x0, symName: __ZN32MathOperationsInTightForLoopTaskD0Ev, symObjAddr: 0x7034, symBinAddr: 0x10000ACBC, symSize: 0x30 }
  - { offsetInCU: 0x212F4, offset: 0x212F4, size: 0x8, addend: 0x0, symName: __ZN32MathOperationsInTightForLoopTask7runTaskEii, symObjAddr: 0x7064, symBinAddr: 0x10000ACEC, symSize: 0x234 }
  - { offsetInCU: 0x213D8, offset: 0x213D8, size: 0x8, addend: 0x0, symName: __ZN32MathOperationsInTightForLoopTaskD2Ev, symObjAddr: 0x7298, symBinAddr: 0x10000AF20, symSize: 0x2C }
  - { offsetInCU: 0x21401, offset: 0x21401, size: 0x8, addend: 0x0, symName: __ZN10ReduceTaskC2EiiPfS0_, symObjAddr: 0x72C4, symBinAddr: 0x10000AF4C, symSize: 0x74 }
  - { offsetInCU: 0x21466, offset: 0x21466, size: 0x8, addend: 0x0, symName: __ZN10ReduceTaskD0Ev, symObjAddr: 0x7338, symBinAddr: 0x10000AFC0, symSize: 0x30 }
  - { offsetInCU: 0x21492, offset: 0x21492, size: 0x8, addend: 0x0, symName: __ZN10ReduceTask7runTaskEii, symObjAddr: 0x7368, symBinAddr: 0x10000AFF0, symSize: 0xDC }
  - { offsetInCU: 0x2150F, offset: 0x2150F, size: 0x8, addend: 0x0, symName: __ZN10ReduceTaskD2Ev, symObjAddr: 0x7444, symBinAddr: 0x10000B0CC, symSize: 0x2C }
  - { offsetInCU: 0x2153B, offset: 0x2153B, size: 0x8, addend: 0x0, symName: __ZNKSt3__111__wrap_iterIPNS_6vectorIiNS_9allocatorIiEEEEE4baseB8ue170006Ev, symObjAddr: 0x74B8, symBinAddr: 0x10000B140, symSize: 0x18 }
  - { offsetInCU: 0x21560, offset: 0x21560, size: 0x8, addend: 0x0, symName: __ZN9LightTaskC2EPi, symObjAddr: 0x74D0, symBinAddr: 0x10000B158, symSize: 0x50 }
  - { offsetInCU: 0x21597, offset: 0x21597, size: 0x8, addend: 0x0, symName: __ZN9LightTaskD0Ev, symObjAddr: 0x7520, symBinAddr: 0x10000B1A8, symSize: 0x30 }
  - { offsetInCU: 0x215C0, offset: 0x215C0, size: 0x8, addend: 0x0, symName: __ZN9LightTask7runTaskEii, symObjAddr: 0x7550, symBinAddr: 0x10000B1D8, symSize: 0x2C }
  - { offsetInCU: 0x21601, offset: 0x21601, size: 0x8, addend: 0x0, symName: __ZN22RecursiveFibonacciTaskD2Ev, symObjAddr: 0x757C, symBinAddr: 0x10000B204, symSize: 0x2C }
  - { offsetInCU: 0x2162A, offset: 0x2162A, size: 0x8, addend: 0x0, symName: __ZN9LightTaskD2Ev, symObjAddr: 0x75A8, symBinAddr: 0x10000B230, symSize: 0x2C }
  - { offsetInCU: 0x21653, offset: 0x21653, size: 0x8, addend: 0x0, symName: __ZN14MandelbrotTaskC2EPNS_10MandelArgsEi, symObjAddr: 0x75D4, symBinAddr: 0x10000B25C, symSize: 0x5C }
  - { offsetInCU: 0x2169A, offset: 0x2169A, size: 0x8, addend: 0x0, symName: __ZN14MandelbrotTaskD0Ev, symObjAddr: 0x7630, symBinAddr: 0x10000B2B8, symSize: 0x30 }
  - { offsetInCU: 0x216C2, offset: 0x216C2, size: 0x8, addend: 0x0, symName: __ZN14MandelbrotTask7runTaskEii, symObjAddr: 0x7660, symBinAddr: 0x10000B2E8, symSize: 0x114 }
  - { offsetInCU: 0x21713, offset: 0x21713, size: 0x8, addend: 0x0, symName: __ZN14MandelbrotTask28mandelbrotSerial_interleavedEffffiiiiiiPi, symObjAddr: 0x7774, symBinAddr: 0x10000B3FC, symSize: 0x170 }
  - { offsetInCU: 0x2187F, offset: 0x2187F, size: 0x8, addend: 0x0, symName: __ZN14MandelbrotTask6mandelEffi, symObjAddr: 0x78E4, symBinAddr: 0x10000B56C, symSize: 0xE8 }
  - { offsetInCU: 0x2192A, offset: 0x2192A, size: 0x8, addend: 0x0, symName: __ZN14MandelbrotTaskD2Ev, symObjAddr: 0x79CC, symBinAddr: 0x10000B654, symSize: 0x2C }
  - { offsetInCU: 0x21953, offset: 0x21953, size: 0x8, addend: 0x0, symName: __ZN9SleepTaskC2Ei, symObjAddr: 0x79F8, symBinAddr: 0x10000B680, symSize: 0x50 }
  - { offsetInCU: 0x2198B, offset: 0x2198B, size: 0x8, addend: 0x0, symName: __ZN9SleepTaskD1Ev, symObjAddr: 0x7A48, symBinAddr: 0x10000B6D0, symSize: 0x2C }
  - { offsetInCU: 0x219B4, offset: 0x219B4, size: 0x8, addend: 0x0, symName: __ZN9SleepTaskD0Ev, symObjAddr: 0x7A74, symBinAddr: 0x10000B6FC, symSize: 0x30 }
  - { offsetInCU: 0x219DC, offset: 0x219DC, size: 0x8, addend: 0x0, symName: __ZN9SleepTask7runTaskEii, symObjAddr: 0x7AA4, symBinAddr: 0x10000B72C, symSize: 0x74 }
  - { offsetInCU: 0x21A1F, offset: 0x21A1F, size: 0x8, addend: 0x0, symName: __ZN9SleepTaskD2Ev, symObjAddr: 0x7B18, symBinAddr: 0x10000B7A0, symSize: 0x2C }
  - { offsetInCU: 0x21A4D, offset: 0x21A4D, size: 0x8, addend: 0x0, symName: __ZNSt3__16chrono8durationIxNS_5ratioILl1ELl1EEEEC1B8ue170006IiEERKT_PNS_9enable_ifIXaasr14is_convertibleIS8_xEE5valueooL_ZNS_17integral_constantIbLb0EE5valueEEntsr23treat_as_floating_pointIS6_EE5valueEvE4typeE, symObjAddr: 0x7C00, symBinAddr: 0x10000B888, symSize: 0x3C }
  - { offsetInCU: 0x21A98, offset: 0x21A98, size: 0x8, addend: 0x0, symName: __ZNSt3__16chrono8durationIxNS_5ratioILl1ELl1EEEE4zeroB8ue170006Ev, symObjAddr: 0x7C6C, symBinAddr: 0x10000B8F4, symSize: 0x3C }
  - { offsetInCU: 0x21AAC, offset: 0x21AAC, size: 0x8, addend: 0x0, symName: __ZNSt3__16chrono8durationIxNS_5ratioILl1ELl1000000000EEEEppB8ue170006Ev, symObjAddr: 0x7D40, symBinAddr: 0x10000B9C8, symSize: 0x20 }
  - { offsetInCU: 0x21AD1, offset: 0x21AD1, size: 0x8, addend: 0x0, symName: __ZNSt3__16chrono8durationIxNS_5ratioILl1ELl1000000000EEEE3maxB8ue170006Ev, symObjAddr: 0x7D60, symBinAddr: 0x10000B9E8, symSize: 0x3C }
  - { offsetInCU: 0x21AEE, offset: 0x21AEE, size: 0x8, addend: 0x0, symName: __ZNKSt3__16chrono13__duration_ltINS0_8durationIxNS_5ratioILl1ELl1EEEEES5_EclB8ue170006ERKS5_S8_, symObjAddr: 0x7DD0, symBinAddr: 0x10000BA58, symSize: 0x4C }
  - { offsetInCU: 0x21B31, offset: 0x21B31, size: 0x8, addend: 0x0, symName: __ZNKSt3__16chrono8durationIxNS_5ratioILl1ELl1EEEE5countB8ue170006Ev, symObjAddr: 0x7E1C, symBinAddr: 0x10000BAA4, symSize: 0x18 }
  - { offsetInCU: 0x21B56, offset: 0x21B56, size: 0x8, addend: 0x0, symName: __ZNSt3__16chrono15duration_valuesIxE4zeroB8ue170006Ev, symObjAddr: 0x7E34, symBinAddr: 0x10000BABC, symSize: 0x8 }
  - { offsetInCU: 0x21B74, offset: 0x21B74, size: 0x8, addend: 0x0, symName: __ZNSt3__16chrono8durationIxNS_5ratioILl1ELl1EEEEC1B8ue170006IxEERKT_PNS_9enable_ifIXaasr14is_convertibleIS8_xEE5valueooL_ZNS_17integral_constantIbLb0EE5valueEEntsr23treat_as_floating_pointIS6_EE5valueEvE4typeE, symObjAddr: 0x7E3C, symBinAddr: 0x10000BAC4, symSize: 0x3C }
  - { offsetInCU: 0x21BBF, offset: 0x21BBF, size: 0x8, addend: 0x0, symName: __ZNSt3__16chrono8durationIxNS_5ratioILl1ELl1EEEEC2B8ue170006IxEERKT_PNS_9enable_ifIXaasr14is_convertibleIS8_xEE5valueooL_ZNS_17integral_constantIbLb0EE5valueEEntsr23treat_as_floating_pointIS6_EE5valueEvE4typeE, symObjAddr: 0x7E84, symBinAddr: 0x10000BB0C, symSize: 0x28 }
  - { offsetInCU: 0x21C0A, offset: 0x21C0A, size: 0x8, addend: 0x0, symName: __ZNSt3__16chrono8durationIeNS_5ratioILl1ELl1EEEEC1B8ue170006IxS3_EERKNS1_IT_T0_EEPNS_9enable_ifIXaasr13__no_overflowIS7_S3_EE5valueooL_ZNS_17integral_constantIbLb1EE5valueEEaaeqsr13__no_overflowIS7_S3_E4typeE3denLi1Entsr23treat_as_floating_pointIS6_EE5valueEvE4typeE, symObjAddr: 0x7F18, symBinAddr: 0x10000BBA0, symSize: 0x3C }
  - { offsetInCU: 0x21C5F, offset: 0x21C5F, size: 0x8, addend: 0x0, symName: __ZNKSt3__16chrono8durationIeNS_5ratioILl1ELl1EEEE5countB8ue170006Ev, symObjAddr: 0x7F54, symBinAddr: 0x10000BBDC, symSize: 0x18 }
  - { offsetInCU: 0x21C84, offset: 0x21C84, size: 0x8, addend: 0x0, symName: __ZNSt3__16chrono8durationIeNS_5ratioILl1ELl1EEEEC2B8ue170006IxS3_EERKNS1_IT_T0_EEPNS_9enable_ifIXaasr13__no_overflowIS7_S3_EE5valueooL_ZNS_17integral_constantIbLb1EE5valueEEaaeqsr13__no_overflowIS7_S3_E4typeE3denLi1Entsr23treat_as_floating_pointIS6_EE5valueEvE4typeE, symObjAddr: 0x7F6C, symBinAddr: 0x10000BBF4, symSize: 0x48 }
  - { offsetInCU: 0x21CE2, offset: 0x21CE2, size: 0x8, addend: 0x0, symName: __ZNKSt3__16chrono15__duration_castINS0_8durationIxNS_5ratioILl1ELl1EEEEENS2_IeS4_EES4_Lb1ELb1EEclB8ue170006ERKS5_, symObjAddr: 0x7FE4, symBinAddr: 0x10000BC6C, symSize: 0x44 }
  - { offsetInCU: 0x21D1F, offset: 0x21D1F, size: 0x8, addend: 0x0, symName: __ZNSt3__16chrono8durationIeNS_5ratioILl1ELl1EEEEC1B8ue170006IeEERKT_PNS_9enable_ifIXaasr14is_convertibleIS8_eEE5valueooL_ZNS_17integral_constantIbLb1EE5valueEEntsr23treat_as_floating_pointIS6_EE5valueEvE4typeE, symObjAddr: 0x8028, symBinAddr: 0x10000BCB0, symSize: 0x3C }
  - { offsetInCU: 0x21D6A, offset: 0x21D6A, size: 0x8, addend: 0x0, symName: __ZNSt3__16chrono8durationIeNS_5ratioILl1ELl1EEEEC2B8ue170006IeEERKT_PNS_9enable_ifIXaasr14is_convertibleIS8_eEE5valueooL_ZNS_17integral_constantIbLb1EE5valueEEntsr23treat_as_floating_pointIS6_EE5valueEvE4typeE, symObjAddr: 0x8064, symBinAddr: 0x10000BCEC, symSize: 0x28 }
  - { offsetInCU: 0x21DB5, offset: 0x21DB5, size: 0x8, addend: 0x0, symName: __ZNSt3__16chrono8durationIxNS_5ratioILl1ELl1000000000EEEEC1B8ue170006IxEERKT_PNS_9enable_ifIXaasr14is_convertibleIS8_xEE5valueooL_ZNS_17integral_constantIbLb0EE5valueEEntsr23treat_as_floating_pointIS6_EE5valueEvE4typeE, symObjAddr: 0x80D8, symBinAddr: 0x10000BD60, symSize: 0x3C }
  - { offsetInCU: 0x21E00, offset: 0x21E00, size: 0x8, addend: 0x0, symName: __ZNSt3__16chrono8durationIxNS_5ratioILl1ELl1000000000EEEEC2B8ue170006IxEERKT_PNS_9enable_ifIXaasr14is_convertibleIS8_xEE5valueooL_ZNS_17integral_constantIbLb0EE5valueEEntsr23treat_as_floating_pointIS6_EE5valueEvE4typeE, symObjAddr: 0x8114, symBinAddr: 0x10000BD9C, symSize: 0x28 }
  - { offsetInCU: 0x21E4B, offset: 0x21E4B, size: 0x8, addend: 0x0, symName: __ZNKSt3__16chrono8durationIxNS_5ratioILl1ELl1000000000EEEE5countB8ue170006Ev, symObjAddr: 0x81A8, symBinAddr: 0x10000BE30, symSize: 0x18 }
  - { offsetInCU: 0x21E70, offset: 0x21E70, size: 0x8, addend: 0x0, symName: __ZNSt3__16chrono8durationIxNS_5ratioILl1ELl1000000000EEEEC1B8ue170006IxNS2_ILl1ELl1EEEEERKNS1_IT_T0_EEPNS_9enable_ifIXaasr13__no_overflowIS8_S3_EE5valueooL_ZNS_17integral_constantIbLb0EE5valueEEaaeqsr13__no_overflowIS8_S3_E4typeE3denLi1Entsr23treat_as_floating_pointIS7_EE5valueEvE4typeE, symObjAddr: 0x81C0, symBinAddr: 0x10000BE48, symSize: 0x3C }
  - { offsetInCU: 0x21EC5, offset: 0x21EC5, size: 0x8, addend: 0x0, symName: __ZNSt3__16chrono8durationIxNS_5ratioILl1ELl1000000000EEEEC2B8ue170006IxNS2_ILl1ELl1EEEEERKNS1_IT_T0_EEPNS_9enable_ifIXaasr13__no_overflowIS8_S3_EE5valueooL_ZNS_17integral_constantIbLb0EE5valueEEaaeqsr13__no_overflowIS8_S3_E4typeE3denLi1Entsr23treat_as_floating_pointIS7_EE5valueEvE4typeE, symObjAddr: 0x81FC, symBinAddr: 0x10000BE84, symSize: 0x50 }
  - { offsetInCU: 0x21F1A, offset: 0x21F1A, size: 0x8, addend: 0x0, symName: __ZNSt3__16chrono15duration_valuesIxE3maxB8ue170006Ev, symObjAddr: 0x824C, symBinAddr: 0x10000BED4, symSize: 0x14 }
  - { offsetInCU: 0x21F2E, offset: 0x21F2E, size: 0x8, addend: 0x0, symName: __ZNSt3__114numeric_limitsIxE3maxB8ue170006Ev, symObjAddr: 0x8260, symBinAddr: 0x10000BEE8, symSize: 0x14 }
  - { offsetInCU: 0x21F42, offset: 0x21F42, size: 0x8, addend: 0x0, symName: __ZNSt3__123__libcpp_numeric_limitsIxLb1EE3maxB8ue170006Ev, symObjAddr: 0x8274, symBinAddr: 0x10000BEFC, symSize: 0x8 }
  - { offsetInCU: 0x21F56, offset: 0x21F56, size: 0x8, addend: 0x0, symName: __ZNSt3__16chrono8durationIxNS_5ratioILl1ELl1EEEEC2B8ue170006IiEERKT_PNS_9enable_ifIXaasr14is_convertibleIS8_xEE5valueooL_ZNS_17integral_constantIbLb0EE5valueEEntsr23treat_as_floating_pointIS6_EE5valueEvE4typeE, symObjAddr: 0x827C, symBinAddr: 0x10000BF04, symSize: 0x28 }
  - { offsetInCU: 0x21FA1, offset: 0x21FA1, size: 0x8, addend: 0x0, symName: __ZN20StrictDependencyTaskC2ERKNSt3__16vectorIPbNS0_9allocatorIS2_EEEES2_, symObjAddr: 0x82A4, symBinAddr: 0x10000BF2C, symSize: 0x84 }
  - { offsetInCU: 0x21FE8, offset: 0x21FE8, size: 0x8, addend: 0x0, symName: __ZNSt3__16atomicIiEC1B8ue170006Ei, symObjAddr: 0x8328, symBinAddr: 0x10000BFB0, symSize: 0x34 }
  - { offsetInCU: 0x2201F, offset: 0x2201F, size: 0x8, addend: 0x0, symName: __ZN20StrictDependencyTaskD1Ev, symObjAddr: 0x835C, symBinAddr: 0x10000BFE4, symSize: 0x2C }
  - { offsetInCU: 0x22048, offset: 0x22048, size: 0x8, addend: 0x0, symName: __ZN20StrictDependencyTaskD0Ev, symObjAddr: 0x8388, symBinAddr: 0x10000C010, symSize: 0x30 }
  - { offsetInCU: 0x22070, offset: 0x22070, size: 0x8, addend: 0x0, symName: __ZN20StrictDependencyTask7runTaskEii, symObjAddr: 0x83B8, symBinAddr: 0x10000C040, symSize: 0xB8 }
  - { offsetInCU: 0x220D1, offset: 0x220D1, size: 0x8, addend: 0x0, symName: __ZNSt3__16atomicIiEC2B8ue170006Ei, symObjAddr: 0x8470, symBinAddr: 0x10000C0F8, symSize: 0x34 }
  - { offsetInCU: 0x22108, offset: 0x22108, size: 0x8, addend: 0x0, symName: __ZNSt3__113__atomic_baseIiLb1EEC2B8ue170006Ei, symObjAddr: 0x84A4, symBinAddr: 0x10000C12C, symSize: 0x34 }
  - { offsetInCU: 0x2213F, offset: 0x2213F, size: 0x8, addend: 0x0, symName: __ZNSt3__113__atomic_baseIiLb0EEC2B8ue170006Ei, symObjAddr: 0x84D8, symBinAddr: 0x10000C160, symSize: 0x34 }
  - { offsetInCU: 0x22176, offset: 0x22176, size: 0x8, addend: 0x0, symName: __ZNSt3__117__cxx_atomic_implIiNS_22__cxx_atomic_base_implIiEEEC1B8ue170006Ei, symObjAddr: 0x850C, symBinAddr: 0x10000C194, symSize: 0x34 }
  - { offsetInCU: 0x221AE, offset: 0x221AE, size: 0x8, addend: 0x0, symName: __ZNSt3__117__cxx_atomic_implIiNS_22__cxx_atomic_base_implIiEEEC2B8ue170006Ei, symObjAddr: 0x8540, symBinAddr: 0x10000C1C8, symSize: 0x34 }
  - { offsetInCU: 0x221E6, offset: 0x221E6, size: 0x8, addend: 0x0, symName: __ZNSt3__122__cxx_atomic_base_implIiEC2Ei, symObjAddr: 0x8574, symBinAddr: 0x10000C1FC, symSize: 0x20 }
  - { offsetInCU: 0x2221E, offset: 0x2221E, size: 0x8, addend: 0x0, symName: __ZN20StrictDependencyTaskD2Ev, symObjAddr: 0x8594, symBinAddr: 0x10000C21C, symSize: 0x2C }
  - { offsetInCU: 0x22246, offset: 0x22246, size: 0x8, addend: 0x0, symName: __ZNSt3__113__atomic_baseIiLb1EEppB8ue170006Ei, symObjAddr: 0x85C0, symBinAddr: 0x10000C248, symSize: 0x30 }
  - { offsetInCU: 0x22275, offset: 0x22275, size: 0x8, addend: 0x0, symName: __ZN20StrictDependencyTask7depsMetEv, symObjAddr: 0x85F0, symBinAddr: 0x10000C278, symSize: 0xC0 }
  - { offsetInCU: 0x222EB, offset: 0x222EB, size: 0x8, addend: 0x0, symName: __ZN20StrictDependencyTask6doWorkEii, symObjAddr: 0x86B0, symBinAddr: 0x10000C338, symSize: 0x5C }
  - { offsetInCU: 0x2232D, offset: 0x2232D, size: 0x8, addend: 0x0, symName: __ZNSt3__113__atomic_baseIiLb1EEppB8ue170006Ev, symObjAddr: 0x870C, symBinAddr: 0x10000C394, symSize: 0x30 }
  - { offsetInCU: 0x22351, offset: 0x22351, size: 0x8, addend: 0x0, symName: __ZNSt3__113__atomic_baseIiLb1EE9fetch_addB8ue170006EiNS_12memory_orderE, symObjAddr: 0x873C, symBinAddr: 0x10000C3C4, symSize: 0x34 }
  - { offsetInCU: 0x22391, offset: 0x22391, size: 0x8, addend: 0x0, symName: __ZNKSt3__16vectorIPbNS_9allocatorIS1_EEE5beginB8ue170006Ev, symObjAddr: 0x8848, symBinAddr: 0x10000C4D0, symSize: 0x30 }
  - { offsetInCU: 0x223B7, offset: 0x223B7, size: 0x8, addend: 0x0, symName: __ZNKSt3__16vectorIPbNS_9allocatorIS1_EEE3endB8ue170006Ev, symObjAddr: 0x8878, symBinAddr: 0x10000C500, symSize: 0x30 }
  - { offsetInCU: 0x223DE, offset: 0x223DE, size: 0x8, addend: 0x0, symName: __ZNKSt3__111__wrap_iterIPKPbEdeB8ue170006Ev, symObjAddr: 0x88DC, symBinAddr: 0x10000C564, symSize: 0x18 }
  - { offsetInCU: 0x22403, offset: 0x22403, size: 0x8, addend: 0x0, symName: __ZNSt3__111__wrap_iterIPKPbEppB8ue170006Ev, symObjAddr: 0x88F4, symBinAddr: 0x10000C57C, symSize: 0x20 }
  - { offsetInCU: 0x22427, offset: 0x22427, size: 0x8, addend: 0x0, symName: __ZNKSt3__16vectorIPbNS_9allocatorIS1_EEE11__make_iterB8ue170006EPKS1_, symObjAddr: 0x8914, symBinAddr: 0x10000C59C, symSize: 0x30 }
  - { offsetInCU: 0x2245B, offset: 0x2245B, size: 0x8, addend: 0x0, symName: __ZNSt3__111__wrap_iterIPKPbEC1B8ue170006ES3_, symObjAddr: 0x8944, symBinAddr: 0x10000C5CC, symSize: 0x34 }
  - { offsetInCU: 0x22492, offset: 0x22492, size: 0x8, addend: 0x0, symName: __ZNSt3__111__wrap_iterIPKPbEC2B8ue170006ES3_, symObjAddr: 0x8978, symBinAddr: 0x10000C600, symSize: 0x20 }
  - { offsetInCU: 0x224C9, offset: 0x224C9, size: 0x8, addend: 0x0, symName: __ZNKSt3__111__wrap_iterIPKPbE4baseB8ue170006Ev, symObjAddr: 0x89E0, symBinAddr: 0x10000C668, symSize: 0x18 }
  - { offsetInCU: 0x224EE, offset: 0x224EE, size: 0x8, addend: 0x0, symName: __ZNSt3__16chrono8durationIxNS_5ratioILl1ELl1000000EEEEC1B8ue170006IiEERKT_PNS_9enable_ifIXaasr14is_convertibleIS8_xEE5valueooL_ZNS_17integral_constantIbLb0EE5valueEEntsr23treat_as_floating_pointIS6_EE5valueEvE4typeE, symObjAddr: 0x8AB4, symBinAddr: 0x10000C73C, symSize: 0x3C }
  - { offsetInCU: 0x22539, offset: 0x22539, size: 0x8, addend: 0x0, symName: __ZNSt3__16chrono8durationIxNS_5ratioILl1ELl1000000EEEE4zeroB8ue170006Ev, symObjAddr: 0x8B20, symBinAddr: 0x10000C7A8, symSize: 0x3C }
  - { offsetInCU: 0x22556, offset: 0x22556, size: 0x8, addend: 0x0, symName: __ZNKSt3__16chrono13__duration_ltINS0_8durationIxNS_5ratioILl1ELl1000000EEEEES5_EclB8ue170006ERKS5_S8_, symObjAddr: 0x8C28, symBinAddr: 0x10000C8B0, symSize: 0x4C }
  - { offsetInCU: 0x22599, offset: 0x22599, size: 0x8, addend: 0x0, symName: __ZNKSt3__16chrono8durationIxNS_5ratioILl1ELl1000000EEEE5countB8ue170006Ev, symObjAddr: 0x8C74, symBinAddr: 0x10000C8FC, symSize: 0x18 }
  - { offsetInCU: 0x225BE, offset: 0x225BE, size: 0x8, addend: 0x0, symName: __ZNSt3__16chrono8durationIxNS_5ratioILl1ELl1000000EEEEC1B8ue170006IxEERKT_PNS_9enable_ifIXaasr14is_convertibleIS8_xEE5valueooL_ZNS_17integral_constantIbLb0EE5valueEEntsr23treat_as_floating_pointIS6_EE5valueEvE4typeE, symObjAddr: 0x8C8C, symBinAddr: 0x10000C914, symSize: 0x3C }
  - { offsetInCU: 0x22609, offset: 0x22609, size: 0x8, addend: 0x0, symName: __ZNSt3__16chrono8durationIxNS_5ratioILl1ELl1000000EEEEC2B8ue170006IxEERKT_PNS_9enable_ifIXaasr14is_convertibleIS8_xEE5valueooL_ZNS_17integral_constantIbLb0EE5valueEEntsr23treat_as_floating_pointIS6_EE5valueEvE4typeE, symObjAddr: 0x8CC8, symBinAddr: 0x10000C950, symSize: 0x28 }
  - { offsetInCU: 0x22654, offset: 0x22654, size: 0x8, addend: 0x0, symName: __ZNSt3__16chrono8durationIeNS_5ratioILl1ELl1000000EEEEC1B8ue170006IxS3_EERKNS1_IT_T0_EEPNS_9enable_ifIXaasr13__no_overflowIS7_S3_EE5valueooL_ZNS_17integral_constantIbLb1EE5valueEEaaeqsr13__no_overflowIS7_S3_E4typeE3denLi1Entsr23treat_as_floating_pointIS6_EE5valueEvE4typeE, symObjAddr: 0x8D68, symBinAddr: 0x10000C9F0, symSize: 0x3C }
  - { offsetInCU: 0x226A9, offset: 0x226A9, size: 0x8, addend: 0x0, symName: __ZNKSt3__16chrono8durationIeNS_5ratioILl1ELl1000000EEEE5countB8ue170006Ev, symObjAddr: 0x8DA4, symBinAddr: 0x10000CA2C, symSize: 0x18 }
  - { offsetInCU: 0x226CE, offset: 0x226CE, size: 0x8, addend: 0x0, symName: __ZNSt3__16chrono8durationIeNS_5ratioILl1ELl1000000EEEEC1B8ue170006IeNS2_ILl1ELl1EEEEERKNS1_IT_T0_EEPNS_9enable_ifIXaasr13__no_overflowIS8_S3_EE5valueooL_ZNS_17integral_constantIbLb1EE5valueEEaaeqsr13__no_overflowIS8_S3_E4typeE3denLi1Entsr23treat_as_floating_pointIS7_EE5valueEvE4typeE, symObjAddr: 0x8DBC, symBinAddr: 0x10000CA44, symSize: 0x3C }
  - { offsetInCU: 0x22723, offset: 0x22723, size: 0x8, addend: 0x0, symName: __ZNSt3__16chrono8durationIeNS_5ratioILl1ELl1000000EEEEC2B8ue170006IxS3_EERKNS1_IT_T0_EEPNS_9enable_ifIXaasr13__no_overflowIS7_S3_EE5valueooL_ZNS_17integral_constantIbLb1EE5valueEEaaeqsr13__no_overflowIS7_S3_E4typeE3denLi1Entsr23treat_as_floating_pointIS6_EE5valueEvE4typeE, symObjAddr: 0x8DF8, symBinAddr: 0x10000CA80, symSize: 0x48 }
  - { offsetInCU: 0x22781, offset: 0x22781, size: 0x8, addend: 0x0, symName: __ZNKSt3__16chrono15__duration_castINS0_8durationIxNS_5ratioILl1ELl1000000EEEEENS2_IeS4_EENS3_ILl1ELl1EEELb1ELb1EEclB8ue170006ERKS5_, symObjAddr: 0x8E70, symBinAddr: 0x10000CAF8, symSize: 0x44 }
  - { offsetInCU: 0x227B4, offset: 0x227B4, size: 0x8, addend: 0x0, symName: __ZNSt3__16chrono8durationIeNS_5ratioILl1ELl1000000EEEEC1B8ue170006IeEERKT_PNS_9enable_ifIXaasr14is_convertibleIS8_eEE5valueooL_ZNS_17integral_constantIbLb1EE5valueEEntsr23treat_as_floating_pointIS6_EE5valueEvE4typeE, symObjAddr: 0x8EB4, symBinAddr: 0x10000CB3C, symSize: 0x3C }
  - { offsetInCU: 0x227FF, offset: 0x227FF, size: 0x8, addend: 0x0, symName: __ZNSt3__16chrono8durationIeNS_5ratioILl1ELl1000000EEEEC2B8ue170006IeEERKT_PNS_9enable_ifIXaasr14is_convertibleIS8_eEE5valueooL_ZNS_17integral_constantIbLb1EE5valueEEntsr23treat_as_floating_pointIS6_EE5valueEvE4typeE, symObjAddr: 0x8EF0, symBinAddr: 0x10000CB78, symSize: 0x28 }
  - { offsetInCU: 0x2284A, offset: 0x2284A, size: 0x8, addend: 0x0, symName: __ZNSt3__16chrono8durationIeNS_5ratioILl1ELl1000000EEEEC2B8ue170006IeNS2_ILl1ELl1EEEEERKNS1_IT_T0_EEPNS_9enable_ifIXaasr13__no_overflowIS8_S3_EE5valueooL_ZNS_17integral_constantIbLb1EE5valueEEaaeqsr13__no_overflowIS8_S3_E4typeE3denLi1Entsr23treat_as_floating_pointIS7_EE5valueEvE4typeE, symObjAddr: 0x8F18, symBinAddr: 0x10000CBA0, symSize: 0x48 }
  - { offsetInCU: 0x2289F, offset: 0x2289F, size: 0x8, addend: 0x0, symName: __ZNSt3__16chrono8durationIxNS_5ratioILl1ELl1000000000EEEEC1B8ue170006IxNS2_ILl1ELl1000000EEEEERKNS1_IT_T0_EEPNS_9enable_ifIXaasr13__no_overflowIS8_S3_EE5valueooL_ZNS_17integral_constantIbLb0EE5valueEEaaeqsr13__no_overflowIS8_S3_E4typeE3denLi1Entsr23treat_as_floating_pointIS7_EE5valueEvE4typeE, symObjAddr: 0x9090, symBinAddr: 0x10000CD18, symSize: 0x3C }
  - { offsetInCU: 0x228F4, offset: 0x228F4, size: 0x8, addend: 0x0, symName: __ZNSt3__16chrono8durationIxNS_5ratioILl1ELl1000000000EEEEC2B8ue170006IxNS2_ILl1ELl1000000EEEEERKNS1_IT_T0_EEPNS_9enable_ifIXaasr13__no_overflowIS8_S3_EE5valueooL_ZNS_17integral_constantIbLb0EE5valueEEaaeqsr13__no_overflowIS8_S3_E4typeE3denLi1Entsr23treat_as_floating_pointIS7_EE5valueEvE4typeE, symObjAddr: 0x90CC, symBinAddr: 0x10000CD54, symSize: 0x50 }
  - { offsetInCU: 0x22949, offset: 0x22949, size: 0x8, addend: 0x0, symName: __ZNSt3__16chrono8durationIxNS_5ratioILl1ELl1000000EEEEC2B8ue170006IiEERKT_PNS_9enable_ifIXaasr14is_convertibleIS8_xEE5valueooL_ZNS_17integral_constantIbLb0EE5valueEEntsr23treat_as_floating_pointIS6_EE5valueEvE4typeE, symObjAddr: 0x911C, symBinAddr: 0x10000CDA4, symSize: 0x28 }
  - { offsetInCU: 0x22994, offset: 0x22994, size: 0x8, addend: 0x0, symName: __ZNKSt3__111__wrap_iterIPiE4baseB8ue170006Ev, symObjAddr: 0x918C, symBinAddr: 0x10000CE14, symSize: 0x18 }
  - { offsetInCU: 0x229B9, offset: 0x229B9, size: 0x8, addend: 0x0, symName: __ZNSt3__112basic_stringIcNS_11char_traitsIcEENS_9allocatorIcEEEC2B8ue170006ILi0EEEPKc, symObjAddr: 0x91A4, symBinAddr: 0x10000CE2C, symSize: 0x58 }
  - { offsetInCU: 0x229FC, offset: 0x229FC, size: 0x8, addend: 0x0, symName: __ZNSt3__117__compressed_pairINS_12basic_stringIcNS_11char_traitsIcEENS_9allocatorIcEEE5__repES5_EC1B8ue170006INS_18__default_init_tagESA_EEOT_OT0_, symObjAddr: 0x91FC, symBinAddr: 0x10000CE84, symSize: 0x3C }
  - { offsetInCU: 0x22A52, offset: 0x22A52, size: 0x8, addend: 0x0, symName: __ZNSt3__111char_traitsIcE6lengthB8ue170006EPKc, symObjAddr: 0x9238, symBinAddr: 0x10000CEC0, symSize: 0x34 }
  - { offsetInCU: 0x22A75, offset: 0x22A75, size: 0x8, addend: 0x0, symName: __ZNSt3__117__compressed_pairINS_12basic_stringIcNS_11char_traitsIcEENS_9allocatorIcEEE5__repES5_EC2B8ue170006INS_18__default_init_tagESA_EEOT_OT0_, symObjAddr: 0x926C, symBinAddr: 0x10000CEF4, symSize: 0x3C }
  - { offsetInCU: 0x22ACC, offset: 0x22ACC, size: 0x8, addend: 0x0, symName: __ZNSt3__122__compressed_pair_elemINS_12basic_stringIcNS_11char_traitsIcEENS_9allocatorIcEEE5__repELi0ELb0EEC2B8ue170006ENS_18__default_init_tagE, symObjAddr: 0x92A8, symBinAddr: 0x10000CF30, symSize: 0x14 }
  - { offsetInCU: 0x22B00, offset: 0x22B00, size: 0x8, addend: 0x0, symName: __ZNSt3__122__compressed_pair_elemINS_9allocatorIcEELi1ELb1EEC2B8ue170006ENS_18__default_init_tagE, symObjAddr: 0x92BC, symBinAddr: 0x10000CF44, symSize: 0x2C }
  - { offsetInCU: 0x22B34, offset: 0x22B34, size: 0x8, addend: 0x0, symName: __ZNSt3__19allocatorIcEC2B8ue170006Ev, symObjAddr: 0x92E8, symBinAddr: 0x10000CF70, symSize: 0x2C }
  - { offsetInCU: 0x22B5D, offset: 0x22B5D, size: 0x8, addend: 0x0, symName: __ZNSt3__116__non_trivial_ifILb1ENS_9allocatorIcEEEC2B8ue170006Ev, symObjAddr: 0x9314, symBinAddr: 0x10000CF9C, symSize: 0x14 }
  - { offsetInCU: 0x22B86, offset: 0x22B86, size: 0x8, addend: 0x0, symName: __ZNSt3__16vectorIiNS_9allocatorIiEEEC2B8ue170006Ev, symObjAddr: 0x934C, symBinAddr: 0x10000CFD4, symSize: 0x4C }
  - { offsetInCU: 0x22BB4, offset: 0x22BB4, size: 0x8, addend: 0x0, symName: __ZNSt3__117__compressed_pairIPiNS_9allocatorIiEEEC1B8ue170006IDnNS_18__default_init_tagEEEOT_OT0_, symObjAddr: 0x9398, symBinAddr: 0x10000D020, symSize: 0x3C }
  - { offsetInCU: 0x22C0B, offset: 0x22C0B, size: 0x8, addend: 0x0, symName: __ZNSt3__117__compressed_pairIPiNS_9allocatorIiEEEC2B8ue170006IDnNS_18__default_init_tagEEEOT_OT0_, symObjAddr: 0x93D4, symBinAddr: 0x10000D05C, symSize: 0x40 }
  - { offsetInCU: 0x22C62, offset: 0x22C62, size: 0x8, addend: 0x0, symName: __ZNSt3__122__compressed_pair_elemIPiLi0ELb0EEC2B8ue170006IDnvEEOT_, symObjAddr: 0x9414, symBinAddr: 0x10000D09C, symSize: 0x1C }
  - { offsetInCU: 0x22CA3, offset: 0x22CA3, size: 0x8, addend: 0x0, symName: __ZNSt3__122__compressed_pair_elemINS_9allocatorIiEELi1ELb1EEC2B8ue170006ENS_18__default_init_tagE, symObjAddr: 0x9430, symBinAddr: 0x10000D0B8, symSize: 0x2C }
  - { offsetInCU: 0x22CD7, offset: 0x22CD7, size: 0x8, addend: 0x0, symName: __ZNSt3__19allocatorIiEC2B8ue170006Ev, symObjAddr: 0x945C, symBinAddr: 0x10000D0E4, symSize: 0x2C }
  - { offsetInCU: 0x22D00, offset: 0x22D00, size: 0x8, addend: 0x0, symName: __ZNSt3__116__non_trivial_ifILb1ENS_9allocatorIiEEEC2B8ue170006Ev, symObjAddr: 0x9488, symBinAddr: 0x10000D110, symSize: 0x14 }
  - { offsetInCU: 0x22D29, offset: 0x22D29, size: 0x8, addend: 0x0, symName: __ZNSt3__16vectorIiNS_9allocatorIiEEED2B8ue170006Ev, symObjAddr: 0x949C, symBinAddr: 0x10000D124, symSize: 0x44 }
  - { offsetInCU: 0x22D52, offset: 0x22D52, size: 0x8, addend: 0x0, symName: __ZNSt3__16vectorIiNS_9allocatorIiEEE16__destroy_vectorC1B8ue170006ERS3_, symObjAddr: 0x94E0, symBinAddr: 0x10000D168, symSize: 0x34 }
  - { offsetInCU: 0x22D89, offset: 0x22D89, size: 0x8, addend: 0x0, symName: __ZNSt3__16vectorIiNS_9allocatorIiEEE16__destroy_vectorclB8ue170006Ev, symObjAddr: 0x9514, symBinAddr: 0x10000D19C, symSize: 0x90 }
  - { offsetInCU: 0x22DAE, offset: 0x22DAE, size: 0x8, addend: 0x0, symName: __ZNSt3__16vectorIiNS_9allocatorIiEEE16__destroy_vectorC2B8ue170006ERS3_, symObjAddr: 0x95A4, symBinAddr: 0x10000D22C, symSize: 0x20 }
  - { offsetInCU: 0x22DE5, offset: 0x22DE5, size: 0x8, addend: 0x0, symName: __ZNSt3__16vectorIiNS_9allocatorIiEEE7__clearB8ue170006Ev, symObjAddr: 0x95C4, symBinAddr: 0x10000D24C, symSize: 0x28 }
  - { offsetInCU: 0x22E09, offset: 0x22E09, size: 0x8, addend: 0x0, symName: __ZNKSt3__16vectorIiNS_9allocatorIiEEE17__annotate_deleteB8ue170006Ev, symObjAddr: 0x95EC, symBinAddr: 0x10000D274, symSize: 0xB8 }
  - { offsetInCU: 0x22E2D, offset: 0x22E2D, size: 0x8, addend: 0x0, symName: __ZNSt3__116allocator_traitsINS_9allocatorIiEEE10deallocateB8ue170006ERS2_Pim, symObjAddr: 0x96A4, symBinAddr: 0x10000D32C, symSize: 0x34 }
  - { offsetInCU: 0x22E6E, offset: 0x22E6E, size: 0x8, addend: 0x0, symName: __ZNSt3__16vectorIiNS_9allocatorIiEEE7__allocB8ue170006Ev, symObjAddr: 0x96D8, symBinAddr: 0x10000D360, symSize: 0x28 }
  - { offsetInCU: 0x22E92, offset: 0x22E92, size: 0x8, addend: 0x0, symName: __ZNKSt3__16vectorIiNS_9allocatorIiEEE8capacityB8ue170006Ev, symObjAddr: 0x9700, symBinAddr: 0x10000D388, symSize: 0x40 }
  - { offsetInCU: 0x22EB6, offset: 0x22EB6, size: 0x8, addend: 0x0, symName: __ZNSt3__16vectorIiNS_9allocatorIiEEE22__base_destruct_at_endB8ue170006EPi, symObjAddr: 0x9740, symBinAddr: 0x10000D3C8, symSize: 0x8C }
  - { offsetInCU: 0x22EF8, offset: 0x22EF8, size: 0x8, addend: 0x0, symName: __ZNSt3__116allocator_traitsINS_9allocatorIiEEE7destroyB8ue170006IivEEvRS2_PT_, symObjAddr: 0x97CC, symBinAddr: 0x10000D454, symSize: 0x2C }
  - { offsetInCU: 0x22F35, offset: 0x22F35, size: 0x8, addend: 0x0, symName: __ZNSt3__19allocatorIiE7destroyB8ue170006EPi, symObjAddr: 0x980C, symBinAddr: 0x10000D494, symSize: 0x14 }
  - { offsetInCU: 0x22F68, offset: 0x22F68, size: 0x8, addend: 0x0, symName: __ZNKSt3__16vectorIiNS_9allocatorIiEEE31__annotate_contiguous_containerB8ue170006EPKvS5_S5_S5_, symObjAddr: 0x9820, symBinAddr: 0x10000D4A8, symSize: 0x20 }
  - { offsetInCU: 0x22FB8, offset: 0x22FB8, size: 0x8, addend: 0x0, symName: __ZNKSt3__16vectorIiNS_9allocatorIiEEE4dataB8ue170006Ev, symObjAddr: 0x9840, symBinAddr: 0x10000D4C8, symSize: 0x28 }
  - { offsetInCU: 0x22FDC, offset: 0x22FDC, size: 0x8, addend: 0x0, symName: __ZNSt3__19allocatorIiE10deallocateB8ue170006EPim, symObjAddr: 0x9868, symBinAddr: 0x10000D4F0, symSize: 0x40 }
  - { offsetInCU: 0x2301C, offset: 0x2301C, size: 0x8, addend: 0x0, symName: __ZNSt3__117__compressed_pairIPiNS_9allocatorIiEEE6secondB8ue170006Ev, symObjAddr: 0x9924, symBinAddr: 0x10000D5AC, symSize: 0x24 }
  - { offsetInCU: 0x23041, offset: 0x23041, size: 0x8, addend: 0x0, symName: __ZNSt3__122__compressed_pair_elemINS_9allocatorIiEELi1ELb1EE5__getB8ue170006Ev, symObjAddr: 0x9948, symBinAddr: 0x10000D5D0, symSize: 0x14 }
  - { offsetInCU: 0x23065, offset: 0x23065, size: 0x8, addend: 0x0, symName: __ZNKSt3__16vectorIiNS_9allocatorIiEEE9__end_capB8ue170006Ev, symObjAddr: 0x995C, symBinAddr: 0x10000D5E4, symSize: 0x28 }
  - { offsetInCU: 0x23089, offset: 0x23089, size: 0x8, addend: 0x0, symName: __ZNKSt3__117__compressed_pairIPiNS_9allocatorIiEEE5firstB8ue170006Ev, symObjAddr: 0x9984, symBinAddr: 0x10000D60C, symSize: 0x24 }
  - { offsetInCU: 0x230AE, offset: 0x230AE, size: 0x8, addend: 0x0, symName: __ZNKSt3__122__compressed_pair_elemIPiLi0ELb0EE5__getB8ue170006Ev, symObjAddr: 0x99A8, symBinAddr: 0x10000D630, symSize: 0x14 }
  - { offsetInCU: 0x230D2, offset: 0x230D2, size: 0x8, addend: 0x0, symName: __ZNSt3__16vectorIiNS_9allocatorIiEEE9__end_capB8ue170006Ev, symObjAddr: 0x99BC, symBinAddr: 0x10000D644, symSize: 0x28 }
  - { offsetInCU: 0x230F6, offset: 0x230F6, size: 0x8, addend: 0x0, symName: __ZNSt3__16vectorIiNS_9allocatorIiEEE22__construct_one_at_endB8ue170006IJRKiEEEvDpOT_, symObjAddr: 0x99E4, symBinAddr: 0x10000D66C, symSize: 0x90 }
  - { offsetInCU: 0x23143, offset: 0x23143, size: 0x8, addend: 0x0, symName: __ZNSt3__16vectorIiNS_9allocatorIiEEE21__push_back_slow_pathIRKiEEvOT_, symObjAddr: 0x9A74, symBinAddr: 0x10000D6FC, symSize: 0xD8 }
  - { offsetInCU: 0x2319F, offset: 0x2319F, size: 0x8, addend: 0x0, symName: __ZNSt3__117__compressed_pairIPiNS_9allocatorIiEEE5firstB8ue170006Ev, symObjAddr: 0x9B4C, symBinAddr: 0x10000D7D4, symSize: 0x24 }
  - { offsetInCU: 0x231C4, offset: 0x231C4, size: 0x8, addend: 0x0, symName: __ZNSt3__122__compressed_pair_elemIPiLi0ELb0EE5__getB8ue170006Ev, symObjAddr: 0x9B70, symBinAddr: 0x10000D7F8, symSize: 0x14 }
  - { offsetInCU: 0x23202, offset: 0x23202, size: 0x8, addend: 0x0, symName: __ZNSt3__16vectorIiNS_9allocatorIiEEE21_ConstructTransactionC1B8ue170006ERS3_m, symObjAddr: 0x9B84, symBinAddr: 0x10000D80C, symSize: 0x3C }
  - { offsetInCU: 0x23248, offset: 0x23248, size: 0x8, addend: 0x0, symName: __ZNSt3__116allocator_traitsINS_9allocatorIiEEE9constructB8ue170006IiJRKiEvEEvRS2_PT_DpOT0_, symObjAddr: 0x9BC0, symBinAddr: 0x10000D848, symSize: 0x34 }
  - { offsetInCU: 0x2329F, offset: 0x2329F, size: 0x8, addend: 0x0, symName: __ZNSt3__16vectorIiNS_9allocatorIiEEE21_ConstructTransactionD1B8ue170006Ev, symObjAddr: 0x9BF4, symBinAddr: 0x10000D87C, symSize: 0x2C }
  - { offsetInCU: 0x232C8, offset: 0x232C8, size: 0x8, addend: 0x0, symName: __ZNSt3__16vectorIiNS_9allocatorIiEEE21_ConstructTransactionC2B8ue170006ERS3_m, symObjAddr: 0x9C20, symBinAddr: 0x10000D8A8, symSize: 0x44 }
  - { offsetInCU: 0x2330F, offset: 0x2330F, size: 0x8, addend: 0x0, symName: __ZNSt3__19allocatorIiE9constructB8ue170006IiJRKiEEEvPT_DpOT0_, symObjAddr: 0x9C64, symBinAddr: 0x10000D8EC, symSize: 0x28 }
  - { offsetInCU: 0x23364, offset: 0x23364, size: 0x8, addend: 0x0, symName: __ZNSt3__16vectorIiNS_9allocatorIiEEE21_ConstructTransactionD2B8ue170006Ev, symObjAddr: 0x9C8C, symBinAddr: 0x10000D914, symSize: 0x20 }
  - { offsetInCU: 0x2338C, offset: 0x2338C, size: 0x8, addend: 0x0, symName: __ZNKSt3__16vectorIiNS_9allocatorIiEEE11__recommendB8ue170006Em, symObjAddr: 0x9CAC, symBinAddr: 0x10000D934, symSize: 0xB4 }
  - { offsetInCU: 0x233E0, offset: 0x233E0, size: 0x8, addend: 0x0, symName: __ZNSt3__114__split_bufferIiRNS_9allocatorIiEEEC1EmmS3_, symObjAddr: 0x9D60, symBinAddr: 0x10000D9E8, symSize: 0x44 }
  - { offsetInCU: 0x23435, offset: 0x23435, size: 0x8, addend: 0x0, symName: __ZNSt3__114__split_bufferIiRNS_9allocatorIiEEED1Ev, symObjAddr: 0x9EB4, symBinAddr: 0x10000DB3C, symSize: 0x2C }
  - { offsetInCU: 0x2345F, offset: 0x2345F, size: 0x8, addend: 0x0, symName: __ZNKSt3__16vectorIiNS_9allocatorIiEEE8max_sizeEv, symObjAddr: 0x9EE0, symBinAddr: 0x10000DB68, symSize: 0x60 }
  - { offsetInCU: 0x23485, offset: 0x23485, size: 0x8, addend: 0x0, symName: __ZNKSt3__16vectorIiNS_9allocatorIiEEE20__throw_length_errorB8ue170006Ev, symObjAddr: 0x9F40, symBinAddr: 0x10000DBC8, symSize: 0x1C }
  - { offsetInCU: 0x234B3, offset: 0x234B3, size: 0x8, addend: 0x0, symName: __ZNSt3__116allocator_traitsINS_9allocatorIiEEE8max_sizeB8ue170006IS2_vEEmRKS2_, symObjAddr: 0x9FB4, symBinAddr: 0x10000DC3C, symSize: 0x24 }
  - { offsetInCU: 0x234E0, offset: 0x234E0, size: 0x8, addend: 0x0, symName: __ZNKSt3__16vectorIiNS_9allocatorIiEEE7__allocB8ue170006Ev, symObjAddr: 0x9FD8, symBinAddr: 0x10000DC60, symSize: 0x28 }
  - { offsetInCU: 0x23505, offset: 0x23505, size: 0x8, addend: 0x0, symName: __ZNSt3__114numeric_limitsIlE3maxB8ue170006Ev, symObjAddr: 0xA000, symBinAddr: 0x10000DC88, symSize: 0x14 }
  - { offsetInCU: 0x23519, offset: 0x23519, size: 0x8, addend: 0x0, symName: __ZNKSt3__16__lessIvvEclB8ue170006ImmEEbRKT_RKT0_, symObjAddr: 0xA068, symBinAddr: 0x10000DCF0, symSize: 0x34 }
  - { offsetInCU: 0x2356C, offset: 0x2356C, size: 0x8, addend: 0x0, symName: __ZNKSt3__19allocatorIiE8max_sizeB8ue170006Ev, symObjAddr: 0xA09C, symBinAddr: 0x10000DD24, symSize: 0x14 }
  - { offsetInCU: 0x23590, offset: 0x23590, size: 0x8, addend: 0x0, symName: __ZNKSt3__117__compressed_pairIPiNS_9allocatorIiEEE6secondB8ue170006Ev, symObjAddr: 0xA0B0, symBinAddr: 0x10000DD38, symSize: 0x24 }
  - { offsetInCU: 0x235B5, offset: 0x235B5, size: 0x8, addend: 0x0, symName: __ZNKSt3__122__compressed_pair_elemINS_9allocatorIiEELi1ELb1EE5__getB8ue170006Ev, symObjAddr: 0xA0D4, symBinAddr: 0x10000DD5C, symSize: 0x14 }
  - { offsetInCU: 0x235DA, offset: 0x235DA, size: 0x8, addend: 0x0, symName: __ZNSt3__123__libcpp_numeric_limitsIlLb1EE3maxB8ue170006Ev, symObjAddr: 0xA0E8, symBinAddr: 0x10000DD70, symSize: 0x8 }
  - { offsetInCU: 0x235EE, offset: 0x235EE, size: 0x8, addend: 0x0, symName: __ZNSt12length_errorC1B8ue170006EPKc, symObjAddr: 0xA154, symBinAddr: 0x10000DDDC, symSize: 0x34 }
  - { offsetInCU: 0x23625, offset: 0x23625, size: 0x8, addend: 0x0, symName: __ZNSt12length_errorC2B8ue170006EPKc, symObjAddr: 0xA188, symBinAddr: 0x10000DE10, symSize: 0x4C }
  - { offsetInCU: 0x2365C, offset: 0x2365C, size: 0x8, addend: 0x0, symName: __ZNSt3__114__split_bufferIiRNS_9allocatorIiEEEC2EmmS3_, symObjAddr: 0xA228, symBinAddr: 0x10000DEB0, symSize: 0xD4 }
  - { offsetInCU: 0x236CE, offset: 0x236CE, size: 0x8, addend: 0x0, symName: __ZNSt3__117__compressed_pairIPiRNS_9allocatorIiEEEC1B8ue170006IDnS4_EEOT_OT0_, symObjAddr: 0xA2FC, symBinAddr: 0x10000DF84, symSize: 0x3C }
  - { offsetInCU: 0x23724, offset: 0x23724, size: 0x8, addend: 0x0, symName: __ZNSt3__114__split_bufferIiRNS_9allocatorIiEEE7__allocB8ue170006Ev, symObjAddr: 0xA378, symBinAddr: 0x10000E000, symSize: 0x28 }
  - { offsetInCU: 0x23748, offset: 0x23748, size: 0x8, addend: 0x0, symName: __ZNSt3__114__split_bufferIiRNS_9allocatorIiEEE9__end_capB8ue170006Ev, symObjAddr: 0xA3A0, symBinAddr: 0x10000E028, symSize: 0x28 }
  - { offsetInCU: 0x2376D, offset: 0x2376D, size: 0x8, addend: 0x0, symName: __ZNSt3__117__compressed_pairIPiRNS_9allocatorIiEEEC2B8ue170006IDnS4_EEOT_OT0_, symObjAddr: 0xA3C8, symBinAddr: 0x10000E050, symSize: 0x48 }
  - { offsetInCU: 0x237C4, offset: 0x237C4, size: 0x8, addend: 0x0, symName: __ZNSt3__122__compressed_pair_elemIRNS_9allocatorIiEELi1ELb0EEC2B8ue170006IS3_vEEOT_, symObjAddr: 0xA410, symBinAddr: 0x10000E098, symSize: 0x20 }
  - { offsetInCU: 0x23804, offset: 0x23804, size: 0x8, addend: 0x0, symName: __ZNSt3__19allocatorIiE8allocateB8ue170006Em, symObjAddr: 0xA430, symBinAddr: 0x10000E0B8, symSize: 0x58 }
  - { offsetInCU: 0x23836, offset: 0x23836, size: 0x8, addend: 0x0, symName: __ZNSt3__117__compressed_pairIPiRNS_9allocatorIiEEE6secondB8ue170006Ev, symObjAddr: 0xA508, symBinAddr: 0x10000E190, symSize: 0x28 }
  - { offsetInCU: 0x2385B, offset: 0x2385B, size: 0x8, addend: 0x0, symName: __ZNSt3__122__compressed_pair_elemIRNS_9allocatorIiEELi1ELb0EE5__getB8ue170006Ev, symObjAddr: 0xA530, symBinAddr: 0x10000E1B8, symSize: 0x18 }
  - { offsetInCU: 0x2387F, offset: 0x2387F, size: 0x8, addend: 0x0, symName: __ZNSt3__117__compressed_pairIPiRNS_9allocatorIiEEE5firstB8ue170006Ev, symObjAddr: 0xA548, symBinAddr: 0x10000E1D0, symSize: 0x24 }
  - { offsetInCU: 0x238A4, offset: 0x238A4, size: 0x8, addend: 0x0, symName: __ZNSt3__116reverse_iteratorIPiEC1B8ue170006ES1_, symObjAddr: 0xA5E4, symBinAddr: 0x10000E26C, symSize: 0x34 }
  - { offsetInCU: 0x238DB, offset: 0x238DB, size: 0x8, addend: 0x0, symName: __ZNKSt3__116reverse_iteratorIPiE4baseB8ue170006Ev, symObjAddr: 0xA618, symBinAddr: 0x10000E2A0, symSize: 0x18 }
  - { offsetInCU: 0x238FF, offset: 0x238FF, size: 0x8, addend: 0x0, symName: __ZNKSt3__16vectorIiNS_9allocatorIiEEE14__annotate_newB8ue170006Em, symObjAddr: 0xA66C, symBinAddr: 0x10000E2F4, symSize: 0xAC }
  - { offsetInCU: 0x23955, offset: 0x23955, size: 0x8, addend: 0x0, symName: __ZNKSt3__111__move_loopINS_17_ClassicAlgPolicyEEclB8ue170006INS_16reverse_iteratorIPiEES6_S6_EENS_4pairIT_T1_EES8_T0_S9_, symObjAddr: 0xAA08, symBinAddr: 0x10000E690, symSize: 0xA0 }
  - { offsetInCU: 0x239C3, offset: 0x239C3, size: 0x8, addend: 0x0, symName: __ZNSt3__18_IterOpsINS_17_ClassicAlgPolicyEE11__iter_moveB8ue170006IRNS_16reverse_iteratorIPiEEEENS_9enable_ifIXsr12is_referenceIDTdeclsr3stdE7declvalIRT_EEEEE5valueEDTclsr3stdE4movedeclsr3stdE7declvalISA_EEEEE4typeEOS9_, symObjAddr: 0xAC3C, symBinAddr: 0x10000E8C4, symSize: 0x28 }
  - { offsetInCU: 0x239EF, offset: 0x239EF, size: 0x8, addend: 0x0, symName: __ZNKSt3__116reverse_iteratorIPiEdeB8ue170006Ev, symObjAddr: 0xAC64, symBinAddr: 0x10000E8EC, symSize: 0x28 }
  - { offsetInCU: 0x23A22, offset: 0x23A22, size: 0x8, addend: 0x0, symName: __ZNSt3__116reverse_iteratorIPiEppB8ue170006Ev, symObjAddr: 0xAC8C, symBinAddr: 0x10000E914, symSize: 0x20 }
  - { offsetInCU: 0x23A47, offset: 0x23A47, size: 0x8, addend: 0x0, symName: __ZNSt3__18_IterOpsINS_17_ClassicAlgPolicyEE25__validate_iter_referenceB8ue170006IRNS_16reverse_iteratorIPiEEEEvv, symObjAddr: 0xACAC, symBinAddr: 0x10000E934, symSize: 0x4 }
  - { offsetInCU: 0x23A65, offset: 0x23A65, size: 0x8, addend: 0x0, symName: __ZNSt3__118__unwrap_iter_implINS_16reverse_iteratorIPiEELb0EE8__unwrapB8ue170006ES3_, symObjAddr: 0xACB0, symBinAddr: 0x10000E938, symSize: 0x24 }
  - { offsetInCU: 0x23A8D, offset: 0x23A8D, size: 0x8, addend: 0x0, symName: __ZNSt3__14pairINS_16reverse_iteratorIPiEES3_EC1B8ue170006IS3_S3_LPv0EEEOT_OT0_, symObjAddr: 0xACD4, symBinAddr: 0x10000E95C, symSize: 0x3C }
  - { offsetInCU: 0x23AEA, offset: 0x23AEA, size: 0x8, addend: 0x0, symName: __ZNSt3__14pairINS_16reverse_iteratorIPiEES3_EC2B8ue170006IS3_S3_LPv0EEEOT_OT0_, symObjAddr: 0xAD10, symBinAddr: 0x10000E998, symSize: 0x34 }
  - { offsetInCU: 0x23B47, offset: 0x23B47, size: 0x8, addend: 0x0, symName: __ZNSt3__118__unwrap_iter_implINS_16reverse_iteratorIPiEELb0EE8__rewrapB8ue170006ES3_S3_, symObjAddr: 0xAD44, symBinAddr: 0x10000E9CC, symSize: 0x2C }
  - { offsetInCU: 0x23B75, offset: 0x23B75, size: 0x8, addend: 0x0, symName: __ZNSt3__116reverse_iteratorIPiEC2B8ue170006ES1_, symObjAddr: 0xAD70, symBinAddr: 0x10000E9F8, symSize: 0x28 }
  - { offsetInCU: 0x23BAC, offset: 0x23BAC, size: 0x8, addend: 0x0, symName: __ZNSt3__114__split_bufferIiRNS_9allocatorIiEEED2Ev, symObjAddr: 0xAD98, symBinAddr: 0x10000EA20, symSize: 0x8C }
  - { offsetInCU: 0x23BD6, offset: 0x23BD6, size: 0x8, addend: 0x0, symName: __ZNSt3__114__split_bufferIiRNS_9allocatorIiEEE5clearB8ue170006Ev, symObjAddr: 0xAE24, symBinAddr: 0x10000EAAC, symSize: 0x28 }
  - { offsetInCU: 0x23BFA, offset: 0x23BFA, size: 0x8, addend: 0x0, symName: __ZNKSt3__114__split_bufferIiRNS_9allocatorIiEEE8capacityB8ue170006Ev, symObjAddr: 0xAE4C, symBinAddr: 0x10000EAD4, symSize: 0x40 }
  - { offsetInCU: 0x23C1E, offset: 0x23C1E, size: 0x8, addend: 0x0, symName: __ZNSt3__114__split_bufferIiRNS_9allocatorIiEEE17__destruct_at_endB8ue170006EPi, symObjAddr: 0xAE8C, symBinAddr: 0x10000EB14, symSize: 0x2C }
  - { offsetInCU: 0x23C50, offset: 0x23C50, size: 0x8, addend: 0x0, symName: __ZNSt3__114__split_bufferIiRNS_9allocatorIiEEE17__destruct_at_endB8ue170006EPiNS_17integral_constantIbLb0EEE, symObjAddr: 0xAEB8, symBinAddr: 0x10000EB40, symSize: 0x80 }
  - { offsetInCU: 0x23C8F, offset: 0x23C8F, size: 0x8, addend: 0x0, symName: __ZNKSt3__114__split_bufferIiRNS_9allocatorIiEEE9__end_capB8ue170006Ev, symObjAddr: 0xAF38, symBinAddr: 0x10000EBC0, symSize: 0x28 }
  - { offsetInCU: 0x23CB3, offset: 0x23CB3, size: 0x8, addend: 0x0, symName: __ZNKSt3__117__compressed_pairIPiRNS_9allocatorIiEEE5firstB8ue170006Ev, symObjAddr: 0xAF60, symBinAddr: 0x10000EBE8, symSize: 0x24 }
  - { offsetInCU: 0x23CD8, offset: 0x23CD8, size: 0x8, addend: 0x0, symName: __ZNSt3__16vectorIP12PingPongTaskNS_9allocatorIS2_EEEC2Em, symObjAddr: 0xAF84, symBinAddr: 0x10000EC0C, symSize: 0xD4 }
  - { offsetInCU: 0x23D27, offset: 0x23D27, size: 0x8, addend: 0x0, symName: __ZNSt3__117__compressed_pairIPP12PingPongTaskNS_9allocatorIS2_EEEC1B8ue170006IDnNS_18__default_init_tagEEEOT_OT0_, symObjAddr: 0xB058, symBinAddr: 0x10000ECE0, symSize: 0x3C }
  - { offsetInCU: 0x23D7E, offset: 0x23D7E, size: 0x8, addend: 0x0, symName: __ZNSt3__16vectorIP12PingPongTaskNS_9allocatorIS2_EEE16__destroy_vectorC1B8ue170006ERS5_, symObjAddr: 0xB0D4, symBinAddr: 0x10000ED5C, symSize: 0x34 }
  - { offsetInCU: 0x23DB5, offset: 0x23DB5, size: 0x8, addend: 0x0, symName: __ZNSt3__16vectorIP12PingPongTaskNS_9allocatorIS2_EEE11__vallocateB8ue170006Em, symObjAddr: 0xB108, symBinAddr: 0x10000ED90, symSize: 0xAC }
  - { offsetInCU: 0x23DF7, offset: 0x23DF7, size: 0x8, addend: 0x0, symName: __ZNSt3__16vectorIP12PingPongTaskNS_9allocatorIS2_EEE18__construct_at_endEm, symObjAddr: 0xB1B4, symBinAddr: 0x10000EE3C, symSize: 0xC8 }
  - { offsetInCU: 0x23E68, offset: 0x23E68, size: 0x8, addend: 0x0, symName: __ZNSt3__128__exception_guard_exceptionsINS_6vectorIP12PingPongTaskNS_9allocatorIS3_EEE16__destroy_vectorEE10__completeB8ue170006Ev, symObjAddr: 0xB27C, symBinAddr: 0x10000EF04, symSize: 0x1C }
  - { offsetInCU: 0x23E8D, offset: 0x23E8D, size: 0x8, addend: 0x0, symName: __ZNSt3__128__exception_guard_exceptionsINS_6vectorIP12PingPongTaskNS_9allocatorIS3_EEE16__destroy_vectorEED1B8ue170006Ev, symObjAddr: 0xB298, symBinAddr: 0x10000EF20, symSize: 0x2C }
  - { offsetInCU: 0x23EB6, offset: 0x23EB6, size: 0x8, addend: 0x0, symName: __ZNSt3__117__compressed_pairIPP12PingPongTaskNS_9allocatorIS2_EEEC2B8ue170006IDnNS_18__default_init_tagEEEOT_OT0_, symObjAddr: 0xB2C4, symBinAddr: 0x10000EF4C, symSize: 0x40 }
  - { offsetInCU: 0x23F0D, offset: 0x23F0D, size: 0x8, addend: 0x0, symName: __ZNSt3__122__compressed_pair_elemIPP12PingPongTaskLi0ELb0EEC2B8ue170006IDnvEEOT_, symObjAddr: 0xB304, symBinAddr: 0x10000EF8C, symSize: 0x1C }
  - { offsetInCU: 0x23F4E, offset: 0x23F4E, size: 0x8, addend: 0x0, symName: __ZNSt3__122__compressed_pair_elemINS_9allocatorIP12PingPongTaskEELi1ELb1EEC2B8ue170006ENS_18__default_init_tagE, symObjAddr: 0xB320, symBinAddr: 0x10000EFA8, symSize: 0x2C }
  - { offsetInCU: 0x23F82, offset: 0x23F82, size: 0x8, addend: 0x0, symName: __ZNSt3__19allocatorIP12PingPongTaskEC2B8ue170006Ev, symObjAddr: 0xB34C, symBinAddr: 0x10000EFD4, symSize: 0x2C }
  - { offsetInCU: 0x23FAB, offset: 0x23FAB, size: 0x8, addend: 0x0, symName: __ZNSt3__116__non_trivial_ifILb1ENS_9allocatorIP12PingPongTaskEEEC2B8ue170006Ev, symObjAddr: 0xB378, symBinAddr: 0x10000F000, symSize: 0x14 }
  - { offsetInCU: 0x23FD4, offset: 0x23FD4, size: 0x8, addend: 0x0, symName: __ZNSt3__128__exception_guard_exceptionsINS_6vectorIP12PingPongTaskNS_9allocatorIS3_EEE16__destroy_vectorEEC1B8ue170006ES7_, symObjAddr: 0xB38C, symBinAddr: 0x10000F014, symSize: 0x34 }
  - { offsetInCU: 0x2400B, offset: 0x2400B, size: 0x8, addend: 0x0, symName: __ZNSt3__128__exception_guard_exceptionsINS_6vectorIP12PingPongTaskNS_9allocatorIS3_EEE16__destroy_vectorEEC2B8ue170006ES7_, symObjAddr: 0xB3C0, symBinAddr: 0x10000F048, symSize: 0x24 }
  - { offsetInCU: 0x24042, offset: 0x24042, size: 0x8, addend: 0x0, symName: __ZNSt3__16vectorIP12PingPongTaskNS_9allocatorIS2_EEE16__destroy_vectorC2B8ue170006ERS5_, symObjAddr: 0xB3E4, symBinAddr: 0x10000F06C, symSize: 0x20 }
  - { offsetInCU: 0x24079, offset: 0x24079, size: 0x8, addend: 0x0, symName: __ZNKSt3__16vectorIP12PingPongTaskNS_9allocatorIS2_EEE8max_sizeEv, symObjAddr: 0xB404, symBinAddr: 0x10000F08C, symSize: 0x60 }
  - { offsetInCU: 0x2409F, offset: 0x2409F, size: 0x8, addend: 0x0, symName: __ZNKSt3__16vectorIP12PingPongTaskNS_9allocatorIS2_EEE20__throw_length_errorB8ue170006Ev, symObjAddr: 0xB464, symBinAddr: 0x10000F0EC, symSize: 0x1C }
  - { offsetInCU: 0x240C3, offset: 0x240C3, size: 0x8, addend: 0x0, symName: __ZNSt3__16vectorIP12PingPongTaskNS_9allocatorIS2_EEE7__allocB8ue170006Ev, symObjAddr: 0xB4C0, symBinAddr: 0x10000F148, symSize: 0x28 }
  - { offsetInCU: 0x240E7, offset: 0x240E7, size: 0x8, addend: 0x0, symName: __ZNSt3__16vectorIP12PingPongTaskNS_9allocatorIS2_EEE9__end_capB8ue170006Ev, symObjAddr: 0xB4E8, symBinAddr: 0x10000F170, symSize: 0x28 }
  - { offsetInCU: 0x2410B, offset: 0x2410B, size: 0x8, addend: 0x0, symName: __ZNKSt3__16vectorIP12PingPongTaskNS_9allocatorIS2_EEE14__annotate_newB8ue170006Em, symObjAddr: 0xB510, symBinAddr: 0x10000F198, symSize: 0xAC }
  - { offsetInCU: 0x24148, offset: 0x24148, size: 0x8, addend: 0x0, symName: __ZNSt3__116allocator_traitsINS_9allocatorIP12PingPongTaskEEE8max_sizeB8ue170006IS4_vEEmRKS4_, symObjAddr: 0xB5BC, symBinAddr: 0x10000F244, symSize: 0x24 }
  - { offsetInCU: 0x24175, offset: 0x24175, size: 0x8, addend: 0x0, symName: __ZNKSt3__16vectorIP12PingPongTaskNS_9allocatorIS2_EEE7__allocB8ue170006Ev, symObjAddr: 0xB5E0, symBinAddr: 0x10000F268, symSize: 0x28 }
  - { offsetInCU: 0x2419A, offset: 0x2419A, size: 0x8, addend: 0x0, symName: __ZNKSt3__19allocatorIP12PingPongTaskE8max_sizeB8ue170006Ev, symObjAddr: 0xB608, symBinAddr: 0x10000F290, symSize: 0x14 }
  - { offsetInCU: 0x241BE, offset: 0x241BE, size: 0x8, addend: 0x0, symName: __ZNKSt3__117__compressed_pairIPP12PingPongTaskNS_9allocatorIS2_EEE6secondB8ue170006Ev, symObjAddr: 0xB61C, symBinAddr: 0x10000F2A4, symSize: 0x24 }
  - { offsetInCU: 0x241E3, offset: 0x241E3, size: 0x8, addend: 0x0, symName: __ZNKSt3__122__compressed_pair_elemINS_9allocatorIP12PingPongTaskEELi1ELb1EE5__getB8ue170006Ev, symObjAddr: 0xB640, symBinAddr: 0x10000F2C8, symSize: 0x14 }
  - { offsetInCU: 0x24207, offset: 0x24207, size: 0x8, addend: 0x0, symName: __ZNSt3__19allocatorIP12PingPongTaskE8allocateB8ue170006Em, symObjAddr: 0xB654, symBinAddr: 0x10000F2DC, symSize: 0x58 }
  - { offsetInCU: 0x24239, offset: 0x24239, size: 0x8, addend: 0x0, symName: __ZNSt3__117__compressed_pairIPP12PingPongTaskNS_9allocatorIS2_EEE6secondB8ue170006Ev, symObjAddr: 0xB6AC, symBinAddr: 0x10000F334, symSize: 0x24 }
  - { offsetInCU: 0x2425E, offset: 0x2425E, size: 0x8, addend: 0x0, symName: __ZNSt3__122__compressed_pair_elemINS_9allocatorIP12PingPongTaskEELi1ELb1EE5__getB8ue170006Ev, symObjAddr: 0xB6D0, symBinAddr: 0x10000F358, symSize: 0x14 }
  - { offsetInCU: 0x24282, offset: 0x24282, size: 0x8, addend: 0x0, symName: __ZNSt3__117__compressed_pairIPP12PingPongTaskNS_9allocatorIS2_EEE5firstB8ue170006Ev, symObjAddr: 0xB6E4, symBinAddr: 0x10000F36C, symSize: 0x24 }
  - { offsetInCU: 0x242A7, offset: 0x242A7, size: 0x8, addend: 0x0, symName: __ZNSt3__122__compressed_pair_elemIPP12PingPongTaskLi0ELb0EE5__getB8ue170006Ev, symObjAddr: 0xB708, symBinAddr: 0x10000F390, symSize: 0x14 }
  - { offsetInCU: 0x242CC, offset: 0x242CC, size: 0x8, addend: 0x0, symName: __ZNKSt3__16vectorIP12PingPongTaskNS_9allocatorIS2_EEE31__annotate_contiguous_containerB8ue170006EPKvS7_S7_S7_, symObjAddr: 0xB71C, symBinAddr: 0x10000F3A4, symSize: 0x20 }
  - { offsetInCU: 0x2431C, offset: 0x2431C, size: 0x8, addend: 0x0, symName: __ZNKSt3__16vectorIP12PingPongTaskNS_9allocatorIS2_EEE4dataB8ue170006Ev, symObjAddr: 0xB73C, symBinAddr: 0x10000F3C4, symSize: 0x28 }
  - { offsetInCU: 0x24340, offset: 0x24340, size: 0x8, addend: 0x0, symName: __ZNKSt3__16vectorIP12PingPongTaskNS_9allocatorIS2_EEE8capacityB8ue170006Ev, symObjAddr: 0xB764, symBinAddr: 0x10000F3EC, symSize: 0x40 }
  - { offsetInCU: 0x24364, offset: 0x24364, size: 0x8, addend: 0x0, symName: __ZNKSt3__16vectorIP12PingPongTaskNS_9allocatorIS2_EEE9__end_capB8ue170006Ev, symObjAddr: 0xB7B8, symBinAddr: 0x10000F440, symSize: 0x28 }
  - { offsetInCU: 0x24388, offset: 0x24388, size: 0x8, addend: 0x0, symName: __ZNKSt3__117__compressed_pairIPP12PingPongTaskNS_9allocatorIS2_EEE5firstB8ue170006Ev, symObjAddr: 0xB7E0, symBinAddr: 0x10000F468, symSize: 0x24 }
  - { offsetInCU: 0x243AD, offset: 0x243AD, size: 0x8, addend: 0x0, symName: __ZNKSt3__122__compressed_pair_elemIPP12PingPongTaskLi0ELb0EE5__getB8ue170006Ev, symObjAddr: 0xB804, symBinAddr: 0x10000F48C, symSize: 0x14 }
  - { offsetInCU: 0x243EB, offset: 0x243EB, size: 0x8, addend: 0x0, symName: __ZNSt3__16vectorIP12PingPongTaskNS_9allocatorIS2_EEE21_ConstructTransactionC1B8ue170006ERS5_m, symObjAddr: 0xB818, symBinAddr: 0x10000F4A0, symSize: 0x3C }
  - { offsetInCU: 0x24431, offset: 0x24431, size: 0x8, addend: 0x0, symName: __ZNSt3__116allocator_traitsINS_9allocatorIP12PingPongTaskEEE9constructB8ue170006IS3_JEvEEvRS4_PT_DpOT0_, symObjAddr: 0xB854, symBinAddr: 0x10000F4DC, symSize: 0x2C }
  - { offsetInCU: 0x24473, offset: 0x24473, size: 0x8, addend: 0x0, symName: __ZNSt3__16vectorIP12PingPongTaskNS_9allocatorIS2_EEE21_ConstructTransactionD1B8ue170006Ev, symObjAddr: 0xB880, symBinAddr: 0x10000F508, symSize: 0x2C }
  - { offsetInCU: 0x2449C, offset: 0x2449C, size: 0x8, addend: 0x0, symName: __ZNSt3__16vectorIP12PingPongTaskNS_9allocatorIS2_EEE21_ConstructTransactionC2B8ue170006ERS5_m, symObjAddr: 0xB8AC, symBinAddr: 0x10000F534, symSize: 0x44 }
  - { offsetInCU: 0x244E3, offset: 0x244E3, size: 0x8, addend: 0x0, symName: __ZNSt3__19allocatorIP12PingPongTaskE9constructB8ue170006IS2_JEEEvPT_DpOT0_, symObjAddr: 0xB8F0, symBinAddr: 0x10000F578, symSize: 0x1C }
  - { offsetInCU: 0x24524, offset: 0x24524, size: 0x8, addend: 0x0, symName: __ZNSt3__16vectorIP12PingPongTaskNS_9allocatorIS2_EEE21_ConstructTransactionD2B8ue170006Ev, symObjAddr: 0xB90C, symBinAddr: 0x10000F594, symSize: 0x20 }
  - { offsetInCU: 0x2454D, offset: 0x2454D, size: 0x8, addend: 0x0, symName: __ZNSt3__128__exception_guard_exceptionsINS_6vectorIP12PingPongTaskNS_9allocatorIS3_EEE16__destroy_vectorEED2B8ue170006Ev, symObjAddr: 0xB92C, symBinAddr: 0x10000F5B4, symSize: 0x50 }
  - { offsetInCU: 0x24575, offset: 0x24575, size: 0x8, addend: 0x0, symName: __ZNSt3__16vectorIP12PingPongTaskNS_9allocatorIS2_EEE16__destroy_vectorclB8ue170006Ev, symObjAddr: 0xB97C, symBinAddr: 0x10000F604, symSize: 0x90 }
  - { offsetInCU: 0x24599, offset: 0x24599, size: 0x8, addend: 0x0, symName: __ZNSt3__16vectorIP12PingPongTaskNS_9allocatorIS2_EEE7__clearB8ue170006Ev, symObjAddr: 0xBA0C, symBinAddr: 0x10000F694, symSize: 0x28 }
  - { offsetInCU: 0x245BD, offset: 0x245BD, size: 0x8, addend: 0x0, symName: __ZNKSt3__16vectorIP12PingPongTaskNS_9allocatorIS2_EEE17__annotate_deleteB8ue170006Ev, symObjAddr: 0xBA34, symBinAddr: 0x10000F6BC, symSize: 0xB8 }
  - { offsetInCU: 0x245E1, offset: 0x245E1, size: 0x8, addend: 0x0, symName: __ZNSt3__116allocator_traitsINS_9allocatorIP12PingPongTaskEEE10deallocateB8ue170006ERS4_PS3_m, symObjAddr: 0xBAEC, symBinAddr: 0x10000F774, symSize: 0x34 }
  - { offsetInCU: 0x24622, offset: 0x24622, size: 0x8, addend: 0x0, symName: __ZNSt3__16vectorIP12PingPongTaskNS_9allocatorIS2_EEE22__base_destruct_at_endB8ue170006EPS2_, symObjAddr: 0xBB20, symBinAddr: 0x10000F7A8, symSize: 0x8C }
  - { offsetInCU: 0x24664, offset: 0x24664, size: 0x8, addend: 0x0, symName: __ZNSt3__116allocator_traitsINS_9allocatorIP12PingPongTaskEEE7destroyB8ue170006IS3_vEEvRS4_PT_, symObjAddr: 0xBBAC, symBinAddr: 0x10000F834, symSize: 0x2C }
  - { offsetInCU: 0x246A1, offset: 0x246A1, size: 0x8, addend: 0x0, symName: __ZNSt3__19allocatorIP12PingPongTaskE7destroyB8ue170006EPS2_, symObjAddr: 0xBBD8, symBinAddr: 0x10000F860, symSize: 0x14 }
  - { offsetInCU: 0x246D4, offset: 0x246D4, size: 0x8, addend: 0x0, symName: __ZNKSt3__16vectorIP12PingPongTaskNS_9allocatorIS2_EEE4sizeB8ue170006Ev, symObjAddr: 0xBBEC, symBinAddr: 0x10000F874, symSize: 0x28 }
  - { offsetInCU: 0x246F8, offset: 0x246F8, size: 0x8, addend: 0x0, symName: __ZNSt3__19allocatorIP12PingPongTaskE10deallocateB8ue170006EPS2_m, symObjAddr: 0xBC14, symBinAddr: 0x10000F89C, symSize: 0x40 }
  - { offsetInCU: 0x24739, offset: 0x24739, size: 0x8, addend: 0x0, symName: __ZNSt3__16vectorIP12PingPongTaskNS_9allocatorIS2_EEED2B8ue170006Ev, symObjAddr: 0xBC54, symBinAddr: 0x10000F8DC, symSize: 0x40 }
  - { offsetInCU: 0x24762, offset: 0x24762, size: 0x8, addend: 0x0, symName: __ZNSt3__16vectorIP22RecursiveFibonacciTaskNS_9allocatorIS2_EEEC2Em, symObjAddr: 0xBC94, symBinAddr: 0x10000F91C, symSize: 0xD4 }
  - { offsetInCU: 0x247B1, offset: 0x247B1, size: 0x8, addend: 0x0, symName: __ZNSt3__117__compressed_pairIPP22RecursiveFibonacciTaskNS_9allocatorIS2_EEEC1B8ue170006IDnNS_18__default_init_tagEEEOT_OT0_, symObjAddr: 0xBD68, symBinAddr: 0x10000F9F0, symSize: 0x3C }
  - { offsetInCU: 0x24808, offset: 0x24808, size: 0x8, addend: 0x0, symName: __ZNSt3__16vectorIP22RecursiveFibonacciTaskNS_9allocatorIS2_EEE16__destroy_vectorC1B8ue170006ERS5_, symObjAddr: 0xBDE4, symBinAddr: 0x10000FA6C, symSize: 0x34 }
  - { offsetInCU: 0x2483F, offset: 0x2483F, size: 0x8, addend: 0x0, symName: __ZNSt3__16vectorIP22RecursiveFibonacciTaskNS_9allocatorIS2_EEE11__vallocateB8ue170006Em, symObjAddr: 0xBE18, symBinAddr: 0x10000FAA0, symSize: 0xAC }
  - { offsetInCU: 0x24881, offset: 0x24881, size: 0x8, addend: 0x0, symName: __ZNSt3__16vectorIP22RecursiveFibonacciTaskNS_9allocatorIS2_EEE18__construct_at_endEm, symObjAddr: 0xBEC4, symBinAddr: 0x10000FB4C, symSize: 0xC8 }
  - { offsetInCU: 0x248F2, offset: 0x248F2, size: 0x8, addend: 0x0, symName: __ZNSt3__128__exception_guard_exceptionsINS_6vectorIP22RecursiveFibonacciTaskNS_9allocatorIS3_EEE16__destroy_vectorEE10__completeB8ue170006Ev, symObjAddr: 0xBF8C, symBinAddr: 0x10000FC14, symSize: 0x1C }
  - { offsetInCU: 0x24917, offset: 0x24917, size: 0x8, addend: 0x0, symName: __ZNSt3__128__exception_guard_exceptionsINS_6vectorIP22RecursiveFibonacciTaskNS_9allocatorIS3_EEE16__destroy_vectorEED1B8ue170006Ev, symObjAddr: 0xBFA8, symBinAddr: 0x10000FC30, symSize: 0x2C }
  - { offsetInCU: 0x24940, offset: 0x24940, size: 0x8, addend: 0x0, symName: __ZNSt3__117__compressed_pairIPP22RecursiveFibonacciTaskNS_9allocatorIS2_EEEC2B8ue170006IDnNS_18__default_init_tagEEEOT_OT0_, symObjAddr: 0xBFD4, symBinAddr: 0x10000FC5C, symSize: 0x40 }
  - { offsetInCU: 0x24997, offset: 0x24997, size: 0x8, addend: 0x0, symName: __ZNSt3__122__compressed_pair_elemIPP22RecursiveFibonacciTaskLi0ELb0EEC2B8ue170006IDnvEEOT_, symObjAddr: 0xC014, symBinAddr: 0x10000FC9C, symSize: 0x1C }
  - { offsetInCU: 0x249D8, offset: 0x249D8, size: 0x8, addend: 0x0, symName: __ZNSt3__122__compressed_pair_elemINS_9allocatorIP22RecursiveFibonacciTaskEELi1ELb1EEC2B8ue170006ENS_18__default_init_tagE, symObjAddr: 0xC030, symBinAddr: 0x10000FCB8, symSize: 0x2C }
  - { offsetInCU: 0x24A0C, offset: 0x24A0C, size: 0x8, addend: 0x0, symName: __ZNSt3__19allocatorIP22RecursiveFibonacciTaskEC2B8ue170006Ev, symObjAddr: 0xC05C, symBinAddr: 0x10000FCE4, symSize: 0x2C }
  - { offsetInCU: 0x24A35, offset: 0x24A35, size: 0x8, addend: 0x0, symName: __ZNSt3__116__non_trivial_ifILb1ENS_9allocatorIP22RecursiveFibonacciTaskEEEC2B8ue170006Ev, symObjAddr: 0xC088, symBinAddr: 0x10000FD10, symSize: 0x14 }
  - { offsetInCU: 0x24A5E, offset: 0x24A5E, size: 0x8, addend: 0x0, symName: __ZNSt3__128__exception_guard_exceptionsINS_6vectorIP22RecursiveFibonacciTaskNS_9allocatorIS3_EEE16__destroy_vectorEEC1B8ue170006ES7_, symObjAddr: 0xC09C, symBinAddr: 0x10000FD24, symSize: 0x34 }
  - { offsetInCU: 0x24A95, offset: 0x24A95, size: 0x8, addend: 0x0, symName: __ZNSt3__128__exception_guard_exceptionsINS_6vectorIP22RecursiveFibonacciTaskNS_9allocatorIS3_EEE16__destroy_vectorEEC2B8ue170006ES7_, symObjAddr: 0xC0D0, symBinAddr: 0x10000FD58, symSize: 0x24 }
  - { offsetInCU: 0x24ACC, offset: 0x24ACC, size: 0x8, addend: 0x0, symName: __ZNSt3__16vectorIP22RecursiveFibonacciTaskNS_9allocatorIS2_EEE16__destroy_vectorC2B8ue170006ERS5_, symObjAddr: 0xC0F4, symBinAddr: 0x10000FD7C, symSize: 0x20 }
  - { offsetInCU: 0x24B03, offset: 0x24B03, size: 0x8, addend: 0x0, symName: __ZNKSt3__16vectorIP22RecursiveFibonacciTaskNS_9allocatorIS2_EEE8max_sizeEv, symObjAddr: 0xC114, symBinAddr: 0x10000FD9C, symSize: 0x60 }
  - { offsetInCU: 0x24B29, offset: 0x24B29, size: 0x8, addend: 0x0, symName: __ZNKSt3__16vectorIP22RecursiveFibonacciTaskNS_9allocatorIS2_EEE20__throw_length_errorB8ue170006Ev, symObjAddr: 0xC174, symBinAddr: 0x10000FDFC, symSize: 0x1C }
  - { offsetInCU: 0x24B4D, offset: 0x24B4D, size: 0x8, addend: 0x0, symName: __ZNSt3__16vectorIP22RecursiveFibonacciTaskNS_9allocatorIS2_EEE7__allocB8ue170006Ev, symObjAddr: 0xC1D0, symBinAddr: 0x10000FE58, symSize: 0x28 }
  - { offsetInCU: 0x24B71, offset: 0x24B71, size: 0x8, addend: 0x0, symName: __ZNSt3__16vectorIP22RecursiveFibonacciTaskNS_9allocatorIS2_EEE9__end_capB8ue170006Ev, symObjAddr: 0xC1F8, symBinAddr: 0x10000FE80, symSize: 0x28 }
  - { offsetInCU: 0x24B95, offset: 0x24B95, size: 0x8, addend: 0x0, symName: __ZNKSt3__16vectorIP22RecursiveFibonacciTaskNS_9allocatorIS2_EEE14__annotate_newB8ue170006Em, symObjAddr: 0xC220, symBinAddr: 0x10000FEA8, symSize: 0xAC }
  - { offsetInCU: 0x24BD2, offset: 0x24BD2, size: 0x8, addend: 0x0, symName: __ZNSt3__116allocator_traitsINS_9allocatorIP22RecursiveFibonacciTaskEEE8max_sizeB8ue170006IS4_vEEmRKS4_, symObjAddr: 0xC2CC, symBinAddr: 0x10000FF54, symSize: 0x24 }
  - { offsetInCU: 0x24BFF, offset: 0x24BFF, size: 0x8, addend: 0x0, symName: __ZNKSt3__16vectorIP22RecursiveFibonacciTaskNS_9allocatorIS2_EEE7__allocB8ue170006Ev, symObjAddr: 0xC2F0, symBinAddr: 0x10000FF78, symSize: 0x28 }
  - { offsetInCU: 0x24C24, offset: 0x24C24, size: 0x8, addend: 0x0, symName: __ZNKSt3__19allocatorIP22RecursiveFibonacciTaskE8max_sizeB8ue170006Ev, symObjAddr: 0xC318, symBinAddr: 0x10000FFA0, symSize: 0x14 }
  - { offsetInCU: 0x24C48, offset: 0x24C48, size: 0x8, addend: 0x0, symName: __ZNKSt3__117__compressed_pairIPP22RecursiveFibonacciTaskNS_9allocatorIS2_EEE6secondB8ue170006Ev, symObjAddr: 0xC32C, symBinAddr: 0x10000FFB4, symSize: 0x24 }
  - { offsetInCU: 0x24C6D, offset: 0x24C6D, size: 0x8, addend: 0x0, symName: __ZNKSt3__122__compressed_pair_elemINS_9allocatorIP22RecursiveFibonacciTaskEELi1ELb1EE5__getB8ue170006Ev, symObjAddr: 0xC350, symBinAddr: 0x10000FFD8, symSize: 0x14 }
  - { offsetInCU: 0x24C91, offset: 0x24C91, size: 0x8, addend: 0x0, symName: __ZNSt3__19allocatorIP22RecursiveFibonacciTaskE8allocateB8ue170006Em, symObjAddr: 0xC364, symBinAddr: 0x10000FFEC, symSize: 0x58 }
  - { offsetInCU: 0x24CC3, offset: 0x24CC3, size: 0x8, addend: 0x0, symName: __ZNSt3__117__compressed_pairIPP22RecursiveFibonacciTaskNS_9allocatorIS2_EEE6secondB8ue170006Ev, symObjAddr: 0xC3BC, symBinAddr: 0x100010044, symSize: 0x24 }
  - { offsetInCU: 0x24CE8, offset: 0x24CE8, size: 0x8, addend: 0x0, symName: __ZNSt3__122__compressed_pair_elemINS_9allocatorIP22RecursiveFibonacciTaskEELi1ELb1EE5__getB8ue170006Ev, symObjAddr: 0xC3E0, symBinAddr: 0x100010068, symSize: 0x14 }
  - { offsetInCU: 0x24D0C, offset: 0x24D0C, size: 0x8, addend: 0x0, symName: __ZNSt3__117__compressed_pairIPP22RecursiveFibonacciTaskNS_9allocatorIS2_EEE5firstB8ue170006Ev, symObjAddr: 0xC3F4, symBinAddr: 0x10001007C, symSize: 0x24 }
  - { offsetInCU: 0x24D31, offset: 0x24D31, size: 0x8, addend: 0x0, symName: __ZNSt3__122__compressed_pair_elemIPP22RecursiveFibonacciTaskLi0ELb0EE5__getB8ue170006Ev, symObjAddr: 0xC418, symBinAddr: 0x1000100A0, symSize: 0x14 }
  - { offsetInCU: 0x24D56, offset: 0x24D56, size: 0x8, addend: 0x0, symName: __ZNKSt3__16vectorIP22RecursiveFibonacciTaskNS_9allocatorIS2_EEE31__annotate_contiguous_containerB8ue170006EPKvS7_S7_S7_, symObjAddr: 0xC42C, symBinAddr: 0x1000100B4, symSize: 0x20 }
  - { offsetInCU: 0x24DA6, offset: 0x24DA6, size: 0x8, addend: 0x0, symName: __ZNKSt3__16vectorIP22RecursiveFibonacciTaskNS_9allocatorIS2_EEE4dataB8ue170006Ev, symObjAddr: 0xC44C, symBinAddr: 0x1000100D4, symSize: 0x28 }
  - { offsetInCU: 0x24DCA, offset: 0x24DCA, size: 0x8, addend: 0x0, symName: __ZNKSt3__16vectorIP22RecursiveFibonacciTaskNS_9allocatorIS2_EEE8capacityB8ue170006Ev, symObjAddr: 0xC474, symBinAddr: 0x1000100FC, symSize: 0x40 }
  - { offsetInCU: 0x24DEE, offset: 0x24DEE, size: 0x8, addend: 0x0, symName: __ZNKSt3__16vectorIP22RecursiveFibonacciTaskNS_9allocatorIS2_EEE9__end_capB8ue170006Ev, symObjAddr: 0xC4C8, symBinAddr: 0x100010150, symSize: 0x28 }
  - { offsetInCU: 0x24E12, offset: 0x24E12, size: 0x8, addend: 0x0, symName: __ZNKSt3__117__compressed_pairIPP22RecursiveFibonacciTaskNS_9allocatorIS2_EEE5firstB8ue170006Ev, symObjAddr: 0xC4F0, symBinAddr: 0x100010178, symSize: 0x24 }
  - { offsetInCU: 0x24E37, offset: 0x24E37, size: 0x8, addend: 0x0, symName: __ZNKSt3__122__compressed_pair_elemIPP22RecursiveFibonacciTaskLi0ELb0EE5__getB8ue170006Ev, symObjAddr: 0xC514, symBinAddr: 0x10001019C, symSize: 0x14 }
  - { offsetInCU: 0x24E75, offset: 0x24E75, size: 0x8, addend: 0x0, symName: __ZNSt3__16vectorIP22RecursiveFibonacciTaskNS_9allocatorIS2_EEE21_ConstructTransactionC1B8ue170006ERS5_m, symObjAddr: 0xC528, symBinAddr: 0x1000101B0, symSize: 0x3C }
  - { offsetInCU: 0x24EBB, offset: 0x24EBB, size: 0x8, addend: 0x0, symName: __ZNSt3__116allocator_traitsINS_9allocatorIP22RecursiveFibonacciTaskEEE9constructB8ue170006IS3_JEvEEvRS4_PT_DpOT0_, symObjAddr: 0xC564, symBinAddr: 0x1000101EC, symSize: 0x2C }
  - { offsetInCU: 0x24EFD, offset: 0x24EFD, size: 0x8, addend: 0x0, symName: __ZNSt3__16vectorIP22RecursiveFibonacciTaskNS_9allocatorIS2_EEE21_ConstructTransactionD1B8ue170006Ev, symObjAddr: 0xC590, symBinAddr: 0x100010218, symSize: 0x2C }
  - { offsetInCU: 0x24F26, offset: 0x24F26, size: 0x8, addend: 0x0, symName: __ZNSt3__16vectorIP22RecursiveFibonacciTaskNS_9allocatorIS2_EEE21_ConstructTransactionC2B8ue170006ERS5_m, symObjAddr: 0xC5BC, symBinAddr: 0x100010244, symSize: 0x44 }
  - { offsetInCU: 0x24F6D, offset: 0x24F6D, size: 0x8, addend: 0x0, symName: __ZNSt3__19allocatorIP22RecursiveFibonacciTaskE9constructB8ue170006IS2_JEEEvPT_DpOT0_, symObjAddr: 0xC600, symBinAddr: 0x100010288, symSize: 0x1C }
  - { offsetInCU: 0x24FAE, offset: 0x24FAE, size: 0x8, addend: 0x0, symName: __ZNSt3__16vectorIP22RecursiveFibonacciTaskNS_9allocatorIS2_EEE21_ConstructTransactionD2B8ue170006Ev, symObjAddr: 0xC61C, symBinAddr: 0x1000102A4, symSize: 0x20 }
  - { offsetInCU: 0x24FD7, offset: 0x24FD7, size: 0x8, addend: 0x0, symName: __ZNSt3__128__exception_guard_exceptionsINS_6vectorIP22RecursiveFibonacciTaskNS_9allocatorIS3_EEE16__destroy_vectorEED2B8ue170006Ev, symObjAddr: 0xC63C, symBinAddr: 0x1000102C4, symSize: 0x50 }
  - { offsetInCU: 0x24FFF, offset: 0x24FFF, size: 0x8, addend: 0x0, symName: __ZNSt3__16vectorIP22RecursiveFibonacciTaskNS_9allocatorIS2_EEE16__destroy_vectorclB8ue170006Ev, symObjAddr: 0xC68C, symBinAddr: 0x100010314, symSize: 0x90 }
  - { offsetInCU: 0x25023, offset: 0x25023, size: 0x8, addend: 0x0, symName: __ZNSt3__16vectorIP22RecursiveFibonacciTaskNS_9allocatorIS2_EEE7__clearB8ue170006Ev, symObjAddr: 0xC71C, symBinAddr: 0x1000103A4, symSize: 0x28 }
  - { offsetInCU: 0x25047, offset: 0x25047, size: 0x8, addend: 0x0, symName: __ZNKSt3__16vectorIP22RecursiveFibonacciTaskNS_9allocatorIS2_EEE17__annotate_deleteB8ue170006Ev, symObjAddr: 0xC744, symBinAddr: 0x1000103CC, symSize: 0xB8 }
  - { offsetInCU: 0x2506B, offset: 0x2506B, size: 0x8, addend: 0x0, symName: __ZNSt3__116allocator_traitsINS_9allocatorIP22RecursiveFibonacciTaskEEE10deallocateB8ue170006ERS4_PS3_m, symObjAddr: 0xC7FC, symBinAddr: 0x100010484, symSize: 0x34 }
  - { offsetInCU: 0x250AC, offset: 0x250AC, size: 0x8, addend: 0x0, symName: __ZNSt3__16vectorIP22RecursiveFibonacciTaskNS_9allocatorIS2_EEE22__base_destruct_at_endB8ue170006EPS2_, symObjAddr: 0xC830, symBinAddr: 0x1000104B8, symSize: 0x8C }
  - { offsetInCU: 0x250EE, offset: 0x250EE, size: 0x8, addend: 0x0, symName: __ZNSt3__116allocator_traitsINS_9allocatorIP22RecursiveFibonacciTaskEEE7destroyB8ue170006IS3_vEEvRS4_PT_, symObjAddr: 0xC8BC, symBinAddr: 0x100010544, symSize: 0x2C }
  - { offsetInCU: 0x2512B, offset: 0x2512B, size: 0x8, addend: 0x0, symName: __ZNSt3__19allocatorIP22RecursiveFibonacciTaskE7destroyB8ue170006EPS2_, symObjAddr: 0xC8E8, symBinAddr: 0x100010570, symSize: 0x14 }
  - { offsetInCU: 0x2515E, offset: 0x2515E, size: 0x8, addend: 0x0, symName: __ZNKSt3__16vectorIP22RecursiveFibonacciTaskNS_9allocatorIS2_EEE4sizeB8ue170006Ev, symObjAddr: 0xC8FC, symBinAddr: 0x100010584, symSize: 0x28 }
  - { offsetInCU: 0x25182, offset: 0x25182, size: 0x8, addend: 0x0, symName: __ZNSt3__19allocatorIP22RecursiveFibonacciTaskE10deallocateB8ue170006EPS2_m, symObjAddr: 0xC924, symBinAddr: 0x1000105AC, symSize: 0x40 }
  - { offsetInCU: 0x251C3, offset: 0x251C3, size: 0x8, addend: 0x0, symName: __ZNSt3__16vectorIP22RecursiveFibonacciTaskNS_9allocatorIS2_EEED2B8ue170006Ev, symObjAddr: 0xC964, symBinAddr: 0x1000105EC, symSize: 0x40 }
  - { offsetInCU: 0x251EC, offset: 0x251EC, size: 0x8, addend: 0x0, symName: __ZNSt3__16vectorI32MathOperationsInTightForLoopTaskNS_9allocatorIS1_EEEC2B8ue170006Ev, symObjAddr: 0xC9A4, symBinAddr: 0x10001062C, symSize: 0x4C }
  - { offsetInCU: 0x25215, offset: 0x25215, size: 0x8, addend: 0x0, symName: __ZNSt3__117__compressed_pairIP32MathOperationsInTightForLoopTaskNS_9allocatorIS1_EEEC1B8ue170006IDnNS_18__default_init_tagEEEOT_OT0_, symObjAddr: 0xC9F0, symBinAddr: 0x100010678, symSize: 0x3C }
  - { offsetInCU: 0x2526C, offset: 0x2526C, size: 0x8, addend: 0x0, symName: __ZNSt3__117__compressed_pairIP32MathOperationsInTightForLoopTaskNS_9allocatorIS1_EEEC2B8ue170006IDnNS_18__default_init_tagEEEOT_OT0_, symObjAddr: 0xCA2C, symBinAddr: 0x1000106B4, symSize: 0x40 }
  - { offsetInCU: 0x252C3, offset: 0x252C3, size: 0x8, addend: 0x0, symName: __ZNSt3__122__compressed_pair_elemIP32MathOperationsInTightForLoopTaskLi0ELb0EEC2B8ue170006IDnvEEOT_, symObjAddr: 0xCA6C, symBinAddr: 0x1000106F4, symSize: 0x1C }
  - { offsetInCU: 0x25304, offset: 0x25304, size: 0x8, addend: 0x0, symName: __ZNSt3__122__compressed_pair_elemINS_9allocatorI32MathOperationsInTightForLoopTaskEELi1ELb1EEC2B8ue170006ENS_18__default_init_tagE, symObjAddr: 0xCA88, symBinAddr: 0x100010710, symSize: 0x2C }
  - { offsetInCU: 0x25338, offset: 0x25338, size: 0x8, addend: 0x0, symName: __ZNSt3__19allocatorI32MathOperationsInTightForLoopTaskEC2B8ue170006Ev, symObjAddr: 0xCAB4, symBinAddr: 0x10001073C, symSize: 0x2C }
  - { offsetInCU: 0x25361, offset: 0x25361, size: 0x8, addend: 0x0, symName: __ZNSt3__116__non_trivial_ifILb1ENS_9allocatorI32MathOperationsInTightForLoopTaskEEEC2B8ue170006Ev, symObjAddr: 0xCAE0, symBinAddr: 0x100010768, symSize: 0x14 }
  - { offsetInCU: 0x2538A, offset: 0x2538A, size: 0x8, addend: 0x0, symName: __ZNSt3__16vectorI32MathOperationsInTightForLoopTaskNS_9allocatorIS1_EEED2B8ue170006Ev, symObjAddr: 0xCAF4, symBinAddr: 0x10001077C, symSize: 0x44 }
  - { offsetInCU: 0x253B3, offset: 0x253B3, size: 0x8, addend: 0x0, symName: __ZNSt3__16vectorI32MathOperationsInTightForLoopTaskNS_9allocatorIS1_EEE16__destroy_vectorC1B8ue170006ERS4_, symObjAddr: 0xCB38, symBinAddr: 0x1000107C0, symSize: 0x34 }
  - { offsetInCU: 0x253EA, offset: 0x253EA, size: 0x8, addend: 0x0, symName: __ZNSt3__16vectorI32MathOperationsInTightForLoopTaskNS_9allocatorIS1_EEE16__destroy_vectorclB8ue170006Ev, symObjAddr: 0xCB6C, symBinAddr: 0x1000107F4, symSize: 0x90 }
  - { offsetInCU: 0x2540F, offset: 0x2540F, size: 0x8, addend: 0x0, symName: __ZNSt3__16vectorI32MathOperationsInTightForLoopTaskNS_9allocatorIS1_EEE16__destroy_vectorC2B8ue170006ERS4_, symObjAddr: 0xCBFC, symBinAddr: 0x100010884, symSize: 0x20 }
  - { offsetInCU: 0x25446, offset: 0x25446, size: 0x8, addend: 0x0, symName: __ZNSt3__16vectorI32MathOperationsInTightForLoopTaskNS_9allocatorIS1_EEE7__clearB8ue170006Ev, symObjAddr: 0xCC1C, symBinAddr: 0x1000108A4, symSize: 0x28 }
  - { offsetInCU: 0x2546A, offset: 0x2546A, size: 0x8, addend: 0x0, symName: __ZNKSt3__16vectorI32MathOperationsInTightForLoopTaskNS_9allocatorIS1_EEE17__annotate_deleteB8ue170006Ev, symObjAddr: 0xCC44, symBinAddr: 0x1000108CC, symSize: 0xD4 }
  - { offsetInCU: 0x2548E, offset: 0x2548E, size: 0x8, addend: 0x0, symName: __ZNSt3__116allocator_traitsINS_9allocatorI32MathOperationsInTightForLoopTaskEEE10deallocateB8ue170006ERS3_PS2_m, symObjAddr: 0xCD18, symBinAddr: 0x1000109A0, symSize: 0x34 }
  - { offsetInCU: 0x254CF, offset: 0x254CF, size: 0x8, addend: 0x0, symName: __ZNSt3__16vectorI32MathOperationsInTightForLoopTaskNS_9allocatorIS1_EEE7__allocB8ue170006Ev, symObjAddr: 0xCD4C, symBinAddr: 0x1000109D4, symSize: 0x28 }
  - { offsetInCU: 0x254F3, offset: 0x254F3, size: 0x8, addend: 0x0, symName: __ZNKSt3__16vectorI32MathOperationsInTightForLoopTaskNS_9allocatorIS1_EEE8capacityB8ue170006Ev, symObjAddr: 0xCD74, symBinAddr: 0x1000109FC, symSize: 0x40 }
  - { offsetInCU: 0x25517, offset: 0x25517, size: 0x8, addend: 0x0, symName: __ZNSt3__16vectorI32MathOperationsInTightForLoopTaskNS_9allocatorIS1_EEE22__base_destruct_at_endB8ue170006EPS1_, symObjAddr: 0xCDB4, symBinAddr: 0x100010A3C, symSize: 0x8C }
  - { offsetInCU: 0x25559, offset: 0x25559, size: 0x8, addend: 0x0, symName: __ZNSt3__116allocator_traitsINS_9allocatorI32MathOperationsInTightForLoopTaskEEE7destroyB8ue170006IS2_vEEvRS3_PT_, symObjAddr: 0xCE40, symBinAddr: 0x100010AC8, symSize: 0x2C }
  - { offsetInCU: 0x25595, offset: 0x25595, size: 0x8, addend: 0x0, symName: __ZNSt3__19allocatorI32MathOperationsInTightForLoopTaskE7destroyB8ue170006EPS1_, symObjAddr: 0xCE80, symBinAddr: 0x100010B08, symSize: 0x30 }
  - { offsetInCU: 0x255C8, offset: 0x255C8, size: 0x8, addend: 0x0, symName: __ZNKSt3__16vectorI32MathOperationsInTightForLoopTaskNS_9allocatorIS1_EEE31__annotate_contiguous_containerB8ue170006EPKvS6_S6_S6_, symObjAddr: 0xCEB0, symBinAddr: 0x100010B38, symSize: 0x20 }
  - { offsetInCU: 0x25618, offset: 0x25618, size: 0x8, addend: 0x0, symName: __ZNKSt3__16vectorI32MathOperationsInTightForLoopTaskNS_9allocatorIS1_EEE4dataB8ue170006Ev, symObjAddr: 0xCED0, symBinAddr: 0x100010B58, symSize: 0x28 }
  - { offsetInCU: 0x2563D, offset: 0x2563D, size: 0x8, addend: 0x0, symName: __ZNKSt3__16vectorI32MathOperationsInTightForLoopTaskNS_9allocatorIS1_EEE4sizeB8ue170006Ev, symObjAddr: 0xCEF8, symBinAddr: 0x100010B80, symSize: 0x28 }
  - { offsetInCU: 0x25661, offset: 0x25661, size: 0x8, addend: 0x0, symName: __ZNSt3__19allocatorI32MathOperationsInTightForLoopTaskE10deallocateB8ue170006EPS1_m, symObjAddr: 0xCF20, symBinAddr: 0x100010BA8, symSize: 0x44 }
  - { offsetInCU: 0x256A1, offset: 0x256A1, size: 0x8, addend: 0x0, symName: __ZNSt3__117__compressed_pairIP32MathOperationsInTightForLoopTaskNS_9allocatorIS1_EEE6secondB8ue170006Ev, symObjAddr: 0xCF64, symBinAddr: 0x100010BEC, symSize: 0x24 }
  - { offsetInCU: 0x256C6, offset: 0x256C6, size: 0x8, addend: 0x0, symName: __ZNSt3__122__compressed_pair_elemINS_9allocatorI32MathOperationsInTightForLoopTaskEELi1ELb1EE5__getB8ue170006Ev, symObjAddr: 0xCF88, symBinAddr: 0x100010C10, symSize: 0x14 }
  - { offsetInCU: 0x256EA, offset: 0x256EA, size: 0x8, addend: 0x0, symName: __ZNKSt3__16vectorI32MathOperationsInTightForLoopTaskNS_9allocatorIS1_EEE9__end_capB8ue170006Ev, symObjAddr: 0xCF9C, symBinAddr: 0x100010C24, symSize: 0x28 }
  - { offsetInCU: 0x2570E, offset: 0x2570E, size: 0x8, addend: 0x0, symName: __ZNKSt3__117__compressed_pairIP32MathOperationsInTightForLoopTaskNS_9allocatorIS1_EEE5firstB8ue170006Ev, symObjAddr: 0xCFC4, symBinAddr: 0x100010C4C, symSize: 0x24 }
  - { offsetInCU: 0x25733, offset: 0x25733, size: 0x8, addend: 0x0, symName: __ZNKSt3__122__compressed_pair_elemIP32MathOperationsInTightForLoopTaskLi0ELb0EE5__getB8ue170006Ev, symObjAddr: 0xCFE8, symBinAddr: 0x100010C70, symSize: 0x14 }
  - { offsetInCU: 0x25757, offset: 0x25757, size: 0x8, addend: 0x0, symName: __ZNSt3__16vectorI32MathOperationsInTightForLoopTaskNS_9allocatorIS1_EEE9__end_capB8ue170006Ev, symObjAddr: 0xCFFC, symBinAddr: 0x100010C84, symSize: 0x28 }
  - { offsetInCU: 0x25780, offset: 0x25780, size: 0x8, addend: 0x0, symName: __ZNSt3__16vectorI32MathOperationsInTightForLoopTaskNS_9allocatorIS1_EEE22__construct_one_at_endB8ue170006IJS1_EEEvDpOT_, symObjAddr: 0xD024, symBinAddr: 0x100010CAC, symSize: 0x90 }
  - { offsetInCU: 0x257CD, offset: 0x257CD, size: 0x8, addend: 0x0, symName: __ZNSt3__16vectorI32MathOperationsInTightForLoopTaskNS_9allocatorIS1_EEE21__push_back_slow_pathIS1_EEvOT_, symObjAddr: 0xD0B4, symBinAddr: 0x100010D3C, symSize: 0xD8 }
  - { offsetInCU: 0x25829, offset: 0x25829, size: 0x8, addend: 0x0, symName: __ZNSt3__117__compressed_pairIP32MathOperationsInTightForLoopTaskNS_9allocatorIS1_EEE5firstB8ue170006Ev, symObjAddr: 0xD18C, symBinAddr: 0x100010E14, symSize: 0x24 }
  - { offsetInCU: 0x2584E, offset: 0x2584E, size: 0x8, addend: 0x0, symName: __ZNSt3__122__compressed_pair_elemIP32MathOperationsInTightForLoopTaskLi0ELb0EE5__getB8ue170006Ev, symObjAddr: 0xD1B0, symBinAddr: 0x100010E38, symSize: 0x14 }
  - { offsetInCU: 0x2588C, offset: 0x2588C, size: 0x8, addend: 0x0, symName: __ZNSt3__16vectorI32MathOperationsInTightForLoopTaskNS_9allocatorIS1_EEE21_ConstructTransactionC1B8ue170006ERS4_m, symObjAddr: 0xD1C4, symBinAddr: 0x100010E4C, symSize: 0x3C }
  - { offsetInCU: 0x258D2, offset: 0x258D2, size: 0x8, addend: 0x0, symName: __ZNSt3__116allocator_traitsINS_9allocatorI32MathOperationsInTightForLoopTaskEEE9constructB8ue170006IS2_JS2_EvEEvRS3_PT_DpOT0_, symObjAddr: 0xD200, symBinAddr: 0x100010E88, symSize: 0x34 }
  - { offsetInCU: 0x25929, offset: 0x25929, size: 0x8, addend: 0x0, symName: __ZNSt3__16vectorI32MathOperationsInTightForLoopTaskNS_9allocatorIS1_EEE21_ConstructTransactionD1B8ue170006Ev, symObjAddr: 0xD234, symBinAddr: 0x100010EBC, symSize: 0x2C }
  - { offsetInCU: 0x25952, offset: 0x25952, size: 0x8, addend: 0x0, symName: __ZNSt3__16vectorI32MathOperationsInTightForLoopTaskNS_9allocatorIS1_EEE21_ConstructTransactionC2B8ue170006ERS4_m, symObjAddr: 0xD260, symBinAddr: 0x100010EE8, symSize: 0x4C }
  - { offsetInCU: 0x25998, offset: 0x25998, size: 0x8, addend: 0x0, symName: __ZNSt3__19allocatorI32MathOperationsInTightForLoopTaskE9constructB8ue170006IS1_JS1_EEEvPT_DpOT0_, symObjAddr: 0xD2AC, symBinAddr: 0x100010F34, symSize: 0x30 }
  - { offsetInCU: 0x259ED, offset: 0x259ED, size: 0x8, addend: 0x0, symName: __ZN32MathOperationsInTightForLoopTaskC1ERKS_, symObjAddr: 0xD2DC, symBinAddr: 0x100010F64, symSize: 0x34 }
  - { offsetInCU: 0x25A21, offset: 0x25A21, size: 0x8, addend: 0x0, symName: __ZN32MathOperationsInTightForLoopTaskC2ERKS_, symObjAddr: 0xD310, symBinAddr: 0x100010F98, symSize: 0x60 }
  - { offsetInCU: 0x25A5F, offset: 0x25A5F, size: 0x8, addend: 0x0, symName: __ZN9IRunnableC2ERKS_, symObjAddr: 0xD370, symBinAddr: 0x100010FF8, symSize: 0x28 }
  - { offsetInCU: 0x25A93, offset: 0x25A93, size: 0x8, addend: 0x0, symName: __ZNSt3__16vectorI32MathOperationsInTightForLoopTaskNS_9allocatorIS1_EEE21_ConstructTransactionD2B8ue170006Ev, symObjAddr: 0xD398, symBinAddr: 0x100011020, symSize: 0x20 }
  - { offsetInCU: 0x25ABB, offset: 0x25ABB, size: 0x8, addend: 0x0, symName: __ZNKSt3__16vectorI32MathOperationsInTightForLoopTaskNS_9allocatorIS1_EEE11__recommendB8ue170006Em, symObjAddr: 0xD3B8, symBinAddr: 0x100011040, symSize: 0xB4 }
  - { offsetInCU: 0x25B0F, offset: 0x25B0F, size: 0x8, addend: 0x0, symName: __ZNSt3__114__split_bufferI32MathOperationsInTightForLoopTaskRNS_9allocatorIS1_EEEC1EmmS4_, symObjAddr: 0xD46C, symBinAddr: 0x1000110F4, symSize: 0x44 }
  - { offsetInCU: 0x25B64, offset: 0x25B64, size: 0x8, addend: 0x0, symName: __ZNSt3__114__split_bufferI32MathOperationsInTightForLoopTaskRNS_9allocatorIS1_EEED1Ev, symObjAddr: 0xD5C0, symBinAddr: 0x100011248, symSize: 0x2C }
  - { offsetInCU: 0x25B8E, offset: 0x25B8E, size: 0x8, addend: 0x0, symName: __ZNKSt3__16vectorI32MathOperationsInTightForLoopTaskNS_9allocatorIS1_EEE8max_sizeEv, symObjAddr: 0xD5EC, symBinAddr: 0x100011274, symSize: 0x60 }
  - { offsetInCU: 0x25BB4, offset: 0x25BB4, size: 0x8, addend: 0x0, symName: __ZNKSt3__16vectorI32MathOperationsInTightForLoopTaskNS_9allocatorIS1_EEE20__throw_length_errorB8ue170006Ev, symObjAddr: 0xD64C, symBinAddr: 0x1000112D4, symSize: 0x1C }
  - { offsetInCU: 0x25BE2, offset: 0x25BE2, size: 0x8, addend: 0x0, symName: __ZNSt3__116allocator_traitsINS_9allocatorI32MathOperationsInTightForLoopTaskEEE8max_sizeB8ue170006IS3_vEEmRKS3_, symObjAddr: 0xD668, symBinAddr: 0x1000112F0, symSize: 0x24 }
  - { offsetInCU: 0x25C0F, offset: 0x25C0F, size: 0x8, addend: 0x0, symName: __ZNKSt3__16vectorI32MathOperationsInTightForLoopTaskNS_9allocatorIS1_EEE7__allocB8ue170006Ev, symObjAddr: 0xD68C, symBinAddr: 0x100011314, symSize: 0x28 }
  - { offsetInCU: 0x25C34, offset: 0x25C34, size: 0x8, addend: 0x0, symName: __ZNKSt3__19allocatorI32MathOperationsInTightForLoopTaskE8max_sizeB8ue170006Ev, symObjAddr: 0xD6B4, symBinAddr: 0x10001133C, symSize: 0x18 }
  - { offsetInCU: 0x25C58, offset: 0x25C58, size: 0x8, addend: 0x0, symName: __ZNKSt3__117__compressed_pairIP32MathOperationsInTightForLoopTaskNS_9allocatorIS1_EEE6secondB8ue170006Ev, symObjAddr: 0xD6CC, symBinAddr: 0x100011354, symSize: 0x24 }
  - { offsetInCU: 0x25C7D, offset: 0x25C7D, size: 0x8, addend: 0x0, symName: __ZNKSt3__122__compressed_pair_elemINS_9allocatorI32MathOperationsInTightForLoopTaskEELi1ELb1EE5__getB8ue170006Ev, symObjAddr: 0xD6F0, symBinAddr: 0x100011378, symSize: 0x14 }
  - { offsetInCU: 0x25CA2, offset: 0x25CA2, size: 0x8, addend: 0x0, symName: __ZNSt3__114__split_bufferI32MathOperationsInTightForLoopTaskRNS_9allocatorIS1_EEEC2EmmS4_, symObjAddr: 0xD704, symBinAddr: 0x10001138C, symSize: 0xE0 }
  - { offsetInCU: 0x25D14, offset: 0x25D14, size: 0x8, addend: 0x0, symName: __ZNSt3__117__compressed_pairIP32MathOperationsInTightForLoopTaskRNS_9allocatorIS1_EEEC1B8ue170006IDnS5_EEOT_OT0_, symObjAddr: 0xD7E4, symBinAddr: 0x10001146C, symSize: 0x3C }
  - { offsetInCU: 0x25D6A, offset: 0x25D6A, size: 0x8, addend: 0x0, symName: __ZNSt3__114__split_bufferI32MathOperationsInTightForLoopTaskRNS_9allocatorIS1_EEE7__allocB8ue170006Ev, symObjAddr: 0xD860, symBinAddr: 0x1000114E8, symSize: 0x28 }
  - { offsetInCU: 0x25D8E, offset: 0x25D8E, size: 0x8, addend: 0x0, symName: __ZNSt3__114__split_bufferI32MathOperationsInTightForLoopTaskRNS_9allocatorIS1_EEE9__end_capB8ue170006Ev, symObjAddr: 0xD888, symBinAddr: 0x100011510, symSize: 0x28 }
  - { offsetInCU: 0x25DB3, offset: 0x25DB3, size: 0x8, addend: 0x0, symName: __ZNSt3__117__compressed_pairIP32MathOperationsInTightForLoopTaskRNS_9allocatorIS1_EEEC2B8ue170006IDnS5_EEOT_OT0_, symObjAddr: 0xD8B0, symBinAddr: 0x100011538, symSize: 0x48 }
  - { offsetInCU: 0x25E0A, offset: 0x25E0A, size: 0x8, addend: 0x0, symName: __ZNSt3__122__compressed_pair_elemIRNS_9allocatorI32MathOperationsInTightForLoopTaskEELi1ELb0EEC2B8ue170006IS4_vEEOT_, symObjAddr: 0xD8F8, symBinAddr: 0x100011580, symSize: 0x20 }
  - { offsetInCU: 0x25E4A, offset: 0x25E4A, size: 0x8, addend: 0x0, symName: __ZNSt3__19allocatorI32MathOperationsInTightForLoopTaskE8allocateB8ue170006Em, symObjAddr: 0xD918, symBinAddr: 0x1000115A0, symSize: 0x5C }
  - { offsetInCU: 0x25E7C, offset: 0x25E7C, size: 0x8, addend: 0x0, symName: __ZNSt3__117__compressed_pairIP32MathOperationsInTightForLoopTaskRNS_9allocatorIS1_EEE6secondB8ue170006Ev, symObjAddr: 0xD974, symBinAddr: 0x1000115FC, symSize: 0x28 }
  - { offsetInCU: 0x25EA1, offset: 0x25EA1, size: 0x8, addend: 0x0, symName: __ZNSt3__122__compressed_pair_elemIRNS_9allocatorI32MathOperationsInTightForLoopTaskEELi1ELb0EE5__getB8ue170006Ev, symObjAddr: 0xD99C, symBinAddr: 0x100011624, symSize: 0x18 }
  - { offsetInCU: 0x25EC5, offset: 0x25EC5, size: 0x8, addend: 0x0, symName: __ZNSt3__117__compressed_pairIP32MathOperationsInTightForLoopTaskRNS_9allocatorIS1_EEE5firstB8ue170006Ev, symObjAddr: 0xD9B4, symBinAddr: 0x10001163C, symSize: 0x24 }
  - { offsetInCU: 0x25EEA, offset: 0x25EEA, size: 0x8, addend: 0x0, symName: __ZNSt3__116reverse_iteratorIP32MathOperationsInTightForLoopTaskEC1B8ue170006ES2_, symObjAddr: 0xDB04, symBinAddr: 0x10001178C, symSize: 0x34 }
  - { offsetInCU: 0x25F21, offset: 0x25F21, size: 0x8, addend: 0x0, symName: __ZNKSt3__116reverse_iteratorIP32MathOperationsInTightForLoopTaskE4baseB8ue170006Ev, symObjAddr: 0xDB38, symBinAddr: 0x1000117C0, symSize: 0x18 }
  - { offsetInCU: 0x25F45, offset: 0x25F45, size: 0x8, addend: 0x0, symName: __ZNKSt3__16vectorI32MathOperationsInTightForLoopTaskNS_9allocatorIS1_EEE14__annotate_newB8ue170006Em, symObjAddr: 0xDB8C, symBinAddr: 0x100011814, symSize: 0xC8 }
  - { offsetInCU: 0x25F79, offset: 0x25F79, size: 0x8, addend: 0x0, symName: __ZNSt3__129_AllocatorDestroyRangeReverseINS_9allocatorI32MathOperationsInTightForLoopTaskEENS_16reverse_iteratorIPS2_EEEC1B8ue170006ERS3_RS6_S9_, symObjAddr: 0xDCA0, symBinAddr: 0x100011928, symSize: 0x44 }
  - { offsetInCU: 0x25FCF, offset: 0x25FCF, size: 0x8, addend: 0x0, symName: __ZNKSt3__116reverse_iteratorIP32MathOperationsInTightForLoopTaskEdeB8ue170006Ev, symObjAddr: 0xDD50, symBinAddr: 0x1000119D8, symSize: 0x28 }
  - { offsetInCU: 0x26002, offset: 0x26002, size: 0x8, addend: 0x0, symName: __ZNSt3__116reverse_iteratorIP32MathOperationsInTightForLoopTaskEppB8ue170006Ev, symObjAddr: 0xDD78, symBinAddr: 0x100011A00, symSize: 0x20 }
  - { offsetInCU: 0x26027, offset: 0x26027, size: 0x8, addend: 0x0, symName: __ZNSt3__128__exception_guard_exceptionsINS_29_AllocatorDestroyRangeReverseINS_9allocatorI32MathOperationsInTightForLoopTaskEENS_16reverse_iteratorIPS3_EEEEE10__completeB8ue170006Ev, symObjAddr: 0xDD98, symBinAddr: 0x100011A20, symSize: 0x1C }
  - { offsetInCU: 0x2604C, offset: 0x2604C, size: 0x8, addend: 0x0, symName: __ZNSt3__128__exception_guard_exceptionsINS_29_AllocatorDestroyRangeReverseINS_9allocatorI32MathOperationsInTightForLoopTaskEENS_16reverse_iteratorIPS3_EEEEED1B8ue170006Ev, symObjAddr: 0xDDB4, symBinAddr: 0x100011A3C, symSize: 0x2C }
  - { offsetInCU: 0x26075, offset: 0x26075, size: 0x8, addend: 0x0, symName: __ZNSt3__128__exception_guard_exceptionsINS_29_AllocatorDestroyRangeReverseINS_9allocatorI32MathOperationsInTightForLoopTaskEENS_16reverse_iteratorIPS3_EEEEEC1B8ue170006ES8_, symObjAddr: 0xDDE0, symBinAddr: 0x100011A68, symSize: 0x34 }
  - { offsetInCU: 0x260AD, offset: 0x260AD, size: 0x8, addend: 0x0, symName: __ZNSt3__128__exception_guard_exceptionsINS_29_AllocatorDestroyRangeReverseINS_9allocatorI32MathOperationsInTightForLoopTaskEENS_16reverse_iteratorIPS3_EEEEEC2B8ue170006ES8_, symObjAddr: 0xDE14, symBinAddr: 0x100011A9C, symSize: 0x30 }
  - { offsetInCU: 0x260E5, offset: 0x260E5, size: 0x8, addend: 0x0, symName: __ZNSt3__129_AllocatorDestroyRangeReverseINS_9allocatorI32MathOperationsInTightForLoopTaskEENS_16reverse_iteratorIPS2_EEEC2B8ue170006ERS3_RS6_S9_, symObjAddr: 0xDE44, symBinAddr: 0x100011ACC, symSize: 0x38 }
  - { offsetInCU: 0x2613F, offset: 0x2613F, size: 0x8, addend: 0x0, symName: __ZNSt3__119__to_address_helperINS_16reverse_iteratorIP32MathOperationsInTightForLoopTaskEEvE6__callB8ue170006ERKS4_, symObjAddr: 0xDE7C, symBinAddr: 0x100011B04, symSize: 0x38 }
  - { offsetInCU: 0x26161, offset: 0x26161, size: 0x8, addend: 0x0, symName: __ZNKSt3__116reverse_iteratorIP32MathOperationsInTightForLoopTaskEptB8ue170006Ev, symObjAddr: 0xDEB4, symBinAddr: 0x100011B3C, symSize: 0x24 }
  - { offsetInCU: 0x26186, offset: 0x26186, size: 0x8, addend: 0x0, symName: __ZNSt3__128__exception_guard_exceptionsINS_29_AllocatorDestroyRangeReverseINS_9allocatorI32MathOperationsInTightForLoopTaskEENS_16reverse_iteratorIPS3_EEEEED2B8ue170006Ev, symObjAddr: 0xDED8, symBinAddr: 0x100011B60, symSize: 0x50 }
  - { offsetInCU: 0x261AE, offset: 0x261AE, size: 0x8, addend: 0x0, symName: __ZNKSt3__129_AllocatorDestroyRangeReverseINS_9allocatorI32MathOperationsInTightForLoopTaskEENS_16reverse_iteratorIPS2_EEEclB8ue170006Ev, symObjAddr: 0xDF28, symBinAddr: 0x100011BB0, symSize: 0xB4 }
  - { offsetInCU: 0x261D4, offset: 0x261D4, size: 0x8, addend: 0x0, symName: __ZNSt3__116reverse_iteratorINS0_IP32MathOperationsInTightForLoopTaskEEEC1B8ue170006ES3_, symObjAddr: 0xE04C, symBinAddr: 0x100011CD4, symSize: 0x3C }
  - { offsetInCU: 0x2620A, offset: 0x2620A, size: 0x8, addend: 0x0, symName: __ZNSt3__116reverse_iteratorINS0_IP32MathOperationsInTightForLoopTaskEEEppB8ue170006Ev, symObjAddr: 0xE10C, symBinAddr: 0x100011D94, symSize: 0x30 }
  - { offsetInCU: 0x2622F, offset: 0x2622F, size: 0x8, addend: 0x0, symName: __ZNKSt3__116reverse_iteratorINS0_IP32MathOperationsInTightForLoopTaskEEE4baseB8ue170006Ev, symObjAddr: 0xE13C, symBinAddr: 0x100011DC4, symSize: 0x24 }
  - { offsetInCU: 0x26258, offset: 0x26258, size: 0x8, addend: 0x0, symName: __ZNSt3__119__to_address_helperINS_16reverse_iteratorINS1_IP32MathOperationsInTightForLoopTaskEEEEvE6__callB8ue170006ERKS5_, symObjAddr: 0xE160, symBinAddr: 0x100011DE8, symSize: 0x38 }
  - { offsetInCU: 0x2627A, offset: 0x2627A, size: 0x8, addend: 0x0, symName: __ZNKSt3__116reverse_iteratorINS0_IP32MathOperationsInTightForLoopTaskEEEptB8ue170006Ev, symObjAddr: 0xE198, symBinAddr: 0x100011E20, symSize: 0x24 }
  - { offsetInCU: 0x2629E, offset: 0x2629E, size: 0x8, addend: 0x0, symName: __ZNKSt3__116reverse_iteratorINS0_IP32MathOperationsInTightForLoopTaskEEEdeB8ue170006Ev, symObjAddr: 0xE1BC, symBinAddr: 0x100011E44, symSize: 0x34 }
  - { offsetInCU: 0x262D1, offset: 0x262D1, size: 0x8, addend: 0x0, symName: __ZNSt3__116reverse_iteratorIP32MathOperationsInTightForLoopTaskEmmB8ue170006Ev, symObjAddr: 0xE1F0, symBinAddr: 0x100011E78, symSize: 0x20 }
  - { offsetInCU: 0x262F6, offset: 0x262F6, size: 0x8, addend: 0x0, symName: __ZNSt3__116reverse_iteratorINS0_IP32MathOperationsInTightForLoopTaskEEEC2B8ue170006ES3_, symObjAddr: 0xE210, symBinAddr: 0x100011E98, symSize: 0x2C }
  - { offsetInCU: 0x2632D, offset: 0x2632D, size: 0x8, addend: 0x0, symName: __ZNSt3__116reverse_iteratorIP32MathOperationsInTightForLoopTaskEC2B8ue170006ES2_, symObjAddr: 0xE23C, symBinAddr: 0x100011EC4, symSize: 0x28 }
  - { offsetInCU: 0x26364, offset: 0x26364, size: 0x8, addend: 0x0, symName: __ZNSt3__114__split_bufferI32MathOperationsInTightForLoopTaskRNS_9allocatorIS1_EEED2Ev, symObjAddr: 0xE264, symBinAddr: 0x100011EEC, symSize: 0x8C }
  - { offsetInCU: 0x2638E, offset: 0x2638E, size: 0x8, addend: 0x0, symName: __ZNSt3__114__split_bufferI32MathOperationsInTightForLoopTaskRNS_9allocatorIS1_EEE5clearB8ue170006Ev, symObjAddr: 0xE2F0, symBinAddr: 0x100011F78, symSize: 0x28 }
  - { offsetInCU: 0x263B2, offset: 0x263B2, size: 0x8, addend: 0x0, symName: __ZNKSt3__114__split_bufferI32MathOperationsInTightForLoopTaskRNS_9allocatorIS1_EEE8capacityB8ue170006Ev, symObjAddr: 0xE318, symBinAddr: 0x100011FA0, symSize: 0x40 }
  - { offsetInCU: 0x263D6, offset: 0x263D6, size: 0x8, addend: 0x0, symName: __ZNSt3__114__split_bufferI32MathOperationsInTightForLoopTaskRNS_9allocatorIS1_EEE17__destruct_at_endB8ue170006EPS1_, symObjAddr: 0xE358, symBinAddr: 0x100011FE0, symSize: 0x2C }
  - { offsetInCU: 0x26408, offset: 0x26408, size: 0x8, addend: 0x0, symName: __ZNSt3__114__split_bufferI32MathOperationsInTightForLoopTaskRNS_9allocatorIS1_EEE17__destruct_at_endB8ue170006EPS1_NS_17integral_constantIbLb0EEE, symObjAddr: 0xE384, symBinAddr: 0x10001200C, symSize: 0x80 }
  - { offsetInCU: 0x26447, offset: 0x26447, size: 0x8, addend: 0x0, symName: __ZNKSt3__114__split_bufferI32MathOperationsInTightForLoopTaskRNS_9allocatorIS1_EEE9__end_capB8ue170006Ev, symObjAddr: 0xE404, symBinAddr: 0x10001208C, symSize: 0x28 }
  - { offsetInCU: 0x2646B, offset: 0x2646B, size: 0x8, addend: 0x0, symName: __ZNKSt3__117__compressed_pairIP32MathOperationsInTightForLoopTaskRNS_9allocatorIS1_EEE5firstB8ue170006Ev, symObjAddr: 0xE42C, symBinAddr: 0x1000120B4, symSize: 0x24 }
  - { offsetInCU: 0x26490, offset: 0x26490, size: 0x8, addend: 0x0, symName: __ZNSt3__16vectorIPfNS_9allocatorIS1_EEEC2B8ue170006Ev, symObjAddr: 0xE450, symBinAddr: 0x1000120D8, symSize: 0x4C }
  - { offsetInCU: 0x264B9, offset: 0x264B9, size: 0x8, addend: 0x0, symName: __ZNSt3__117__compressed_pairIPPfNS_9allocatorIS1_EEEC1B8ue170006IDnNS_18__default_init_tagEEEOT_OT0_, symObjAddr: 0xE49C, symBinAddr: 0x100012124, symSize: 0x3C }
  - { offsetInCU: 0x26510, offset: 0x26510, size: 0x8, addend: 0x0, symName: __ZNSt3__117__compressed_pairIPPfNS_9allocatorIS1_EEEC2B8ue170006IDnNS_18__default_init_tagEEEOT_OT0_, symObjAddr: 0xE4D8, symBinAddr: 0x100012160, symSize: 0x40 }
  - { offsetInCU: 0x26567, offset: 0x26567, size: 0x8, addend: 0x0, symName: __ZNSt3__122__compressed_pair_elemIPPfLi0ELb0EEC2B8ue170006IDnvEEOT_, symObjAddr: 0xE518, symBinAddr: 0x1000121A0, symSize: 0x1C }
  - { offsetInCU: 0x265A8, offset: 0x265A8, size: 0x8, addend: 0x0, symName: __ZNSt3__122__compressed_pair_elemINS_9allocatorIPfEELi1ELb1EEC2B8ue170006ENS_18__default_init_tagE, symObjAddr: 0xE534, symBinAddr: 0x1000121BC, symSize: 0x2C }
  - { offsetInCU: 0x265DC, offset: 0x265DC, size: 0x8, addend: 0x0, symName: __ZNSt3__19allocatorIPfEC2B8ue170006Ev, symObjAddr: 0xE560, symBinAddr: 0x1000121E8, symSize: 0x2C }
  - { offsetInCU: 0x26605, offset: 0x26605, size: 0x8, addend: 0x0, symName: __ZNSt3__116__non_trivial_ifILb1ENS_9allocatorIPfEEEC2B8ue170006Ev, symObjAddr: 0xE58C, symBinAddr: 0x100012214, symSize: 0x14 }
  - { offsetInCU: 0x2662E, offset: 0x2662E, size: 0x8, addend: 0x0, symName: __ZNSt3__16vectorIPfNS_9allocatorIS1_EEED2B8ue170006Ev, symObjAddr: 0xE5A0, symBinAddr: 0x100012228, symSize: 0x44 }
  - { offsetInCU: 0x26657, offset: 0x26657, size: 0x8, addend: 0x0, symName: __ZNSt3__16vectorIPfNS_9allocatorIS1_EEE16__destroy_vectorC1B8ue170006ERS4_, symObjAddr: 0xE5E4, symBinAddr: 0x10001226C, symSize: 0x34 }
  - { offsetInCU: 0x2668E, offset: 0x2668E, size: 0x8, addend: 0x0, symName: __ZNSt3__16vectorIPfNS_9allocatorIS1_EEE16__destroy_vectorclB8ue170006Ev, symObjAddr: 0xE618, symBinAddr: 0x1000122A0, symSize: 0x90 }
  - { offsetInCU: 0x266B3, offset: 0x266B3, size: 0x8, addend: 0x0, symName: __ZNSt3__16vectorIPfNS_9allocatorIS1_EEE16__destroy_vectorC2B8ue170006ERS4_, symObjAddr: 0xE6A8, symBinAddr: 0x100012330, symSize: 0x20 }
  - { offsetInCU: 0x266EA, offset: 0x266EA, size: 0x8, addend: 0x0, symName: __ZNSt3__16vectorIPfNS_9allocatorIS1_EEE7__clearB8ue170006Ev, symObjAddr: 0xE6C8, symBinAddr: 0x100012350, symSize: 0x28 }
  - { offsetInCU: 0x2670E, offset: 0x2670E, size: 0x8, addend: 0x0, symName: __ZNKSt3__16vectorIPfNS_9allocatorIS1_EEE17__annotate_deleteB8ue170006Ev, symObjAddr: 0xE6F0, symBinAddr: 0x100012378, symSize: 0xB8 }
  - { offsetInCU: 0x26732, offset: 0x26732, size: 0x8, addend: 0x0, symName: __ZNSt3__116allocator_traitsINS_9allocatorIPfEEE10deallocateB8ue170006ERS3_PS2_m, symObjAddr: 0xE7A8, symBinAddr: 0x100012430, symSize: 0x34 }
  - { offsetInCU: 0x26773, offset: 0x26773, size: 0x8, addend: 0x0, symName: __ZNSt3__16vectorIPfNS_9allocatorIS1_EEE7__allocB8ue170006Ev, symObjAddr: 0xE7DC, symBinAddr: 0x100012464, symSize: 0x28 }
  - { offsetInCU: 0x26797, offset: 0x26797, size: 0x8, addend: 0x0, symName: __ZNKSt3__16vectorIPfNS_9allocatorIS1_EEE8capacityB8ue170006Ev, symObjAddr: 0xE804, symBinAddr: 0x10001248C, symSize: 0x40 }
  - { offsetInCU: 0x267BB, offset: 0x267BB, size: 0x8, addend: 0x0, symName: __ZNSt3__16vectorIPfNS_9allocatorIS1_EEE22__base_destruct_at_endB8ue170006EPS1_, symObjAddr: 0xE844, symBinAddr: 0x1000124CC, symSize: 0x8C }
  - { offsetInCU: 0x267FD, offset: 0x267FD, size: 0x8, addend: 0x0, symName: __ZNSt3__116allocator_traitsINS_9allocatorIPfEEE7destroyB8ue170006IS2_vEEvRS3_PT_, symObjAddr: 0xE8D0, symBinAddr: 0x100012558, symSize: 0x2C }
  - { offsetInCU: 0x2683A, offset: 0x2683A, size: 0x8, addend: 0x0, symName: __ZNSt3__19allocatorIPfE7destroyB8ue170006EPS1_, symObjAddr: 0xE910, symBinAddr: 0x100012598, symSize: 0x14 }
  - { offsetInCU: 0x2686D, offset: 0x2686D, size: 0x8, addend: 0x0, symName: __ZNKSt3__16vectorIPfNS_9allocatorIS1_EEE31__annotate_contiguous_containerB8ue170006EPKvS6_S6_S6_, symObjAddr: 0xE924, symBinAddr: 0x1000125AC, symSize: 0x20 }
  - { offsetInCU: 0x268BD, offset: 0x268BD, size: 0x8, addend: 0x0, symName: __ZNKSt3__16vectorIPfNS_9allocatorIS1_EEE4dataB8ue170006Ev, symObjAddr: 0xE944, symBinAddr: 0x1000125CC, symSize: 0x28 }
  - { offsetInCU: 0x268E2, offset: 0x268E2, size: 0x8, addend: 0x0, symName: __ZNKSt3__16vectorIPfNS_9allocatorIS1_EEE4sizeB8ue170006Ev, symObjAddr: 0xE96C, symBinAddr: 0x1000125F4, symSize: 0x28 }
  - { offsetInCU: 0x26906, offset: 0x26906, size: 0x8, addend: 0x0, symName: __ZNSt3__19allocatorIPfE10deallocateB8ue170006EPS1_m, symObjAddr: 0xE994, symBinAddr: 0x10001261C, symSize: 0x40 }
  - { offsetInCU: 0x26946, offset: 0x26946, size: 0x8, addend: 0x0, symName: __ZNSt3__117__compressed_pairIPPfNS_9allocatorIS1_EEE6secondB8ue170006Ev, symObjAddr: 0xE9D4, symBinAddr: 0x10001265C, symSize: 0x24 }
  - { offsetInCU: 0x2696B, offset: 0x2696B, size: 0x8, addend: 0x0, symName: __ZNSt3__122__compressed_pair_elemINS_9allocatorIPfEELi1ELb1EE5__getB8ue170006Ev, symObjAddr: 0xE9F8, symBinAddr: 0x100012680, symSize: 0x14 }
  - { offsetInCU: 0x2698F, offset: 0x2698F, size: 0x8, addend: 0x0, symName: __ZNKSt3__16vectorIPfNS_9allocatorIS1_EEE9__end_capB8ue170006Ev, symObjAddr: 0xEA0C, symBinAddr: 0x100012694, symSize: 0x28 }
  - { offsetInCU: 0x269B3, offset: 0x269B3, size: 0x8, addend: 0x0, symName: __ZNKSt3__117__compressed_pairIPPfNS_9allocatorIS1_EEE5firstB8ue170006Ev, symObjAddr: 0xEA34, symBinAddr: 0x1000126BC, symSize: 0x24 }
  - { offsetInCU: 0x269D8, offset: 0x269D8, size: 0x8, addend: 0x0, symName: __ZNKSt3__122__compressed_pair_elemIPPfLi0ELb0EE5__getB8ue170006Ev, symObjAddr: 0xEA58, symBinAddr: 0x1000126E0, symSize: 0x14 }
  - { offsetInCU: 0x269FC, offset: 0x269FC, size: 0x8, addend: 0x0, symName: __ZNSt3__16vectorIPfNS_9allocatorIS1_EEE9__end_capB8ue170006Ev, symObjAddr: 0xEA6C, symBinAddr: 0x1000126F4, symSize: 0x28 }
  - { offsetInCU: 0x26A20, offset: 0x26A20, size: 0x8, addend: 0x0, symName: __ZNSt3__16vectorIPfNS_9allocatorIS1_EEE22__construct_one_at_endB8ue170006IJRKS1_EEEvDpOT_, symObjAddr: 0xEA94, symBinAddr: 0x10001271C, symSize: 0x90 }
  - { offsetInCU: 0x26A6D, offset: 0x26A6D, size: 0x8, addend: 0x0, symName: __ZNSt3__16vectorIPfNS_9allocatorIS1_EEE21__push_back_slow_pathIRKS1_EEvOT_, symObjAddr: 0xEB24, symBinAddr: 0x1000127AC, symSize: 0xD8 }
  - { offsetInCU: 0x26AC9, offset: 0x26AC9, size: 0x8, addend: 0x0, symName: __ZNSt3__117__compressed_pairIPPfNS_9allocatorIS1_EEE5firstB8ue170006Ev, symObjAddr: 0xEBFC, symBinAddr: 0x100012884, symSize: 0x24 }
  - { offsetInCU: 0x26AEE, offset: 0x26AEE, size: 0x8, addend: 0x0, symName: __ZNSt3__122__compressed_pair_elemIPPfLi0ELb0EE5__getB8ue170006Ev, symObjAddr: 0xEC20, symBinAddr: 0x1000128A8, symSize: 0x14 }
  - { offsetInCU: 0x26B2C, offset: 0x26B2C, size: 0x8, addend: 0x0, symName: __ZNSt3__16vectorIPfNS_9allocatorIS1_EEE21_ConstructTransactionC1B8ue170006ERS4_m, symObjAddr: 0xEC34, symBinAddr: 0x1000128BC, symSize: 0x3C }
  - { offsetInCU: 0x26B72, offset: 0x26B72, size: 0x8, addend: 0x0, symName: __ZNSt3__116allocator_traitsINS_9allocatorIPfEEE9constructB8ue170006IS2_JRKS2_EvEEvRS3_PT_DpOT0_, symObjAddr: 0xEC70, symBinAddr: 0x1000128F8, symSize: 0x34 }
  - { offsetInCU: 0x26BC9, offset: 0x26BC9, size: 0x8, addend: 0x0, symName: __ZNSt3__16vectorIPfNS_9allocatorIS1_EEE21_ConstructTransactionD1B8ue170006Ev, symObjAddr: 0xECA4, symBinAddr: 0x10001292C, symSize: 0x2C }
  - { offsetInCU: 0x26BF2, offset: 0x26BF2, size: 0x8, addend: 0x0, symName: __ZNSt3__16vectorIPfNS_9allocatorIS1_EEE21_ConstructTransactionC2B8ue170006ERS4_m, symObjAddr: 0xECD0, symBinAddr: 0x100012958, symSize: 0x44 }
  - { offsetInCU: 0x26C39, offset: 0x26C39, size: 0x8, addend: 0x0, symName: __ZNSt3__19allocatorIPfE9constructB8ue170006IS1_JRKS1_EEEvPT_DpOT0_, symObjAddr: 0xED14, symBinAddr: 0x10001299C, symSize: 0x28 }
  - { offsetInCU: 0x26C8E, offset: 0x26C8E, size: 0x8, addend: 0x0, symName: __ZNSt3__16vectorIPfNS_9allocatorIS1_EEE21_ConstructTransactionD2B8ue170006Ev, symObjAddr: 0xED3C, symBinAddr: 0x1000129C4, symSize: 0x20 }
  - { offsetInCU: 0x26CB6, offset: 0x26CB6, size: 0x8, addend: 0x0, symName: __ZNKSt3__16vectorIPfNS_9allocatorIS1_EEE11__recommendB8ue170006Em, symObjAddr: 0xED5C, symBinAddr: 0x1000129E4, symSize: 0xB4 }
  - { offsetInCU: 0x26D0A, offset: 0x26D0A, size: 0x8, addend: 0x0, symName: __ZNSt3__114__split_bufferIPfRNS_9allocatorIS1_EEEC1EmmS4_, symObjAddr: 0xEE10, symBinAddr: 0x100012A98, symSize: 0x44 }
  - { offsetInCU: 0x26D5F, offset: 0x26D5F, size: 0x8, addend: 0x0, symName: __ZNSt3__114__split_bufferIPfRNS_9allocatorIS1_EEED1Ev, symObjAddr: 0xEF64, symBinAddr: 0x100012BEC, symSize: 0x2C }
  - { offsetInCU: 0x26D89, offset: 0x26D89, size: 0x8, addend: 0x0, symName: __ZNKSt3__16vectorIPfNS_9allocatorIS1_EEE8max_sizeEv, symObjAddr: 0xEF90, symBinAddr: 0x100012C18, symSize: 0x60 }
  - { offsetInCU: 0x26DAF, offset: 0x26DAF, size: 0x8, addend: 0x0, symName: __ZNKSt3__16vectorIPfNS_9allocatorIS1_EEE20__throw_length_errorB8ue170006Ev, symObjAddr: 0xEFF0, symBinAddr: 0x100012C78, symSize: 0x1C }
  - { offsetInCU: 0x26DDD, offset: 0x26DDD, size: 0x8, addend: 0x0, symName: __ZNSt3__116allocator_traitsINS_9allocatorIPfEEE8max_sizeB8ue170006IS3_vEEmRKS3_, symObjAddr: 0xF00C, symBinAddr: 0x100012C94, symSize: 0x24 }
  - { offsetInCU: 0x26E0A, offset: 0x26E0A, size: 0x8, addend: 0x0, symName: __ZNKSt3__16vectorIPfNS_9allocatorIS1_EEE7__allocB8ue170006Ev, symObjAddr: 0xF030, symBinAddr: 0x100012CB8, symSize: 0x28 }
  - { offsetInCU: 0x26E2F, offset: 0x26E2F, size: 0x8, addend: 0x0, symName: __ZNKSt3__19allocatorIPfE8max_sizeB8ue170006Ev, symObjAddr: 0xF058, symBinAddr: 0x100012CE0, symSize: 0x14 }
  - { offsetInCU: 0x26E53, offset: 0x26E53, size: 0x8, addend: 0x0, symName: __ZNKSt3__117__compressed_pairIPPfNS_9allocatorIS1_EEE6secondB8ue170006Ev, symObjAddr: 0xF06C, symBinAddr: 0x100012CF4, symSize: 0x24 }
  - { offsetInCU: 0x26E78, offset: 0x26E78, size: 0x8, addend: 0x0, symName: __ZNKSt3__122__compressed_pair_elemINS_9allocatorIPfEELi1ELb1EE5__getB8ue170006Ev, symObjAddr: 0xF090, symBinAddr: 0x100012D18, symSize: 0x14 }
  - { offsetInCU: 0x26E9D, offset: 0x26E9D, size: 0x8, addend: 0x0, symName: __ZNSt3__114__split_bufferIPfRNS_9allocatorIS1_EEEC2EmmS4_, symObjAddr: 0xF0A4, symBinAddr: 0x100012D2C, symSize: 0xD4 }
  - { offsetInCU: 0x26F0F, offset: 0x26F0F, size: 0x8, addend: 0x0, symName: __ZNSt3__117__compressed_pairIPPfRNS_9allocatorIS1_EEEC1B8ue170006IDnS5_EEOT_OT0_, symObjAddr: 0xF178, symBinAddr: 0x100012E00, symSize: 0x3C }
  - { offsetInCU: 0x26F65, offset: 0x26F65, size: 0x8, addend: 0x0, symName: __ZNSt3__114__split_bufferIPfRNS_9allocatorIS1_EEE7__allocB8ue170006Ev, symObjAddr: 0xF1F4, symBinAddr: 0x100012E7C, symSize: 0x28 }
  - { offsetInCU: 0x26F89, offset: 0x26F89, size: 0x8, addend: 0x0, symName: __ZNSt3__114__split_bufferIPfRNS_9allocatorIS1_EEE9__end_capB8ue170006Ev, symObjAddr: 0xF21C, symBinAddr: 0x100012EA4, symSize: 0x28 }
  - { offsetInCU: 0x26FAE, offset: 0x26FAE, size: 0x8, addend: 0x0, symName: __ZNSt3__117__compressed_pairIPPfRNS_9allocatorIS1_EEEC2B8ue170006IDnS5_EEOT_OT0_, symObjAddr: 0xF244, symBinAddr: 0x100012ECC, symSize: 0x48 }
  - { offsetInCU: 0x27005, offset: 0x27005, size: 0x8, addend: 0x0, symName: __ZNSt3__122__compressed_pair_elemIRNS_9allocatorIPfEELi1ELb0EEC2B8ue170006IS4_vEEOT_, symObjAddr: 0xF28C, symBinAddr: 0x100012F14, symSize: 0x20 }
  - { offsetInCU: 0x27045, offset: 0x27045, size: 0x8, addend: 0x0, symName: __ZNSt3__19allocatorIPfE8allocateB8ue170006Em, symObjAddr: 0xF2AC, symBinAddr: 0x100012F34, symSize: 0x58 }
  - { offsetInCU: 0x27077, offset: 0x27077, size: 0x8, addend: 0x0, symName: __ZNSt3__117__compressed_pairIPPfRNS_9allocatorIS1_EEE6secondB8ue170006Ev, symObjAddr: 0xF304, symBinAddr: 0x100012F8C, symSize: 0x28 }
  - { offsetInCU: 0x2709C, offset: 0x2709C, size: 0x8, addend: 0x0, symName: __ZNSt3__122__compressed_pair_elemIRNS_9allocatorIPfEELi1ELb0EE5__getB8ue170006Ev, symObjAddr: 0xF32C, symBinAddr: 0x100012FB4, symSize: 0x18 }
  - { offsetInCU: 0x270C0, offset: 0x270C0, size: 0x8, addend: 0x0, symName: __ZNSt3__117__compressed_pairIPPfRNS_9allocatorIS1_EEE5firstB8ue170006Ev, symObjAddr: 0xF344, symBinAddr: 0x100012FCC, symSize: 0x24 }
  - { offsetInCU: 0x270E5, offset: 0x270E5, size: 0x8, addend: 0x0, symName: __ZNSt3__116reverse_iteratorIPPfEC1B8ue170006ES2_, symObjAddr: 0xF3E0, symBinAddr: 0x100013068, symSize: 0x34 }
  - { offsetInCU: 0x2711C, offset: 0x2711C, size: 0x8, addend: 0x0, symName: __ZNKSt3__116reverse_iteratorIPPfE4baseB8ue170006Ev, symObjAddr: 0xF414, symBinAddr: 0x10001309C, symSize: 0x18 }
  - { offsetInCU: 0x27140, offset: 0x27140, size: 0x8, addend: 0x0, symName: __ZNKSt3__16vectorIPfNS_9allocatorIS1_EEE14__annotate_newB8ue170006Em, symObjAddr: 0xF468, symBinAddr: 0x1000130F0, symSize: 0xAC }
  - { offsetInCU: 0x2718C, offset: 0x2718C, size: 0x8, addend: 0x0, symName: __ZNKSt3__111__move_loopINS_17_ClassicAlgPolicyEEclB8ue170006INS_16reverse_iteratorIPPfEES7_S7_EENS_4pairIT_T1_EES9_T0_SA_, symObjAddr: 0xF804, symBinAddr: 0x10001348C, symSize: 0xA0 }
  - { offsetInCU: 0x271FA, offset: 0x271FA, size: 0x8, addend: 0x0, symName: __ZNSt3__18_IterOpsINS_17_ClassicAlgPolicyEE11__iter_moveB8ue170006IRNS_16reverse_iteratorIPPfEEEENS_9enable_ifIXsr12is_referenceIDTdeclsr3stdE7declvalIRT_EEEEE5valueEDTclsr3stdE4movedeclsr3stdE7declvalISB_EEEEE4typeEOSA_, symObjAddr: 0xFA38, symBinAddr: 0x1000136C0, symSize: 0x28 }
  - { offsetInCU: 0x27226, offset: 0x27226, size: 0x8, addend: 0x0, symName: __ZNKSt3__116reverse_iteratorIPPfEdeB8ue170006Ev, symObjAddr: 0xFA60, symBinAddr: 0x1000136E8, symSize: 0x28 }
  - { offsetInCU: 0x27259, offset: 0x27259, size: 0x8, addend: 0x0, symName: __ZNSt3__116reverse_iteratorIPPfEppB8ue170006Ev, symObjAddr: 0xFA88, symBinAddr: 0x100013710, symSize: 0x20 }
  - { offsetInCU: 0x2727E, offset: 0x2727E, size: 0x8, addend: 0x0, symName: __ZNSt3__18_IterOpsINS_17_ClassicAlgPolicyEE25__validate_iter_referenceB8ue170006IRNS_16reverse_iteratorIPPfEEEEvv, symObjAddr: 0xFAA8, symBinAddr: 0x100013730, symSize: 0x4 }
  - { offsetInCU: 0x2729C, offset: 0x2729C, size: 0x8, addend: 0x0, symName: __ZNSt3__118__unwrap_iter_implINS_16reverse_iteratorIPPfEELb0EE8__unwrapB8ue170006ES4_, symObjAddr: 0xFAAC, symBinAddr: 0x100013734, symSize: 0x24 }
  - { offsetInCU: 0x272C4, offset: 0x272C4, size: 0x8, addend: 0x0, symName: __ZNSt3__14pairINS_16reverse_iteratorIPPfEES4_EC1B8ue170006IS4_S4_LPv0EEEOT_OT0_, symObjAddr: 0xFAD0, symBinAddr: 0x100013758, symSize: 0x3C }
  - { offsetInCU: 0x27321, offset: 0x27321, size: 0x8, addend: 0x0, symName: __ZNSt3__14pairINS_16reverse_iteratorIPPfEES4_EC2B8ue170006IS4_S4_LPv0EEEOT_OT0_, symObjAddr: 0xFB0C, symBinAddr: 0x100013794, symSize: 0x34 }
  - { offsetInCU: 0x2737E, offset: 0x2737E, size: 0x8, addend: 0x0, symName: __ZNSt3__118__unwrap_iter_implINS_16reverse_iteratorIPPfEELb0EE8__rewrapB8ue170006ES4_S4_, symObjAddr: 0xFB40, symBinAddr: 0x1000137C8, symSize: 0x2C }
  - { offsetInCU: 0x273AC, offset: 0x273AC, size: 0x8, addend: 0x0, symName: __ZNSt3__116reverse_iteratorIPPfEC2B8ue170006ES2_, symObjAddr: 0xFB6C, symBinAddr: 0x1000137F4, symSize: 0x28 }
  - { offsetInCU: 0x273E3, offset: 0x273E3, size: 0x8, addend: 0x0, symName: __ZNSt3__114__split_bufferIPfRNS_9allocatorIS1_EEED2Ev, symObjAddr: 0xFB94, symBinAddr: 0x10001381C, symSize: 0x8C }
  - { offsetInCU: 0x2740D, offset: 0x2740D, size: 0x8, addend: 0x0, symName: __ZNSt3__114__split_bufferIPfRNS_9allocatorIS1_EEE5clearB8ue170006Ev, symObjAddr: 0xFC20, symBinAddr: 0x1000138A8, symSize: 0x28 }
  - { offsetInCU: 0x27431, offset: 0x27431, size: 0x8, addend: 0x0, symName: __ZNKSt3__114__split_bufferIPfRNS_9allocatorIS1_EEE8capacityB8ue170006Ev, symObjAddr: 0xFC48, symBinAddr: 0x1000138D0, symSize: 0x40 }
  - { offsetInCU: 0x27455, offset: 0x27455, size: 0x8, addend: 0x0, symName: __ZNSt3__114__split_bufferIPfRNS_9allocatorIS1_EEE17__destruct_at_endB8ue170006EPS1_, symObjAddr: 0xFC88, symBinAddr: 0x100013910, symSize: 0x2C }
  - { offsetInCU: 0x27487, offset: 0x27487, size: 0x8, addend: 0x0, symName: __ZNSt3__114__split_bufferIPfRNS_9allocatorIS1_EEE17__destruct_at_endB8ue170006EPS1_NS_17integral_constantIbLb0EEE, symObjAddr: 0xFCB4, symBinAddr: 0x10001393C, symSize: 0x80 }
  - { offsetInCU: 0x274C6, offset: 0x274C6, size: 0x8, addend: 0x0, symName: __ZNKSt3__114__split_bufferIPfRNS_9allocatorIS1_EEE9__end_capB8ue170006Ev, symObjAddr: 0xFD34, symBinAddr: 0x1000139BC, symSize: 0x28 }
  - { offsetInCU: 0x274EA, offset: 0x274EA, size: 0x8, addend: 0x0, symName: __ZNKSt3__117__compressed_pairIPPfRNS_9allocatorIS1_EEE5firstB8ue170006Ev, symObjAddr: 0xFD5C, symBinAddr: 0x1000139E4, symSize: 0x24 }
  - { offsetInCU: 0x2750F, offset: 0x2750F, size: 0x8, addend: 0x0, symName: __ZNSt3__16vectorI10ReduceTaskNS_9allocatorIS1_EEEC2B8ue170006Ev, symObjAddr: 0xFD80, symBinAddr: 0x100013A08, symSize: 0x4C }
  - { offsetInCU: 0x27538, offset: 0x27538, size: 0x8, addend: 0x0, symName: __ZNSt3__117__compressed_pairIP10ReduceTaskNS_9allocatorIS1_EEEC1B8ue170006IDnNS_18__default_init_tagEEEOT_OT0_, symObjAddr: 0xFDCC, symBinAddr: 0x100013A54, symSize: 0x3C }
  - { offsetInCU: 0x2758F, offset: 0x2758F, size: 0x8, addend: 0x0, symName: __ZNSt3__117__compressed_pairIP10ReduceTaskNS_9allocatorIS1_EEEC2B8ue170006IDnNS_18__default_init_tagEEEOT_OT0_, symObjAddr: 0xFE08, symBinAddr: 0x100013A90, symSize: 0x40 }
  - { offsetInCU: 0x275E6, offset: 0x275E6, size: 0x8, addend: 0x0, symName: __ZNSt3__122__compressed_pair_elemIP10ReduceTaskLi0ELb0EEC2B8ue170006IDnvEEOT_, symObjAddr: 0xFE48, symBinAddr: 0x100013AD0, symSize: 0x1C }
  - { offsetInCU: 0x27627, offset: 0x27627, size: 0x8, addend: 0x0, symName: __ZNSt3__122__compressed_pair_elemINS_9allocatorI10ReduceTaskEELi1ELb1EEC2B8ue170006ENS_18__default_init_tagE, symObjAddr: 0xFE64, symBinAddr: 0x100013AEC, symSize: 0x2C }
  - { offsetInCU: 0x2765B, offset: 0x2765B, size: 0x8, addend: 0x0, symName: __ZNSt3__19allocatorI10ReduceTaskEC2B8ue170006Ev, symObjAddr: 0xFE90, symBinAddr: 0x100013B18, symSize: 0x2C }
  - { offsetInCU: 0x27684, offset: 0x27684, size: 0x8, addend: 0x0, symName: __ZNSt3__116__non_trivial_ifILb1ENS_9allocatorI10ReduceTaskEEEC2B8ue170006Ev, symObjAddr: 0xFEBC, symBinAddr: 0x100013B44, symSize: 0x14 }
  - { offsetInCU: 0x276AD, offset: 0x276AD, size: 0x8, addend: 0x0, symName: __ZNSt3__16vectorI10ReduceTaskNS_9allocatorIS1_EEED2B8ue170006Ev, symObjAddr: 0xFED0, symBinAddr: 0x100013B58, symSize: 0x44 }
  - { offsetInCU: 0x276D6, offset: 0x276D6, size: 0x8, addend: 0x0, symName: __ZNSt3__16vectorI10ReduceTaskNS_9allocatorIS1_EEE16__destroy_vectorC1B8ue170006ERS4_, symObjAddr: 0xFF14, symBinAddr: 0x100013B9C, symSize: 0x34 }
  - { offsetInCU: 0x2770D, offset: 0x2770D, size: 0x8, addend: 0x0, symName: __ZNSt3__16vectorI10ReduceTaskNS_9allocatorIS1_EEE16__destroy_vectorclB8ue170006Ev, symObjAddr: 0xFF48, symBinAddr: 0x100013BD0, symSize: 0x90 }
  - { offsetInCU: 0x27732, offset: 0x27732, size: 0x8, addend: 0x0, symName: __ZNSt3__16vectorI10ReduceTaskNS_9allocatorIS1_EEE16__destroy_vectorC2B8ue170006ERS4_, symObjAddr: 0xFFD8, symBinAddr: 0x100013C60, symSize: 0x20 }
  - { offsetInCU: 0x27769, offset: 0x27769, size: 0x8, addend: 0x0, symName: __ZNSt3__16vectorI10ReduceTaskNS_9allocatorIS1_EEE7__clearB8ue170006Ev, symObjAddr: 0xFFF8, symBinAddr: 0x100013C80, symSize: 0x28 }
  - { offsetInCU: 0x2778D, offset: 0x2778D, size: 0x8, addend: 0x0, symName: __ZNKSt3__16vectorI10ReduceTaskNS_9allocatorIS1_EEE17__annotate_deleteB8ue170006Ev, symObjAddr: 0x10020, symBinAddr: 0x100013CA8, symSize: 0xB8 }
  - { offsetInCU: 0x277B1, offset: 0x277B1, size: 0x8, addend: 0x0, symName: __ZNSt3__116allocator_traitsINS_9allocatorI10ReduceTaskEEE10deallocateB8ue170006ERS3_PS2_m, symObjAddr: 0x100D8, symBinAddr: 0x100013D60, symSize: 0x34 }
  - { offsetInCU: 0x277F2, offset: 0x277F2, size: 0x8, addend: 0x0, symName: __ZNSt3__16vectorI10ReduceTaskNS_9allocatorIS1_EEE7__allocB8ue170006Ev, symObjAddr: 0x1010C, symBinAddr: 0x100013D94, symSize: 0x28 }
  - { offsetInCU: 0x27816, offset: 0x27816, size: 0x8, addend: 0x0, symName: __ZNKSt3__16vectorI10ReduceTaskNS_9allocatorIS1_EEE8capacityB8ue170006Ev, symObjAddr: 0x10134, symBinAddr: 0x100013DBC, symSize: 0x40 }
  - { offsetInCU: 0x2783A, offset: 0x2783A, size: 0x8, addend: 0x0, symName: __ZNSt3__16vectorI10ReduceTaskNS_9allocatorIS1_EEE22__base_destruct_at_endB8ue170006EPS1_, symObjAddr: 0x10174, symBinAddr: 0x100013DFC, symSize: 0x8C }
  - { offsetInCU: 0x2787C, offset: 0x2787C, size: 0x8, addend: 0x0, symName: __ZNSt3__116allocator_traitsINS_9allocatorI10ReduceTaskEEE7destroyB8ue170006IS2_vEEvRS3_PT_, symObjAddr: 0x10200, symBinAddr: 0x100013E88, symSize: 0x2C }
  - { offsetInCU: 0x278B8, offset: 0x278B8, size: 0x8, addend: 0x0, symName: __ZNSt3__19allocatorI10ReduceTaskE7destroyB8ue170006EPS1_, symObjAddr: 0x10240, symBinAddr: 0x100013EC8, symSize: 0x30 }
  - { offsetInCU: 0x278EB, offset: 0x278EB, size: 0x8, addend: 0x0, symName: __ZNKSt3__16vectorI10ReduceTaskNS_9allocatorIS1_EEE31__annotate_contiguous_containerB8ue170006EPKvS6_S6_S6_, symObjAddr: 0x10270, symBinAddr: 0x100013EF8, symSize: 0x20 }
  - { offsetInCU: 0x2793B, offset: 0x2793B, size: 0x8, addend: 0x0, symName: __ZNKSt3__16vectorI10ReduceTaskNS_9allocatorIS1_EEE4dataB8ue170006Ev, symObjAddr: 0x10290, symBinAddr: 0x100013F18, symSize: 0x28 }
  - { offsetInCU: 0x2795F, offset: 0x2795F, size: 0x8, addend: 0x0, symName: __ZNSt3__19allocatorI10ReduceTaskE10deallocateB8ue170006EPS1_m, symObjAddr: 0x102B8, symBinAddr: 0x100013F40, symSize: 0x40 }
  - { offsetInCU: 0x2799F, offset: 0x2799F, size: 0x8, addend: 0x0, symName: __ZNSt3__117__compressed_pairIP10ReduceTaskNS_9allocatorIS1_EEE6secondB8ue170006Ev, symObjAddr: 0x102F8, symBinAddr: 0x100013F80, symSize: 0x24 }
  - { offsetInCU: 0x279C4, offset: 0x279C4, size: 0x8, addend: 0x0, symName: __ZNSt3__122__compressed_pair_elemINS_9allocatorI10ReduceTaskEELi1ELb1EE5__getB8ue170006Ev, symObjAddr: 0x1031C, symBinAddr: 0x100013FA4, symSize: 0x14 }
  - { offsetInCU: 0x279E8, offset: 0x279E8, size: 0x8, addend: 0x0, symName: __ZNKSt3__16vectorI10ReduceTaskNS_9allocatorIS1_EEE9__end_capB8ue170006Ev, symObjAddr: 0x10330, symBinAddr: 0x100013FB8, symSize: 0x28 }
  - { offsetInCU: 0x27A0C, offset: 0x27A0C, size: 0x8, addend: 0x0, symName: __ZNKSt3__117__compressed_pairIP10ReduceTaskNS_9allocatorIS1_EEE5firstB8ue170006Ev, symObjAddr: 0x10358, symBinAddr: 0x100013FE0, symSize: 0x24 }
  - { offsetInCU: 0x27A31, offset: 0x27A31, size: 0x8, addend: 0x0, symName: __ZNKSt3__122__compressed_pair_elemIP10ReduceTaskLi0ELb0EE5__getB8ue170006Ev, symObjAddr: 0x1037C, symBinAddr: 0x100014004, symSize: 0x14 }
  - { offsetInCU: 0x27A55, offset: 0x27A55, size: 0x8, addend: 0x0, symName: __ZNSt3__16vectorI10ReduceTaskNS_9allocatorIS1_EEE9__end_capB8ue170006Ev, symObjAddr: 0x10390, symBinAddr: 0x100014018, symSize: 0x28 }
  - { offsetInCU: 0x27A79, offset: 0x27A79, size: 0x8, addend: 0x0, symName: __ZNSt3__16vectorI10ReduceTaskNS_9allocatorIS1_EEE22__construct_one_at_endB8ue170006IJRS1_EEEvDpOT_, symObjAddr: 0x103B8, symBinAddr: 0x100014040, symSize: 0x90 }
  - { offsetInCU: 0x27AC6, offset: 0x27AC6, size: 0x8, addend: 0x0, symName: __ZNSt3__16vectorI10ReduceTaskNS_9allocatorIS1_EEE24__emplace_back_slow_pathIJRS1_EEEvDpOT_, symObjAddr: 0x10448, symBinAddr: 0x1000140D0, symSize: 0xD8 }
  - { offsetInCU: 0x27B24, offset: 0x27B24, size: 0x8, addend: 0x0, symName: __ZNSt3__117__compressed_pairIP10ReduceTaskNS_9allocatorIS1_EEE5firstB8ue170006Ev, symObjAddr: 0x10520, symBinAddr: 0x1000141A8, symSize: 0x24 }
  - { offsetInCU: 0x27B49, offset: 0x27B49, size: 0x8, addend: 0x0, symName: __ZNSt3__122__compressed_pair_elemIP10ReduceTaskLi0ELb0EE5__getB8ue170006Ev, symObjAddr: 0x10544, symBinAddr: 0x1000141CC, symSize: 0x14 }
  - { offsetInCU: 0x27B87, offset: 0x27B87, size: 0x8, addend: 0x0, symName: __ZNSt3__16vectorI10ReduceTaskNS_9allocatorIS1_EEE21_ConstructTransactionC1B8ue170006ERS4_m, symObjAddr: 0x10558, symBinAddr: 0x1000141E0, symSize: 0x3C }
  - { offsetInCU: 0x27BCD, offset: 0x27BCD, size: 0x8, addend: 0x0, symName: __ZNSt3__116allocator_traitsINS_9allocatorI10ReduceTaskEEE9constructB8ue170006IS2_JRS2_EvEEvRS3_PT_DpOT0_, symObjAddr: 0x10594, symBinAddr: 0x10001421C, symSize: 0x34 }
  - { offsetInCU: 0x27C24, offset: 0x27C24, size: 0x8, addend: 0x0, symName: __ZNSt3__16vectorI10ReduceTaskNS_9allocatorIS1_EEE21_ConstructTransactionD1B8ue170006Ev, symObjAddr: 0x105C8, symBinAddr: 0x100014250, symSize: 0x2C }
  - { offsetInCU: 0x27C4D, offset: 0x27C4D, size: 0x8, addend: 0x0, symName: __ZNSt3__16vectorI10ReduceTaskNS_9allocatorIS1_EEE21_ConstructTransactionC2B8ue170006ERS4_m, symObjAddr: 0x105F4, symBinAddr: 0x10001427C, symSize: 0x44 }
  - { offsetInCU: 0x27C93, offset: 0x27C93, size: 0x8, addend: 0x0, symName: __ZNSt3__19allocatorI10ReduceTaskE9constructB8ue170006IS1_JRS1_EEEvPT_DpOT0_, symObjAddr: 0x10638, symBinAddr: 0x1000142C0, symSize: 0x30 }
  - { offsetInCU: 0x27CE8, offset: 0x27CE8, size: 0x8, addend: 0x0, symName: __ZN10ReduceTaskC1ERKS_, symObjAddr: 0x10668, symBinAddr: 0x1000142F0, symSize: 0x34 }
  - { offsetInCU: 0x27D1D, offset: 0x27D1D, size: 0x8, addend: 0x0, symName: __ZN10ReduceTaskC2ERKS_, symObjAddr: 0x1069C, symBinAddr: 0x100014324, symSize: 0x60 }
  - { offsetInCU: 0x27D52, offset: 0x27D52, size: 0x8, addend: 0x0, symName: __ZNSt3__16vectorI10ReduceTaskNS_9allocatorIS1_EEE21_ConstructTransactionD2B8ue170006Ev, symObjAddr: 0x106FC, symBinAddr: 0x100014384, symSize: 0x20 }
  - { offsetInCU: 0x27D7A, offset: 0x27D7A, size: 0x8, addend: 0x0, symName: __ZNKSt3__16vectorI10ReduceTaskNS_9allocatorIS1_EEE11__recommendB8ue170006Em, symObjAddr: 0x1071C, symBinAddr: 0x1000143A4, symSize: 0xB4 }
  - { offsetInCU: 0x27DCE, offset: 0x27DCE, size: 0x8, addend: 0x0, symName: __ZNSt3__114__split_bufferI10ReduceTaskRNS_9allocatorIS1_EEEC1EmmS4_, symObjAddr: 0x107D0, symBinAddr: 0x100014458, symSize: 0x44 }
  - { offsetInCU: 0x27E23, offset: 0x27E23, size: 0x8, addend: 0x0, symName: __ZNSt3__114__split_bufferI10ReduceTaskRNS_9allocatorIS1_EEED1Ev, symObjAddr: 0x10924, symBinAddr: 0x1000145AC, symSize: 0x2C }
  - { offsetInCU: 0x27E4D, offset: 0x27E4D, size: 0x8, addend: 0x0, symName: __ZNKSt3__16vectorI10ReduceTaskNS_9allocatorIS1_EEE8max_sizeEv, symObjAddr: 0x10950, symBinAddr: 0x1000145D8, symSize: 0x60 }
  - { offsetInCU: 0x27E73, offset: 0x27E73, size: 0x8, addend: 0x0, symName: __ZNKSt3__16vectorI10ReduceTaskNS_9allocatorIS1_EEE20__throw_length_errorB8ue170006Ev, symObjAddr: 0x109B0, symBinAddr: 0x100014638, symSize: 0x1C }
  - { offsetInCU: 0x27EA1, offset: 0x27EA1, size: 0x8, addend: 0x0, symName: __ZNSt3__116allocator_traitsINS_9allocatorI10ReduceTaskEEE8max_sizeB8ue170006IS3_vEEmRKS3_, symObjAddr: 0x109CC, symBinAddr: 0x100014654, symSize: 0x24 }
  - { offsetInCU: 0x27ECE, offset: 0x27ECE, size: 0x8, addend: 0x0, symName: __ZNKSt3__16vectorI10ReduceTaskNS_9allocatorIS1_EEE7__allocB8ue170006Ev, symObjAddr: 0x109F0, symBinAddr: 0x100014678, symSize: 0x28 }
  - { offsetInCU: 0x27EF3, offset: 0x27EF3, size: 0x8, addend: 0x0, symName: __ZNKSt3__19allocatorI10ReduceTaskE8max_sizeB8ue170006Ev, symObjAddr: 0x10A18, symBinAddr: 0x1000146A0, symSize: 0x14 }
  - { offsetInCU: 0x27F17, offset: 0x27F17, size: 0x8, addend: 0x0, symName: __ZNKSt3__117__compressed_pairIP10ReduceTaskNS_9allocatorIS1_EEE6secondB8ue170006Ev, symObjAddr: 0x10A2C, symBinAddr: 0x1000146B4, symSize: 0x24 }
  - { offsetInCU: 0x27F3C, offset: 0x27F3C, size: 0x8, addend: 0x0, symName: __ZNKSt3__122__compressed_pair_elemINS_9allocatorI10ReduceTaskEELi1ELb1EE5__getB8ue170006Ev, symObjAddr: 0x10A50, symBinAddr: 0x1000146D8, symSize: 0x14 }
  - { offsetInCU: 0x27F61, offset: 0x27F61, size: 0x8, addend: 0x0, symName: __ZNSt3__114__split_bufferI10ReduceTaskRNS_9allocatorIS1_EEEC2EmmS4_, symObjAddr: 0x10A64, symBinAddr: 0x1000146EC, symSize: 0xD4 }
  - { offsetInCU: 0x27FD3, offset: 0x27FD3, size: 0x8, addend: 0x0, symName: __ZNSt3__117__compressed_pairIP10ReduceTaskRNS_9allocatorIS1_EEEC1B8ue170006IDnS5_EEOT_OT0_, symObjAddr: 0x10B38, symBinAddr: 0x1000147C0, symSize: 0x3C }
  - { offsetInCU: 0x28029, offset: 0x28029, size: 0x8, addend: 0x0, symName: __ZNSt3__114__split_bufferI10ReduceTaskRNS_9allocatorIS1_EEE7__allocB8ue170006Ev, symObjAddr: 0x10BB4, symBinAddr: 0x10001483C, symSize: 0x28 }
  - { offsetInCU: 0x2804D, offset: 0x2804D, size: 0x8, addend: 0x0, symName: __ZNSt3__114__split_bufferI10ReduceTaskRNS_9allocatorIS1_EEE9__end_capB8ue170006Ev, symObjAddr: 0x10BDC, symBinAddr: 0x100014864, symSize: 0x28 }
  - { offsetInCU: 0x28072, offset: 0x28072, size: 0x8, addend: 0x0, symName: __ZNSt3__117__compressed_pairIP10ReduceTaskRNS_9allocatorIS1_EEEC2B8ue170006IDnS5_EEOT_OT0_, symObjAddr: 0x10C04, symBinAddr: 0x10001488C, symSize: 0x48 }
  - { offsetInCU: 0x280C9, offset: 0x280C9, size: 0x8, addend: 0x0, symName: __ZNSt3__122__compressed_pair_elemIRNS_9allocatorI10ReduceTaskEELi1ELb0EEC2B8ue170006IS4_vEEOT_, symObjAddr: 0x10C4C, symBinAddr: 0x1000148D4, symSize: 0x20 }
  - { offsetInCU: 0x28109, offset: 0x28109, size: 0x8, addend: 0x0, symName: __ZNSt3__19allocatorI10ReduceTaskE8allocateB8ue170006Em, symObjAddr: 0x10C6C, symBinAddr: 0x1000148F4, symSize: 0x58 }
  - { offsetInCU: 0x2813B, offset: 0x2813B, size: 0x8, addend: 0x0, symName: __ZNSt3__117__compressed_pairIP10ReduceTaskRNS_9allocatorIS1_EEE6secondB8ue170006Ev, symObjAddr: 0x10CC4, symBinAddr: 0x10001494C, symSize: 0x28 }
  - { offsetInCU: 0x28160, offset: 0x28160, size: 0x8, addend: 0x0, symName: __ZNSt3__122__compressed_pair_elemIRNS_9allocatorI10ReduceTaskEELi1ELb0EE5__getB8ue170006Ev, symObjAddr: 0x10CEC, symBinAddr: 0x100014974, symSize: 0x18 }
  - { offsetInCU: 0x28184, offset: 0x28184, size: 0x8, addend: 0x0, symName: __ZNSt3__117__compressed_pairIP10ReduceTaskRNS_9allocatorIS1_EEE5firstB8ue170006Ev, symObjAddr: 0x10D04, symBinAddr: 0x10001498C, symSize: 0x24 }
  - { offsetInCU: 0x281A9, offset: 0x281A9, size: 0x8, addend: 0x0, symName: __ZNSt3__116reverse_iteratorIP10ReduceTaskEC1B8ue170006ES2_, symObjAddr: 0x10E54, symBinAddr: 0x100014ADC, symSize: 0x34 }
  - { offsetInCU: 0x281E0, offset: 0x281E0, size: 0x8, addend: 0x0, symName: __ZNKSt3__116reverse_iteratorIP10ReduceTaskE4baseB8ue170006Ev, symObjAddr: 0x10E88, symBinAddr: 0x100014B10, symSize: 0x18 }
  - { offsetInCU: 0x28204, offset: 0x28204, size: 0x8, addend: 0x0, symName: __ZNKSt3__16vectorI10ReduceTaskNS_9allocatorIS1_EEE14__annotate_newB8ue170006Em, symObjAddr: 0x10EDC, symBinAddr: 0x100014B64, symSize: 0xAC }
  - { offsetInCU: 0x28238, offset: 0x28238, size: 0x8, addend: 0x0, symName: __ZNSt3__129_AllocatorDestroyRangeReverseINS_9allocatorI10ReduceTaskEENS_16reverse_iteratorIPS2_EEEC1B8ue170006ERS3_RS6_S9_, symObjAddr: 0x10FD4, symBinAddr: 0x100014C5C, symSize: 0x44 }
  - { offsetInCU: 0x28292, offset: 0x28292, size: 0x8, addend: 0x0, symName: __ZNSt3__116allocator_traitsINS_9allocatorI10ReduceTaskEEE9constructB8ue170006IS2_JS2_EvEEvRS3_PT_DpOT0_, symObjAddr: 0x11060, symBinAddr: 0x100014CE8, symSize: 0x34 }
  - { offsetInCU: 0x282E9, offset: 0x282E9, size: 0x8, addend: 0x0, symName: __ZNKSt3__116reverse_iteratorIP10ReduceTaskEdeB8ue170006Ev, symObjAddr: 0x110B8, symBinAddr: 0x100014D40, symSize: 0x28 }
  - { offsetInCU: 0x2831C, offset: 0x2831C, size: 0x8, addend: 0x0, symName: __ZNSt3__116reverse_iteratorIP10ReduceTaskEppB8ue170006Ev, symObjAddr: 0x110E0, symBinAddr: 0x100014D68, symSize: 0x20 }
  - { offsetInCU: 0x28341, offset: 0x28341, size: 0x8, addend: 0x0, symName: __ZNSt3__128__exception_guard_exceptionsINS_29_AllocatorDestroyRangeReverseINS_9allocatorI10ReduceTaskEENS_16reverse_iteratorIPS3_EEEEE10__completeB8ue170006Ev, symObjAddr: 0x11100, symBinAddr: 0x100014D88, symSize: 0x1C }
  - { offsetInCU: 0x28366, offset: 0x28366, size: 0x8, addend: 0x0, symName: __ZNSt3__128__exception_guard_exceptionsINS_29_AllocatorDestroyRangeReverseINS_9allocatorI10ReduceTaskEENS_16reverse_iteratorIPS3_EEEEED1B8ue170006Ev, symObjAddr: 0x1111C, symBinAddr: 0x100014DA4, symSize: 0x2C }
  - { offsetInCU: 0x2838F, offset: 0x2838F, size: 0x8, addend: 0x0, symName: __ZNSt3__128__exception_guard_exceptionsINS_29_AllocatorDestroyRangeReverseINS_9allocatorI10ReduceTaskEENS_16reverse_iteratorIPS3_EEEEEC1B8ue170006ES8_, symObjAddr: 0x11148, symBinAddr: 0x100014DD0, symSize: 0x34 }
  - { offsetInCU: 0x283C7, offset: 0x283C7, size: 0x8, addend: 0x0, symName: __ZNSt3__128__exception_guard_exceptionsINS_29_AllocatorDestroyRangeReverseINS_9allocatorI10ReduceTaskEENS_16reverse_iteratorIPS3_EEEEEC2B8ue170006ES8_, symObjAddr: 0x1117C, symBinAddr: 0x100014E04, symSize: 0x30 }
  - { offsetInCU: 0x283FF, offset: 0x283FF, size: 0x8, addend: 0x0, symName: __ZNSt3__129_AllocatorDestroyRangeReverseINS_9allocatorI10ReduceTaskEENS_16reverse_iteratorIPS2_EEEC2B8ue170006ERS3_RS6_S9_, symObjAddr: 0x111AC, symBinAddr: 0x100014E34, symSize: 0x38 }
  - { offsetInCU: 0x28454, offset: 0x28454, size: 0x8, addend: 0x0, symName: __ZNSt3__19allocatorI10ReduceTaskE9constructB8ue170006IS1_JS1_EEEvPT_DpOT0_, symObjAddr: 0x111E4, symBinAddr: 0x100014E6C, symSize: 0x30 }
  - { offsetInCU: 0x284A9, offset: 0x284A9, size: 0x8, addend: 0x0, symName: __ZN10ReduceTaskC1EOS_, symObjAddr: 0x11214, symBinAddr: 0x100014E9C, symSize: 0x34 }
  - { offsetInCU: 0x284DE, offset: 0x284DE, size: 0x8, addend: 0x0, symName: __ZN10ReduceTaskC2EOS_, symObjAddr: 0x11248, symBinAddr: 0x100014ED0, symSize: 0x60 }
  - { offsetInCU: 0x28517, offset: 0x28517, size: 0x8, addend: 0x0, symName: __ZNSt3__119__to_address_helperINS_16reverse_iteratorIP10ReduceTaskEEvE6__callB8ue170006ERKS4_, symObjAddr: 0x112A8, symBinAddr: 0x100014F30, symSize: 0x38 }
  - { offsetInCU: 0x28539, offset: 0x28539, size: 0x8, addend: 0x0, symName: __ZNKSt3__116reverse_iteratorIP10ReduceTaskEptB8ue170006Ev, symObjAddr: 0x112E0, symBinAddr: 0x100014F68, symSize: 0x24 }
  - { offsetInCU: 0x2855E, offset: 0x2855E, size: 0x8, addend: 0x0, symName: __ZNSt3__128__exception_guard_exceptionsINS_29_AllocatorDestroyRangeReverseINS_9allocatorI10ReduceTaskEENS_16reverse_iteratorIPS3_EEEEED2B8ue170006Ev, symObjAddr: 0x11304, symBinAddr: 0x100014F8C, symSize: 0x50 }
  - { offsetInCU: 0x28586, offset: 0x28586, size: 0x8, addend: 0x0, symName: __ZNKSt3__129_AllocatorDestroyRangeReverseINS_9allocatorI10ReduceTaskEENS_16reverse_iteratorIPS2_EEEclB8ue170006Ev, symObjAddr: 0x11354, symBinAddr: 0x100014FDC, symSize: 0xB4 }
  - { offsetInCU: 0x285AC, offset: 0x285AC, size: 0x8, addend: 0x0, symName: __ZNSt3__116reverse_iteratorINS0_IP10ReduceTaskEEEC1B8ue170006ES3_, symObjAddr: 0x11478, symBinAddr: 0x100015100, symSize: 0x3C }
  - { offsetInCU: 0x285E2, offset: 0x285E2, size: 0x8, addend: 0x0, symName: __ZNSt3__116reverse_iteratorINS0_IP10ReduceTaskEEEppB8ue170006Ev, symObjAddr: 0x11538, symBinAddr: 0x1000151C0, symSize: 0x30 }
  - { offsetInCU: 0x28607, offset: 0x28607, size: 0x8, addend: 0x0, symName: __ZNKSt3__116reverse_iteratorINS0_IP10ReduceTaskEEE4baseB8ue170006Ev, symObjAddr: 0x11568, symBinAddr: 0x1000151F0, symSize: 0x24 }
  - { offsetInCU: 0x28630, offset: 0x28630, size: 0x8, addend: 0x0, symName: __ZNSt3__119__to_address_helperINS_16reverse_iteratorINS1_IP10ReduceTaskEEEEvE6__callB8ue170006ERKS5_, symObjAddr: 0x1158C, symBinAddr: 0x100015214, symSize: 0x38 }
  - { offsetInCU: 0x28652, offset: 0x28652, size: 0x8, addend: 0x0, symName: __ZNKSt3__116reverse_iteratorINS0_IP10ReduceTaskEEEptB8ue170006Ev, symObjAddr: 0x115C4, symBinAddr: 0x10001524C, symSize: 0x24 }
  - { offsetInCU: 0x28676, offset: 0x28676, size: 0x8, addend: 0x0, symName: __ZNKSt3__116reverse_iteratorINS0_IP10ReduceTaskEEEdeB8ue170006Ev, symObjAddr: 0x115E8, symBinAddr: 0x100015270, symSize: 0x34 }
  - { offsetInCU: 0x286A9, offset: 0x286A9, size: 0x8, addend: 0x0, symName: __ZNSt3__116reverse_iteratorIP10ReduceTaskEmmB8ue170006Ev, symObjAddr: 0x1161C, symBinAddr: 0x1000152A4, symSize: 0x20 }
  - { offsetInCU: 0x286CE, offset: 0x286CE, size: 0x8, addend: 0x0, symName: __ZNSt3__116reverse_iteratorINS0_IP10ReduceTaskEEEC2B8ue170006ES3_, symObjAddr: 0x1163C, symBinAddr: 0x1000152C4, symSize: 0x2C }
  - { offsetInCU: 0x28705, offset: 0x28705, size: 0x8, addend: 0x0, symName: __ZNSt3__116reverse_iteratorIP10ReduceTaskEC2B8ue170006ES2_, symObjAddr: 0x11668, symBinAddr: 0x1000152F0, symSize: 0x28 }
  - { offsetInCU: 0x2873C, offset: 0x2873C, size: 0x8, addend: 0x0, symName: __ZNSt3__114__split_bufferI10ReduceTaskRNS_9allocatorIS1_EEED2Ev, symObjAddr: 0x11690, symBinAddr: 0x100015318, symSize: 0x8C }
  - { offsetInCU: 0x28766, offset: 0x28766, size: 0x8, addend: 0x0, symName: __ZNSt3__114__split_bufferI10ReduceTaskRNS_9allocatorIS1_EEE5clearB8ue170006Ev, symObjAddr: 0x1171C, symBinAddr: 0x1000153A4, symSize: 0x28 }
  - { offsetInCU: 0x2878A, offset: 0x2878A, size: 0x8, addend: 0x0, symName: __ZNKSt3__114__split_bufferI10ReduceTaskRNS_9allocatorIS1_EEE8capacityB8ue170006Ev, symObjAddr: 0x11744, symBinAddr: 0x1000153CC, symSize: 0x40 }
  - { offsetInCU: 0x287AE, offset: 0x287AE, size: 0x8, addend: 0x0, symName: __ZNSt3__114__split_bufferI10ReduceTaskRNS_9allocatorIS1_EEE17__destruct_at_endB8ue170006EPS1_, symObjAddr: 0x11784, symBinAddr: 0x10001540C, symSize: 0x2C }
  - { offsetInCU: 0x287E0, offset: 0x287E0, size: 0x8, addend: 0x0, symName: __ZNSt3__114__split_bufferI10ReduceTaskRNS_9allocatorIS1_EEE17__destruct_at_endB8ue170006EPS1_NS_17integral_constantIbLb0EEE, symObjAddr: 0x117B0, symBinAddr: 0x100015438, symSize: 0x80 }
  - { offsetInCU: 0x2881F, offset: 0x2881F, size: 0x8, addend: 0x0, symName: __ZNKSt3__114__split_bufferI10ReduceTaskRNS_9allocatorIS1_EEE9__end_capB8ue170006Ev, symObjAddr: 0x11830, symBinAddr: 0x1000154B8, symSize: 0x28 }
  - { offsetInCU: 0x28843, offset: 0x28843, size: 0x8, addend: 0x0, symName: __ZNKSt3__117__compressed_pairIP10ReduceTaskRNS_9allocatorIS1_EEE5firstB8ue170006Ev, symObjAddr: 0x11858, symBinAddr: 0x1000154E0, symSize: 0x24 }
  - { offsetInCU: 0x28868, offset: 0x28868, size: 0x8, addend: 0x0, symName: __ZNSt3__16vectorINS0_IiNS_9allocatorIiEEEENS1_IS3_EEEC2B8ue170006Ev, symObjAddr: 0x1187C, symBinAddr: 0x100015504, symSize: 0x4C }
  - { offsetInCU: 0x28891, offset: 0x28891, size: 0x8, addend: 0x0, symName: __ZNSt3__117__compressed_pairIPNS_6vectorIiNS_9allocatorIiEEEENS2_IS4_EEEC1B8ue170006IDnNS_18__default_init_tagEEEOT_OT0_, symObjAddr: 0x118C8, symBinAddr: 0x100015550, symSize: 0x3C }
  - { offsetInCU: 0x288E8, offset: 0x288E8, size: 0x8, addend: 0x0, symName: __ZNSt3__117__compressed_pairIPNS_6vectorIiNS_9allocatorIiEEEENS2_IS4_EEEC2B8ue170006IDnNS_18__default_init_tagEEEOT_OT0_, symObjAddr: 0x11904, symBinAddr: 0x10001558C, symSize: 0x40 }
  - { offsetInCU: 0x2893F, offset: 0x2893F, size: 0x8, addend: 0x0, symName: __ZNSt3__122__compressed_pair_elemIPNS_6vectorIiNS_9allocatorIiEEEELi0ELb0EEC2B8ue170006IDnvEEOT_, symObjAddr: 0x11944, symBinAddr: 0x1000155CC, symSize: 0x1C }
  - { offsetInCU: 0x28980, offset: 0x28980, size: 0x8, addend: 0x0, symName: __ZNSt3__122__compressed_pair_elemINS_9allocatorINS_6vectorIiNS1_IiEEEEEELi1ELb1EEC2B8ue170006ENS_18__default_init_tagE, symObjAddr: 0x11960, symBinAddr: 0x1000155E8, symSize: 0x2C }
  - { offsetInCU: 0x289B4, offset: 0x289B4, size: 0x8, addend: 0x0, symName: __ZNSt3__19allocatorINS_6vectorIiNS0_IiEEEEEC2B8ue170006Ev, symObjAddr: 0x1198C, symBinAddr: 0x100015614, symSize: 0x2C }
  - { offsetInCU: 0x289DD, offset: 0x289DD, size: 0x8, addend: 0x0, symName: __ZNSt3__116__non_trivial_ifILb1ENS_9allocatorINS_6vectorIiNS1_IiEEEEEEEC2B8ue170006Ev, symObjAddr: 0x119B8, symBinAddr: 0x100015640, symSize: 0x14 }
  - { offsetInCU: 0x28A06, offset: 0x28A06, size: 0x8, addend: 0x0, symName: __ZNSt3__16vectorINS0_IiNS_9allocatorIiEEEENS1_IS3_EEED2B8ue170006Ev, symObjAddr: 0x119CC, symBinAddr: 0x100015654, symSize: 0x44 }
  - { offsetInCU: 0x28A2F, offset: 0x28A2F, size: 0x8, addend: 0x0, symName: __ZNSt3__16vectorINS0_IiNS_9allocatorIiEEEENS1_IS3_EEE16__destroy_vectorC1B8ue170006ERS5_, symObjAddr: 0x11A10, symBinAddr: 0x100015698, symSize: 0x34 }
  - { offsetInCU: 0x28A66, offset: 0x28A66, size: 0x8, addend: 0x0, symName: __ZNSt3__16vectorINS0_IiNS_9allocatorIiEEEENS1_IS3_EEE16__destroy_vectorclB8ue170006Ev, symObjAddr: 0x11A44, symBinAddr: 0x1000156CC, symSize: 0x90 }
  - { offsetInCU: 0x28A8B, offset: 0x28A8B, size: 0x8, addend: 0x0, symName: __ZNSt3__16vectorINS0_IiNS_9allocatorIiEEEENS1_IS3_EEE16__destroy_vectorC2B8ue170006ERS5_, symObjAddr: 0x11AD4, symBinAddr: 0x10001575C, symSize: 0x20 }
  - { offsetInCU: 0x28AC2, offset: 0x28AC2, size: 0x8, addend: 0x0, symName: __ZNSt3__16vectorINS0_IiNS_9allocatorIiEEEENS1_IS3_EEE7__clearB8ue170006Ev, symObjAddr: 0x11AF4, symBinAddr: 0x10001577C, symSize: 0x28 }
  - { offsetInCU: 0x28AE6, offset: 0x28AE6, size: 0x8, addend: 0x0, symName: __ZNKSt3__16vectorINS0_IiNS_9allocatorIiEEEENS1_IS3_EEE17__annotate_deleteB8ue170006Ev, symObjAddr: 0x11B1C, symBinAddr: 0x1000157A4, symSize: 0xD4 }
  - { offsetInCU: 0x28B0A, offset: 0x28B0A, size: 0x8, addend: 0x0, symName: __ZNSt3__116allocator_traitsINS_9allocatorINS_6vectorIiNS1_IiEEEEEEE10deallocateB8ue170006ERS5_PS4_m, symObjAddr: 0x11BF0, symBinAddr: 0x100015878, symSize: 0x34 }
  - { offsetInCU: 0x28B4B, offset: 0x28B4B, size: 0x8, addend: 0x0, symName: __ZNSt3__16vectorINS0_IiNS_9allocatorIiEEEENS1_IS3_EEE7__allocB8ue170006Ev, symObjAddr: 0x11C24, symBinAddr: 0x1000158AC, symSize: 0x28 }
  - { offsetInCU: 0x28B6F, offset: 0x28B6F, size: 0x8, addend: 0x0, symName: __ZNKSt3__16vectorINS0_IiNS_9allocatorIiEEEENS1_IS3_EEE8capacityB8ue170006Ev, symObjAddr: 0x11C4C, symBinAddr: 0x1000158D4, symSize: 0x40 }
  - { offsetInCU: 0x28B93, offset: 0x28B93, size: 0x8, addend: 0x0, symName: __ZNSt3__16vectorINS0_IiNS_9allocatorIiEEEENS1_IS3_EEE22__base_destruct_at_endB8ue170006EPS3_, symObjAddr: 0x11C8C, symBinAddr: 0x100015914, symSize: 0x8C }
  - { offsetInCU: 0x28BD5, offset: 0x28BD5, size: 0x8, addend: 0x0, symName: __ZNSt3__116allocator_traitsINS_9allocatorINS_6vectorIiNS1_IiEEEEEEE7destroyB8ue170006IS4_vEEvRS5_PT_, symObjAddr: 0x11D18, symBinAddr: 0x1000159A0, symSize: 0x2C }
  - { offsetInCU: 0x28C11, offset: 0x28C11, size: 0x8, addend: 0x0, symName: __ZNSt3__19allocatorINS_6vectorIiNS0_IiEEEEE7destroyB8ue170006EPS3_, symObjAddr: 0x11D58, symBinAddr: 0x1000159E0, symSize: 0x28 }
  - { offsetInCU: 0x28C44, offset: 0x28C44, size: 0x8, addend: 0x0, symName: __ZNKSt3__16vectorINS0_IiNS_9allocatorIiEEEENS1_IS3_EEE31__annotate_contiguous_containerB8ue170006EPKvS7_S7_S7_, symObjAddr: 0x11D80, symBinAddr: 0x100015A08, symSize: 0x20 }
  - { offsetInCU: 0x28C94, offset: 0x28C94, size: 0x8, addend: 0x0, symName: __ZNKSt3__16vectorINS0_IiNS_9allocatorIiEEEENS1_IS3_EEE4dataB8ue170006Ev, symObjAddr: 0x11DA0, symBinAddr: 0x100015A28, symSize: 0x28 }
  - { offsetInCU: 0x28CB9, offset: 0x28CB9, size: 0x8, addend: 0x0, symName: __ZNKSt3__16vectorINS0_IiNS_9allocatorIiEEEENS1_IS3_EEE4sizeB8ue170006Ev, symObjAddr: 0x11DC8, symBinAddr: 0x100015A50, symSize: 0x28 }
  - { offsetInCU: 0x28CDD, offset: 0x28CDD, size: 0x8, addend: 0x0, symName: __ZNSt3__19allocatorINS_6vectorIiNS0_IiEEEEE10deallocateB8ue170006EPS3_m, symObjAddr: 0x11DF0, symBinAddr: 0x100015A78, symSize: 0x44 }
  - { offsetInCU: 0x28D1D, offset: 0x28D1D, size: 0x8, addend: 0x0, symName: __ZNSt3__117__compressed_pairIPNS_6vectorIiNS_9allocatorIiEEEENS2_IS4_EEE6secondB8ue170006Ev, symObjAddr: 0x11E34, symBinAddr: 0x100015ABC, symSize: 0x24 }
  - { offsetInCU: 0x28D42, offset: 0x28D42, size: 0x8, addend: 0x0, symName: __ZNSt3__122__compressed_pair_elemINS_9allocatorINS_6vectorIiNS1_IiEEEEEELi1ELb1EE5__getB8ue170006Ev, symObjAddr: 0x11E58, symBinAddr: 0x100015AE0, symSize: 0x14 }
  - { offsetInCU: 0x28D66, offset: 0x28D66, size: 0x8, addend: 0x0, symName: __ZNKSt3__16vectorINS0_IiNS_9allocatorIiEEEENS1_IS3_EEE9__end_capB8ue170006Ev, symObjAddr: 0x11E6C, symBinAddr: 0x100015AF4, symSize: 0x28 }
  - { offsetInCU: 0x28D8A, offset: 0x28D8A, size: 0x8, addend: 0x0, symName: __ZNKSt3__117__compressed_pairIPNS_6vectorIiNS_9allocatorIiEEEENS2_IS4_EEE5firstB8ue170006Ev, symObjAddr: 0x11E94, symBinAddr: 0x100015B1C, symSize: 0x24 }
  - { offsetInCU: 0x28DAF, offset: 0x28DAF, size: 0x8, addend: 0x0, symName: __ZNKSt3__122__compressed_pair_elemIPNS_6vectorIiNS_9allocatorIiEEEELi0ELb0EE5__getB8ue170006Ev, symObjAddr: 0x11EB8, symBinAddr: 0x100015B40, symSize: 0x14 }
  - { offsetInCU: 0x28DD3, offset: 0x28DD3, size: 0x8, addend: 0x0, symName: __ZNSt3__16vectorINS0_IiNS_9allocatorIiEEEENS1_IS3_EEE9__end_capB8ue170006Ev, symObjAddr: 0x11ECC, symBinAddr: 0x100015B54, symSize: 0x28 }
  - { offsetInCU: 0x28DF7, offset: 0x28DF7, size: 0x8, addend: 0x0, symName: __ZNSt3__16vectorINS0_IiNS_9allocatorIiEEEENS1_IS3_EEE22__construct_one_at_endB8ue170006IJRS3_EEEvDpOT_, symObjAddr: 0x11EF4, symBinAddr: 0x100015B7C, symSize: 0x90 }
  - { offsetInCU: 0x28E44, offset: 0x28E44, size: 0x8, addend: 0x0, symName: __ZNSt3__16vectorINS0_IiNS_9allocatorIiEEEENS1_IS3_EEE24__emplace_back_slow_pathIJRS3_EEEvDpOT_, symObjAddr: 0x11F84, symBinAddr: 0x100015C0C, symSize: 0xD8 }
  - { offsetInCU: 0x28EA2, offset: 0x28EA2, size: 0x8, addend: 0x0, symName: __ZNSt3__117__compressed_pairIPNS_6vectorIiNS_9allocatorIiEEEENS2_IS4_EEE5firstB8ue170006Ev, symObjAddr: 0x1205C, symBinAddr: 0x100015CE4, symSize: 0x24 }
  - { offsetInCU: 0x28EC7, offset: 0x28EC7, size: 0x8, addend: 0x0, symName: __ZNSt3__122__compressed_pair_elemIPNS_6vectorIiNS_9allocatorIiEEEELi0ELb0EE5__getB8ue170006Ev, symObjAddr: 0x12080, symBinAddr: 0x100015D08, symSize: 0x14 }
  - { offsetInCU: 0x28F05, offset: 0x28F05, size: 0x8, addend: 0x0, symName: __ZNSt3__16vectorINS0_IiNS_9allocatorIiEEEENS1_IS3_EEE21_ConstructTransactionC1B8ue170006ERS5_m, symObjAddr: 0x12094, symBinAddr: 0x100015D1C, symSize: 0x3C }
  - { offsetInCU: 0x28F4B, offset: 0x28F4B, size: 0x8, addend: 0x0, symName: __ZNSt3__116allocator_traitsINS_9allocatorINS_6vectorIiNS1_IiEEEEEEE9constructB8ue170006IS4_JRS4_EvEEvRS5_PT_DpOT0_, symObjAddr: 0x120D0, symBinAddr: 0x100015D58, symSize: 0x34 }
  - { offsetInCU: 0x28FA2, offset: 0x28FA2, size: 0x8, addend: 0x0, symName: __ZNSt3__16vectorINS0_IiNS_9allocatorIiEEEENS1_IS3_EEE21_ConstructTransactionD1B8ue170006Ev, symObjAddr: 0x12104, symBinAddr: 0x100015D8C, symSize: 0x2C }
  - { offsetInCU: 0x28FCB, offset: 0x28FCB, size: 0x8, addend: 0x0, symName: __ZNSt3__16vectorINS0_IiNS_9allocatorIiEEEENS1_IS3_EEE21_ConstructTransactionC2B8ue170006ERS5_m, symObjAddr: 0x12130, symBinAddr: 0x100015DB8, symSize: 0x4C }
  - { offsetInCU: 0x29011, offset: 0x29011, size: 0x8, addend: 0x0, symName: __ZNSt3__19allocatorINS_6vectorIiNS0_IiEEEEE9constructB8ue170006IS3_JRS3_EEEvPT_DpOT0_, symObjAddr: 0x1217C, symBinAddr: 0x100015E04, symSize: 0x30 }
  - { offsetInCU: 0x29066, offset: 0x29066, size: 0x8, addend: 0x0, symName: __ZNSt3__16vectorINS0_IiNS_9allocatorIiEEEENS1_IS3_EEE21_ConstructTransactionD2B8ue170006Ev, symObjAddr: 0x121AC, symBinAddr: 0x100015E34, symSize: 0x20 }
  - { offsetInCU: 0x2908E, offset: 0x2908E, size: 0x8, addend: 0x0, symName: __ZNKSt3__16vectorINS0_IiNS_9allocatorIiEEEENS1_IS3_EEE11__recommendB8ue170006Em, symObjAddr: 0x121CC, symBinAddr: 0x100015E54, symSize: 0xB4 }
  - { offsetInCU: 0x290E2, offset: 0x290E2, size: 0x8, addend: 0x0, symName: __ZNSt3__114__split_bufferINS_6vectorIiNS_9allocatorIiEEEERNS2_IS4_EEEC1EmmS6_, symObjAddr: 0x12280, symBinAddr: 0x100015F08, symSize: 0x44 }
  - { offsetInCU: 0x29137, offset: 0x29137, size: 0x8, addend: 0x0, symName: __ZNSt3__114__split_bufferINS_6vectorIiNS_9allocatorIiEEEERNS2_IS4_EEED1Ev, symObjAddr: 0x123D4, symBinAddr: 0x10001605C, symSize: 0x2C }
  - { offsetInCU: 0x29161, offset: 0x29161, size: 0x8, addend: 0x0, symName: __ZNKSt3__16vectorINS0_IiNS_9allocatorIiEEEENS1_IS3_EEE8max_sizeEv, symObjAddr: 0x12400, symBinAddr: 0x100016088, symSize: 0x60 }
  - { offsetInCU: 0x29187, offset: 0x29187, size: 0x8, addend: 0x0, symName: __ZNKSt3__16vectorINS0_IiNS_9allocatorIiEEEENS1_IS3_EEE20__throw_length_errorB8ue170006Ev, symObjAddr: 0x12460, symBinAddr: 0x1000160E8, symSize: 0x1C }
  - { offsetInCU: 0x291B5, offset: 0x291B5, size: 0x8, addend: 0x0, symName: __ZNSt3__116allocator_traitsINS_9allocatorINS_6vectorIiNS1_IiEEEEEEE8max_sizeB8ue170006IS5_vEEmRKS5_, symObjAddr: 0x1247C, symBinAddr: 0x100016104, symSize: 0x24 }
  - { offsetInCU: 0x291E2, offset: 0x291E2, size: 0x8, addend: 0x0, symName: __ZNKSt3__16vectorINS0_IiNS_9allocatorIiEEEENS1_IS3_EEE7__allocB8ue170006Ev, symObjAddr: 0x124A0, symBinAddr: 0x100016128, symSize: 0x28 }
  - { offsetInCU: 0x29207, offset: 0x29207, size: 0x8, addend: 0x0, symName: __ZNKSt3__19allocatorINS_6vectorIiNS0_IiEEEEE8max_sizeB8ue170006Ev, symObjAddr: 0x124C8, symBinAddr: 0x100016150, symSize: 0x18 }
  - { offsetInCU: 0x2922B, offset: 0x2922B, size: 0x8, addend: 0x0, symName: __ZNKSt3__117__compressed_pairIPNS_6vectorIiNS_9allocatorIiEEEENS2_IS4_EEE6secondB8ue170006Ev, symObjAddr: 0x124E0, symBinAddr: 0x100016168, symSize: 0x24 }
  - { offsetInCU: 0x29250, offset: 0x29250, size: 0x8, addend: 0x0, symName: __ZNKSt3__122__compressed_pair_elemINS_9allocatorINS_6vectorIiNS1_IiEEEEEELi1ELb1EE5__getB8ue170006Ev, symObjAddr: 0x12504, symBinAddr: 0x10001618C, symSize: 0x14 }
  - { offsetInCU: 0x29275, offset: 0x29275, size: 0x8, addend: 0x0, symName: __ZNSt3__114__split_bufferINS_6vectorIiNS_9allocatorIiEEEERNS2_IS4_EEEC2EmmS6_, symObjAddr: 0x12518, symBinAddr: 0x1000161A0, symSize: 0xE0 }
  - { offsetInCU: 0x292E7, offset: 0x292E7, size: 0x8, addend: 0x0, symName: __ZNSt3__117__compressed_pairIPNS_6vectorIiNS_9allocatorIiEEEERNS2_IS4_EEEC1B8ue170006IDnS7_EEOT_OT0_, symObjAddr: 0x125F8, symBinAddr: 0x100016280, symSize: 0x3C }
  - { offsetInCU: 0x2933D, offset: 0x2933D, size: 0x8, addend: 0x0, symName: __ZNSt3__114__split_bufferINS_6vectorIiNS_9allocatorIiEEEERNS2_IS4_EEE7__allocB8ue170006Ev, symObjAddr: 0x12674, symBinAddr: 0x1000162FC, symSize: 0x28 }
  - { offsetInCU: 0x29361, offset: 0x29361, size: 0x8, addend: 0x0, symName: __ZNSt3__114__split_bufferINS_6vectorIiNS_9allocatorIiEEEERNS2_IS4_EEE9__end_capB8ue170006Ev, symObjAddr: 0x1269C, symBinAddr: 0x100016324, symSize: 0x28 }
  - { offsetInCU: 0x29386, offset: 0x29386, size: 0x8, addend: 0x0, symName: __ZNSt3__117__compressed_pairIPNS_6vectorIiNS_9allocatorIiEEEERNS2_IS4_EEEC2B8ue170006IDnS7_EEOT_OT0_, symObjAddr: 0x126C4, symBinAddr: 0x10001634C, symSize: 0x48 }
  - { offsetInCU: 0x293DD, offset: 0x293DD, size: 0x8, addend: 0x0, symName: __ZNSt3__122__compressed_pair_elemIRNS_9allocatorINS_6vectorIiNS1_IiEEEEEELi1ELb0EEC2B8ue170006IS6_vEEOT_, symObjAddr: 0x1270C, symBinAddr: 0x100016394, symSize: 0x20 }
  - { offsetInCU: 0x2941D, offset: 0x2941D, size: 0x8, addend: 0x0, symName: __ZNSt3__19allocatorINS_6vectorIiNS0_IiEEEEE8allocateB8ue170006Em, symObjAddr: 0x1272C, symBinAddr: 0x1000163B4, symSize: 0x5C }
  - { offsetInCU: 0x2944F, offset: 0x2944F, size: 0x8, addend: 0x0, symName: __ZNSt3__117__compressed_pairIPNS_6vectorIiNS_9allocatorIiEEEERNS2_IS4_EEE6secondB8ue170006Ev, symObjAddr: 0x12788, symBinAddr: 0x100016410, symSize: 0x28 }
  - { offsetInCU: 0x29474, offset: 0x29474, size: 0x8, addend: 0x0, symName: __ZNSt3__122__compressed_pair_elemIRNS_9allocatorINS_6vectorIiNS1_IiEEEEEELi1ELb0EE5__getB8ue170006Ev, symObjAddr: 0x127B0, symBinAddr: 0x100016438, symSize: 0x18 }
  - { offsetInCU: 0x29498, offset: 0x29498, size: 0x8, addend: 0x0, symName: __ZNSt3__117__compressed_pairIPNS_6vectorIiNS_9allocatorIiEEEERNS2_IS4_EEE5firstB8ue170006Ev, symObjAddr: 0x127C8, symBinAddr: 0x100016450, symSize: 0x24 }
  - { offsetInCU: 0x294BD, offset: 0x294BD, size: 0x8, addend: 0x0, symName: __ZNSt3__116reverse_iteratorIPNS_6vectorIiNS_9allocatorIiEEEEEC1B8ue170006ES5_, symObjAddr: 0x12918, symBinAddr: 0x1000165A0, symSize: 0x34 }
  - { offsetInCU: 0x294F4, offset: 0x294F4, size: 0x8, addend: 0x0, symName: __ZNKSt3__116reverse_iteratorIPNS_6vectorIiNS_9allocatorIiEEEEE4baseB8ue170006Ev, symObjAddr: 0x1294C, symBinAddr: 0x1000165D4, symSize: 0x18 }
  - { offsetInCU: 0x29518, offset: 0x29518, size: 0x8, addend: 0x0, symName: __ZNKSt3__16vectorINS0_IiNS_9allocatorIiEEEENS1_IS3_EEE14__annotate_newB8ue170006Em, symObjAddr: 0x129A0, symBinAddr: 0x100016628, symSize: 0xC8 }
  - { offsetInCU: 0x2954C, offset: 0x2954C, size: 0x8, addend: 0x0, symName: __ZNSt3__129_AllocatorDestroyRangeReverseINS_9allocatorINS_6vectorIiNS1_IiEEEEEENS_16reverse_iteratorIPS4_EEEC1B8ue170006ERS5_RS8_SB_, symObjAddr: 0x12AB4, symBinAddr: 0x10001673C, symSize: 0x44 }
  - { offsetInCU: 0x295A1, offset: 0x295A1, size: 0x8, addend: 0x0, symName: __ZNSt3__116allocator_traitsINS_9allocatorINS_6vectorIiNS1_IiEEEEEEE9constructB8ue170006IS4_JS4_EvEEvRS5_PT_DpOT0_, symObjAddr: 0x12B40, symBinAddr: 0x1000167C8, symSize: 0x34 }
  - { offsetInCU: 0x295F8, offset: 0x295F8, size: 0x8, addend: 0x0, symName: __ZNKSt3__116reverse_iteratorIPNS_6vectorIiNS_9allocatorIiEEEEEdeB8ue170006Ev, symObjAddr: 0x12B98, symBinAddr: 0x100016820, symSize: 0x28 }
  - { offsetInCU: 0x2962B, offset: 0x2962B, size: 0x8, addend: 0x0, symName: __ZNSt3__116reverse_iteratorIPNS_6vectorIiNS_9allocatorIiEEEEEppB8ue170006Ev, symObjAddr: 0x12BC0, symBinAddr: 0x100016848, symSize: 0x20 }
  - { offsetInCU: 0x29650, offset: 0x29650, size: 0x8, addend: 0x0, symName: __ZNSt3__128__exception_guard_exceptionsINS_29_AllocatorDestroyRangeReverseINS_9allocatorINS_6vectorIiNS2_IiEEEEEENS_16reverse_iteratorIPS5_EEEEE10__completeB8ue170006Ev, symObjAddr: 0x12BE0, symBinAddr: 0x100016868, symSize: 0x1C }
  - { offsetInCU: 0x29675, offset: 0x29675, size: 0x8, addend: 0x0, symName: __ZNSt3__128__exception_guard_exceptionsINS_29_AllocatorDestroyRangeReverseINS_9allocatorINS_6vectorIiNS2_IiEEEEEENS_16reverse_iteratorIPS5_EEEEED1B8ue170006Ev, symObjAddr: 0x12BFC, symBinAddr: 0x100016884, symSize: 0x2C }
  - { offsetInCU: 0x2969E, offset: 0x2969E, size: 0x8, addend: 0x0, symName: __ZNSt3__128__exception_guard_exceptionsINS_29_AllocatorDestroyRangeReverseINS_9allocatorINS_6vectorIiNS2_IiEEEEEENS_16reverse_iteratorIPS5_EEEEEC1B8ue170006ESA_, symObjAddr: 0x12C28, symBinAddr: 0x1000168B0, symSize: 0x34 }
  - { offsetInCU: 0x296D6, offset: 0x296D6, size: 0x8, addend: 0x0, symName: __ZNSt3__128__exception_guard_exceptionsINS_29_AllocatorDestroyRangeReverseINS_9allocatorINS_6vectorIiNS2_IiEEEEEENS_16reverse_iteratorIPS5_EEEEEC2B8ue170006ESA_, symObjAddr: 0x12C5C, symBinAddr: 0x1000168E4, symSize: 0x30 }
  - { offsetInCU: 0x2970E, offset: 0x2970E, size: 0x8, addend: 0x0, symName: __ZNSt3__129_AllocatorDestroyRangeReverseINS_9allocatorINS_6vectorIiNS1_IiEEEEEENS_16reverse_iteratorIPS4_EEEC2B8ue170006ERS5_RS8_SB_, symObjAddr: 0x12C8C, symBinAddr: 0x100016914, symSize: 0x38 }
  - { offsetInCU: 0x29763, offset: 0x29763, size: 0x8, addend: 0x0, symName: __ZNSt3__19allocatorINS_6vectorIiNS0_IiEEEEE9constructB8ue170006IS3_JS3_EEEvPT_DpOT0_, symObjAddr: 0x12CC4, symBinAddr: 0x10001694C, symSize: 0x30 }
  - { offsetInCU: 0x297B8, offset: 0x297B8, size: 0x8, addend: 0x0, symName: __ZNSt3__16vectorIiNS_9allocatorIiEEEC1B8ue170006EOS3_, symObjAddr: 0x12CF4, symBinAddr: 0x10001697C, symSize: 0x34 }
  - { offsetInCU: 0x297F2, offset: 0x297F2, size: 0x8, addend: 0x0, symName: __ZNSt3__16vectorIiNS_9allocatorIiEEEC2B8ue170006EOS3_, symObjAddr: 0x12D28, symBinAddr: 0x1000169B0, symSize: 0xC4 }
  - { offsetInCU: 0x29831, offset: 0x29831, size: 0x8, addend: 0x0, symName: __ZNSt3__117__compressed_pairIPiNS_9allocatorIiEEEC1B8ue170006IDnS3_EEOT_OT0_, symObjAddr: 0x12DEC, symBinAddr: 0x100016A74, symSize: 0x3C }
  - { offsetInCU: 0x29888, offset: 0x29888, size: 0x8, addend: 0x0, symName: __ZNSt3__117__compressed_pairIPiNS_9allocatorIiEEEC2B8ue170006IDnS3_EEOT_OT0_, symObjAddr: 0x12E28, symBinAddr: 0x100016AB0, symSize: 0x44 }
  - { offsetInCU: 0x298DF, offset: 0x298DF, size: 0x8, addend: 0x0, symName: __ZNSt3__122__compressed_pair_elemINS_9allocatorIiEELi1ELb1EEC2B8ue170006IS2_vEEOT_, symObjAddr: 0x12E6C, symBinAddr: 0x100016AF4, symSize: 0x18 }
  - { offsetInCU: 0x29924, offset: 0x29924, size: 0x8, addend: 0x0, symName: __ZNSt3__119__to_address_helperINS_16reverse_iteratorIPNS_6vectorIiNS_9allocatorIiEEEEEEvE6__callB8ue170006ERKS7_, symObjAddr: 0x12E84, symBinAddr: 0x100016B0C, symSize: 0x38 }
  - { offsetInCU: 0x29946, offset: 0x29946, size: 0x8, addend: 0x0, symName: __ZNKSt3__116reverse_iteratorIPNS_6vectorIiNS_9allocatorIiEEEEEptB8ue170006Ev, symObjAddr: 0x12EBC, symBinAddr: 0x100016B44, symSize: 0x24 }
  - { offsetInCU: 0x2996B, offset: 0x2996B, size: 0x8, addend: 0x0, symName: __ZNSt3__128__exception_guard_exceptionsINS_29_AllocatorDestroyRangeReverseINS_9allocatorINS_6vectorIiNS2_IiEEEEEENS_16reverse_iteratorIPS5_EEEEED2B8ue170006Ev, symObjAddr: 0x12EE0, symBinAddr: 0x100016B68, symSize: 0x50 }
  - { offsetInCU: 0x29993, offset: 0x29993, size: 0x8, addend: 0x0, symName: __ZNKSt3__129_AllocatorDestroyRangeReverseINS_9allocatorINS_6vectorIiNS1_IiEEEEEENS_16reverse_iteratorIPS4_EEEclB8ue170006Ev, symObjAddr: 0x12F30, symBinAddr: 0x100016BB8, symSize: 0xB4 }
  - { offsetInCU: 0x299B9, offset: 0x299B9, size: 0x8, addend: 0x0, symName: __ZNSt3__116reverse_iteratorINS0_IPNS_6vectorIiNS_9allocatorIiEEEEEEEC1B8ue170006ES6_, symObjAddr: 0x13054, symBinAddr: 0x100016CDC, symSize: 0x3C }
  - { offsetInCU: 0x299EF, offset: 0x299EF, size: 0x8, addend: 0x0, symName: __ZNSt3__116reverse_iteratorINS0_IPNS_6vectorIiNS_9allocatorIiEEEEEEEppB8ue170006Ev, symObjAddr: 0x13114, symBinAddr: 0x100016D9C, symSize: 0x30 }
  - { offsetInCU: 0x29A14, offset: 0x29A14, size: 0x8, addend: 0x0, symName: __ZNKSt3__116reverse_iteratorINS0_IPNS_6vectorIiNS_9allocatorIiEEEEEEE4baseB8ue170006Ev, symObjAddr: 0x13144, symBinAddr: 0x100016DCC, symSize: 0x24 }
  - { offsetInCU: 0x29A3D, offset: 0x29A3D, size: 0x8, addend: 0x0, symName: __ZNSt3__119__to_address_helperINS_16reverse_iteratorINS1_IPNS_6vectorIiNS_9allocatorIiEEEEEEEEvE6__callB8ue170006ERKS8_, symObjAddr: 0x13168, symBinAddr: 0x100016DF0, symSize: 0x38 }
  - { offsetInCU: 0x29A5F, offset: 0x29A5F, size: 0x8, addend: 0x0, symName: __ZNKSt3__116reverse_iteratorINS0_IPNS_6vectorIiNS_9allocatorIiEEEEEEEptB8ue170006Ev, symObjAddr: 0x131A0, symBinAddr: 0x100016E28, symSize: 0x24 }
  - { offsetInCU: 0x29A83, offset: 0x29A83, size: 0x8, addend: 0x0, symName: __ZNKSt3__116reverse_iteratorINS0_IPNS_6vectorIiNS_9allocatorIiEEEEEEEdeB8ue170006Ev, symObjAddr: 0x131C4, symBinAddr: 0x100016E4C, symSize: 0x34 }
  - { offsetInCU: 0x29AB6, offset: 0x29AB6, size: 0x8, addend: 0x0, symName: __ZNSt3__116reverse_iteratorIPNS_6vectorIiNS_9allocatorIiEEEEEmmB8ue170006Ev, symObjAddr: 0x131F8, symBinAddr: 0x100016E80, symSize: 0x20 }
  - { offsetInCU: 0x29ADB, offset: 0x29ADB, size: 0x8, addend: 0x0, symName: __ZNSt3__116reverse_iteratorINS0_IPNS_6vectorIiNS_9allocatorIiEEEEEEEC2B8ue170006ES6_, symObjAddr: 0x13218, symBinAddr: 0x100016EA0, symSize: 0x2C }
  - { offsetInCU: 0x29B12, offset: 0x29B12, size: 0x8, addend: 0x0, symName: __ZNSt3__116reverse_iteratorIPNS_6vectorIiNS_9allocatorIiEEEEEC2B8ue170006ES5_, symObjAddr: 0x13244, symBinAddr: 0x100016ECC, symSize: 0x28 }
  - { offsetInCU: 0x29B49, offset: 0x29B49, size: 0x8, addend: 0x0, symName: __ZNSt3__114__split_bufferINS_6vectorIiNS_9allocatorIiEEEERNS2_IS4_EEED2Ev, symObjAddr: 0x1326C, symBinAddr: 0x100016EF4, symSize: 0x8C }
  - { offsetInCU: 0x29B73, offset: 0x29B73, size: 0x8, addend: 0x0, symName: __ZNSt3__114__split_bufferINS_6vectorIiNS_9allocatorIiEEEERNS2_IS4_EEE5clearB8ue170006Ev, symObjAddr: 0x132F8, symBinAddr: 0x100016F80, symSize: 0x28 }
  - { offsetInCU: 0x29B97, offset: 0x29B97, size: 0x8, addend: 0x0, symName: __ZNKSt3__114__split_bufferINS_6vectorIiNS_9allocatorIiEEEERNS2_IS4_EEE8capacityB8ue170006Ev, symObjAddr: 0x13320, symBinAddr: 0x100016FA8, symSize: 0x40 }
  - { offsetInCU: 0x29BBB, offset: 0x29BBB, size: 0x8, addend: 0x0, symName: __ZNSt3__114__split_bufferINS_6vectorIiNS_9allocatorIiEEEERNS2_IS4_EEE17__destruct_at_endB8ue170006EPS4_, symObjAddr: 0x13360, symBinAddr: 0x100016FE8, symSize: 0x2C }
  - { offsetInCU: 0x29BED, offset: 0x29BED, size: 0x8, addend: 0x0, symName: __ZNSt3__114__split_bufferINS_6vectorIiNS_9allocatorIiEEEERNS2_IS4_EEE17__destruct_at_endB8ue170006EPS4_NS_17integral_constantIbLb0EEE, symObjAddr: 0x1338C, symBinAddr: 0x100017014, symSize: 0x80 }
  - { offsetInCU: 0x29C2C, offset: 0x29C2C, size: 0x8, addend: 0x0, symName: __ZNKSt3__114__split_bufferINS_6vectorIiNS_9allocatorIiEEEERNS2_IS4_EEE9__end_capB8ue170006Ev, symObjAddr: 0x1340C, symBinAddr: 0x100017094, symSize: 0x28 }
  - { offsetInCU: 0x29C50, offset: 0x29C50, size: 0x8, addend: 0x0, symName: __ZNKSt3__117__compressed_pairIPNS_6vectorIiNS_9allocatorIiEEEERNS2_IS4_EEE5firstB8ue170006Ev, symObjAddr: 0x13434, symBinAddr: 0x1000170BC, symSize: 0x24 }
  - { offsetInCU: 0x29C74, offset: 0x29C74, size: 0x8, addend: 0x0, symName: __ZNSt3__16vectorIiNS_9allocatorIiEEE13__move_assignERS3_NS_17integral_constantIbLb1EEE, symObjAddr: 0x13458, symBinAddr: 0x1000170E0, symSize: 0x94 }
  - { offsetInCU: 0x29CB4, offset: 0x29CB4, size: 0x8, addend: 0x0, symName: __ZNSt3__16vectorIiNS_9allocatorIiEEE13__vdeallocateEv, symObjAddr: 0x134EC, symBinAddr: 0x100017174, symSize: 0x94 }
  - { offsetInCU: 0x29CDA, offset: 0x29CDA, size: 0x8, addend: 0x0, symName: __ZNSt3__16vectorIiNS_9allocatorIiEEE19__move_assign_allocB8ue170006ERS3_, symObjAddr: 0x13580, symBinAddr: 0x100017208, symSize: 0x2C }
  - { offsetInCU: 0x29D0D, offset: 0x29D0D, size: 0x8, addend: 0x0, symName: __ZNSt3__16vectorIiNS_9allocatorIiEEE5clearB8ue170006Ev, symObjAddr: 0x135AC, symBinAddr: 0x100017234, symSize: 0x44 }
  - { offsetInCU: 0x29D40, offset: 0x29D40, size: 0x8, addend: 0x0, symName: __ZNKSt3__16vectorIiNS_9allocatorIiEEE17__annotate_shrinkB8ue170006Em, symObjAddr: 0x135F0, symBinAddr: 0x100017278, symSize: 0xB4 }
  - { offsetInCU: 0x29D73, offset: 0x29D73, size: 0x8, addend: 0x0, symName: __ZNSt3__16vectorIiNS_9allocatorIiEEE19__move_assign_allocB8ue170006ERS3_NS_17integral_constantIbLb1EEE, symObjAddr: 0x136A4, symBinAddr: 0x10001732C, symSize: 0x38 }
  - { offsetInCU: 0x29DB1, offset: 0x29DB1, size: 0x8, addend: 0x0, symName: __ZNKSt3__16vectorINS0_IiNS_9allocatorIiEEEENS1_IS3_EEE17__annotate_shrinkB8ue170006Em, symObjAddr: 0x136DC, symBinAddr: 0x100017364, symSize: 0xD0 }
  - { offsetInCU: 0x29DE4, offset: 0x29DE4, size: 0x8, addend: 0x0, symName: __ZNSt3__16vectorINS0_IiNS_9allocatorIiEEEENS1_IS3_EEE11__make_iterB8ue170006EPS3_, symObjAddr: 0x137AC, symBinAddr: 0x100017434, symSize: 0x30 }
  - { offsetInCU: 0x29E18, offset: 0x29E18, size: 0x8, addend: 0x0, symName: __ZNSt3__111__wrap_iterIPNS_6vectorIiNS_9allocatorIiEEEEEC1B8ue170006ES5_, symObjAddr: 0x137DC, symBinAddr: 0x100017464, symSize: 0x34 }
  - { offsetInCU: 0x29E4F, offset: 0x29E4F, size: 0x8, addend: 0x0, symName: __ZNSt3__111__wrap_iterIPNS_6vectorIiNS_9allocatorIiEEEEEC2B8ue170006ES5_, symObjAddr: 0x13810, symBinAddr: 0x100017498, symSize: 0x20 }
  - { offsetInCU: 0x29E86, offset: 0x29E86, size: 0x8, addend: 0x0, symName: __ZNSt3__16vectorIiNS_9allocatorIiEEEC2ERKS3_, symObjAddr: 0x13830, symBinAddr: 0x1000174B8, symSize: 0x94 }
  - { offsetInCU: 0x29EC0, offset: 0x29EC0, size: 0x8, addend: 0x0, symName: __ZNSt3__116allocator_traitsINS_9allocatorIiEEE37select_on_container_copy_constructionB8ue170006IS2_vvEES2_RKS2_, symObjAddr: 0x138C4, symBinAddr: 0x10001754C, symSize: 0x10 }
  - { offsetInCU: 0x29EEE, offset: 0x29EEE, size: 0x8, addend: 0x0, symName: __ZNSt3__16vectorIiNS_9allocatorIiEEE16__init_with_sizeB8ue170006IPiS5_EEvT_T0_m, symObjAddr: 0x138D4, symBinAddr: 0x10001755C, symSize: 0xB8 }
  - { offsetInCU: 0x29F60, offset: 0x29F60, size: 0x8, addend: 0x0, symName: __ZNSt3__16vectorIiNS_9allocatorIiEEE11__vallocateB8ue170006Em, symObjAddr: 0x139CC, symBinAddr: 0x100017654, symSize: 0xAC }
  - { offsetInCU: 0x29FA2, offset: 0x29FA2, size: 0x8, addend: 0x0, symName: __ZNSt3__16vectorIiNS_9allocatorIiEEE18__construct_at_endIPiS5_EEvT_T0_m, symObjAddr: 0x13A78, symBinAddr: 0x100017700, symSize: 0x8C }
  - { offsetInCU: 0x2A017, offset: 0x2A017, size: 0x8, addend: 0x0, symName: __ZNSt3__128__exception_guard_exceptionsINS_6vectorIiNS_9allocatorIiEEE16__destroy_vectorEE10__completeB8ue170006Ev, symObjAddr: 0x13B04, symBinAddr: 0x10001778C, symSize: 0x1C }
  - { offsetInCU: 0x2A03C, offset: 0x2A03C, size: 0x8, addend: 0x0, symName: __ZNSt3__128__exception_guard_exceptionsINS_6vectorIiNS_9allocatorIiEEE16__destroy_vectorEED1B8ue170006Ev, symObjAddr: 0x13B20, symBinAddr: 0x1000177A8, symSize: 0x2C }
  - { offsetInCU: 0x2A065, offset: 0x2A065, size: 0x8, addend: 0x0, symName: __ZNSt3__128__exception_guard_exceptionsINS_6vectorIiNS_9allocatorIiEEE16__destroy_vectorEEC1B8ue170006ES5_, symObjAddr: 0x13B4C, symBinAddr: 0x1000177D4, symSize: 0x34 }
  - { offsetInCU: 0x2A09C, offset: 0x2A09C, size: 0x8, addend: 0x0, symName: __ZNSt3__128__exception_guard_exceptionsINS_6vectorIiNS_9allocatorIiEEE16__destroy_vectorEEC2B8ue170006ES5_, symObjAddr: 0x13B80, symBinAddr: 0x100017808, symSize: 0x24 }
  - { offsetInCU: 0x2A0F1, offset: 0x2A0F1, size: 0x8, addend: 0x0, symName: __ZNSt3__14pairIPiS1_EC1B8ue170006IS1_S1_LPv0EEEOT_OT0_, symObjAddr: 0x13D54, symBinAddr: 0x1000179DC, symSize: 0x3C }
  - { offsetInCU: 0x2A14E, offset: 0x2A14E, size: 0x8, addend: 0x0, symName: __ZNSt3__14pairIPiS1_EC2B8ue170006IS1_S1_LPv0EEEOT_OT0_, symObjAddr: 0x13D90, symBinAddr: 0x100017A18, symSize: 0x34 }
  - { offsetInCU: 0x2A1B4, offset: 0x2A1B4, size: 0x8, addend: 0x0, symName: __ZNKSt3__114__copy_trivialclB8ue170006IiiLi0EEENS_4pairIPT_PT0_EES4_S4_S6_, symObjAddr: 0x13F40, symBinAddr: 0x100017BC8, symSize: 0x48 }
  - { offsetInCU: 0x2A21B, offset: 0x2A21B, size: 0x8, addend: 0x0, symName: __ZNSt3__14pairIPiS1_EC1B8ue170006IRS1_S1_LPv0EEEOT_OT0_, symObjAddr: 0x140D0, symBinAddr: 0x100017D58, symSize: 0x3C }
  - { offsetInCU: 0x2A278, offset: 0x2A278, size: 0x8, addend: 0x0, symName: __ZNSt3__14pairIPiS1_EC2B8ue170006IRS1_S1_LPv0EEEOT_OT0_, symObjAddr: 0x1410C, symBinAddr: 0x100017D94, symSize: 0x34 }
  - { offsetInCU: 0x2A2D4, offset: 0x2A2D4, size: 0x8, addend: 0x0, symName: __ZNSt3__118__unwrap_iter_implIPiLb1EE8__unwrapB8ue170006ES1_, symObjAddr: 0x14140, symBinAddr: 0x100017DC8, symSize: 0x24 }
  - { offsetInCU: 0x2A2F6, offset: 0x2A2F6, size: 0x8, addend: 0x0, symName: __ZNSt3__118__unwrap_iter_implIPiLb1EE8__rewrapB8ue170006ES1_S1_, symObjAddr: 0x14164, symBinAddr: 0x100017DEC, symSize: 0x50 }
  - { offsetInCU: 0x2A327, offset: 0x2A327, size: 0x8, addend: 0x0, symName: __ZNSt3__128__exception_guard_exceptionsINS_6vectorIiNS_9allocatorIiEEE16__destroy_vectorEED2B8ue170006Ev, symObjAddr: 0x141B4, symBinAddr: 0x100017E3C, symSize: 0x48 }
  - { offsetInCU: 0x2A350, offset: 0x2A350, size: 0x8, addend: 0x0, symName: __ZNSt3__16vectorIPbNS_9allocatorIS1_EEEC2B8ue170006Ev, symObjAddr: 0x141FC, symBinAddr: 0x100017E84, symSize: 0x4C }
  - { offsetInCU: 0x2A379, offset: 0x2A379, size: 0x8, addend: 0x0, symName: __ZNSt3__117__compressed_pairIPPbNS_9allocatorIS1_EEEC1B8ue170006IDnNS_18__default_init_tagEEEOT_OT0_, symObjAddr: 0x14248, symBinAddr: 0x100017ED0, symSize: 0x3C }
  - { offsetInCU: 0x2A3D0, offset: 0x2A3D0, size: 0x8, addend: 0x0, symName: __ZNSt3__117__compressed_pairIPPbNS_9allocatorIS1_EEEC2B8ue170006IDnNS_18__default_init_tagEEEOT_OT0_, symObjAddr: 0x14284, symBinAddr: 0x100017F0C, symSize: 0x40 }
  - { offsetInCU: 0x2A427, offset: 0x2A427, size: 0x8, addend: 0x0, symName: __ZNSt3__122__compressed_pair_elemIPPbLi0ELb0EEC2B8ue170006IDnvEEOT_, symObjAddr: 0x142C4, symBinAddr: 0x100017F4C, symSize: 0x1C }
  - { offsetInCU: 0x2A468, offset: 0x2A468, size: 0x8, addend: 0x0, symName: __ZNSt3__122__compressed_pair_elemINS_9allocatorIPbEELi1ELb1EEC2B8ue170006ENS_18__default_init_tagE, symObjAddr: 0x142E0, symBinAddr: 0x100017F68, symSize: 0x2C }
  - { offsetInCU: 0x2A49C, offset: 0x2A49C, size: 0x8, addend: 0x0, symName: __ZNSt3__19allocatorIPbEC2B8ue170006Ev, symObjAddr: 0x1430C, symBinAddr: 0x100017F94, symSize: 0x2C }
  - { offsetInCU: 0x2A4C5, offset: 0x2A4C5, size: 0x8, addend: 0x0, symName: __ZNSt3__116__non_trivial_ifILb1ENS_9allocatorIPbEEEC2B8ue170006Ev, symObjAddr: 0x14338, symBinAddr: 0x100017FC0, symSize: 0x14 }
  - { offsetInCU: 0x2A4EE, offset: 0x2A4EE, size: 0x8, addend: 0x0, symName: __ZNSt3__16vectorIPbNS_9allocatorIS1_EEED2B8ue170006Ev, symObjAddr: 0x1434C, symBinAddr: 0x100017FD4, symSize: 0x44 }
  - { offsetInCU: 0x2A517, offset: 0x2A517, size: 0x8, addend: 0x0, symName: __ZNSt3__16vectorIPbNS_9allocatorIS1_EEE16__destroy_vectorC1B8ue170006ERS4_, symObjAddr: 0x14390, symBinAddr: 0x100018018, symSize: 0x34 }
  - { offsetInCU: 0x2A54E, offset: 0x2A54E, size: 0x8, addend: 0x0, symName: __ZNSt3__16vectorIPbNS_9allocatorIS1_EEE16__destroy_vectorclB8ue170006Ev, symObjAddr: 0x143C4, symBinAddr: 0x10001804C, symSize: 0x90 }
  - { offsetInCU: 0x2A573, offset: 0x2A573, size: 0x8, addend: 0x0, symName: __ZNSt3__16vectorIPbNS_9allocatorIS1_EEE16__destroy_vectorC2B8ue170006ERS4_, symObjAddr: 0x14454, symBinAddr: 0x1000180DC, symSize: 0x20 }
  - { offsetInCU: 0x2A5AA, offset: 0x2A5AA, size: 0x8, addend: 0x0, symName: __ZNSt3__16vectorIPbNS_9allocatorIS1_EEE7__clearB8ue170006Ev, symObjAddr: 0x14474, symBinAddr: 0x1000180FC, symSize: 0x28 }
  - { offsetInCU: 0x2A5CE, offset: 0x2A5CE, size: 0x8, addend: 0x0, symName: __ZNKSt3__16vectorIPbNS_9allocatorIS1_EEE17__annotate_deleteB8ue170006Ev, symObjAddr: 0x1449C, symBinAddr: 0x100018124, symSize: 0xB8 }
  - { offsetInCU: 0x2A5F2, offset: 0x2A5F2, size: 0x8, addend: 0x0, symName: __ZNSt3__116allocator_traitsINS_9allocatorIPbEEE10deallocateB8ue170006ERS3_PS2_m, symObjAddr: 0x14554, symBinAddr: 0x1000181DC, symSize: 0x34 }
  - { offsetInCU: 0x2A633, offset: 0x2A633, size: 0x8, addend: 0x0, symName: __ZNSt3__16vectorIPbNS_9allocatorIS1_EEE7__allocB8ue170006Ev, symObjAddr: 0x14588, symBinAddr: 0x100018210, symSize: 0x28 }
  - { offsetInCU: 0x2A657, offset: 0x2A657, size: 0x8, addend: 0x0, symName: __ZNKSt3__16vectorIPbNS_9allocatorIS1_EEE8capacityB8ue170006Ev, symObjAddr: 0x145B0, symBinAddr: 0x100018238, symSize: 0x40 }
  - { offsetInCU: 0x2A67B, offset: 0x2A67B, size: 0x8, addend: 0x0, symName: __ZNSt3__16vectorIPbNS_9allocatorIS1_EEE22__base_destruct_at_endB8ue170006EPS1_, symObjAddr: 0x145F0, symBinAddr: 0x100018278, symSize: 0x8C }
  - { offsetInCU: 0x2A6BD, offset: 0x2A6BD, size: 0x8, addend: 0x0, symName: __ZNSt3__116allocator_traitsINS_9allocatorIPbEEE7destroyB8ue170006IS2_vEEvRS3_PT_, symObjAddr: 0x1467C, symBinAddr: 0x100018304, symSize: 0x2C }
  - { offsetInCU: 0x2A6FA, offset: 0x2A6FA, size: 0x8, addend: 0x0, symName: __ZNSt3__19allocatorIPbE7destroyB8ue170006EPS1_, symObjAddr: 0x146BC, symBinAddr: 0x100018344, symSize: 0x14 }
  - { offsetInCU: 0x2A72D, offset: 0x2A72D, size: 0x8, addend: 0x0, symName: __ZNKSt3__16vectorIPbNS_9allocatorIS1_EEE31__annotate_contiguous_containerB8ue170006EPKvS6_S6_S6_, symObjAddr: 0x146D0, symBinAddr: 0x100018358, symSize: 0x20 }
  - { offsetInCU: 0x2A77D, offset: 0x2A77D, size: 0x8, addend: 0x0, symName: __ZNKSt3__16vectorIPbNS_9allocatorIS1_EEE4dataB8ue170006Ev, symObjAddr: 0x146F0, symBinAddr: 0x100018378, symSize: 0x28 }
  - { offsetInCU: 0x2A7A2, offset: 0x2A7A2, size: 0x8, addend: 0x0, symName: __ZNKSt3__16vectorIPbNS_9allocatorIS1_EEE4sizeB8ue170006Ev, symObjAddr: 0x14718, symBinAddr: 0x1000183A0, symSize: 0x28 }
  - { offsetInCU: 0x2A7C6, offset: 0x2A7C6, size: 0x8, addend: 0x0, symName: __ZNSt3__19allocatorIPbE10deallocateB8ue170006EPS1_m, symObjAddr: 0x14740, symBinAddr: 0x1000183C8, symSize: 0x40 }
  - { offsetInCU: 0x2A806, offset: 0x2A806, size: 0x8, addend: 0x0, symName: __ZNSt3__117__compressed_pairIPPbNS_9allocatorIS1_EEE6secondB8ue170006Ev, symObjAddr: 0x14780, symBinAddr: 0x100018408, symSize: 0x24 }
  - { offsetInCU: 0x2A82B, offset: 0x2A82B, size: 0x8, addend: 0x0, symName: __ZNSt3__122__compressed_pair_elemINS_9allocatorIPbEELi1ELb1EE5__getB8ue170006Ev, symObjAddr: 0x147A4, symBinAddr: 0x10001842C, symSize: 0x14 }
  - { offsetInCU: 0x2A84F, offset: 0x2A84F, size: 0x8, addend: 0x0, symName: __ZNKSt3__16vectorIPbNS_9allocatorIS1_EEE9__end_capB8ue170006Ev, symObjAddr: 0x147B8, symBinAddr: 0x100018440, symSize: 0x28 }
  - { offsetInCU: 0x2A873, offset: 0x2A873, size: 0x8, addend: 0x0, symName: __ZNKSt3__117__compressed_pairIPPbNS_9allocatorIS1_EEE5firstB8ue170006Ev, symObjAddr: 0x147E0, symBinAddr: 0x100018468, symSize: 0x24 }
  - { offsetInCU: 0x2A898, offset: 0x2A898, size: 0x8, addend: 0x0, symName: __ZNKSt3__122__compressed_pair_elemIPPbLi0ELb0EE5__getB8ue170006Ev, symObjAddr: 0x14804, symBinAddr: 0x10001848C, symSize: 0x14 }
  - { offsetInCU: 0x2A8BD, offset: 0x2A8BD, size: 0x8, addend: 0x0, symName: __ZNSt3__16vectorIPbNS_9allocatorIS1_EEEC2B8ue170006ESt16initializer_listIS1_E, symObjAddr: 0x14818, symBinAddr: 0x1000184A0, symSize: 0x120 }
  - { offsetInCU: 0x2A90C, offset: 0x2A90C, size: 0x8, addend: 0x0, symName: __ZNKSt16initializer_listIPbE4sizeB8ue170006Ev, symObjAddr: 0x14978, symBinAddr: 0x100018600, symSize: 0x18 }
  - { offsetInCU: 0x2A930, offset: 0x2A930, size: 0x8, addend: 0x0, symName: __ZNSt3__16vectorIPbNS_9allocatorIS1_EEE11__vallocateB8ue170006Em, symObjAddr: 0x14990, symBinAddr: 0x100018618, symSize: 0xAC }
  - { offsetInCU: 0x2A972, offset: 0x2A972, size: 0x8, addend: 0x0, symName: __ZNSt3__16vectorIPbNS_9allocatorIS1_EEE18__construct_at_endIPKS1_S7_EEvT_T0_m, symObjAddr: 0x14A3C, symBinAddr: 0x1000186C4, symSize: 0x8C }
  - { offsetInCU: 0x2A9E7, offset: 0x2A9E7, size: 0x8, addend: 0x0, symName: __ZNKSt16initializer_listIPbE5beginB8ue170006Ev, symObjAddr: 0x14AC8, symBinAddr: 0x100018750, symSize: 0x18 }
  - { offsetInCU: 0x2AA0C, offset: 0x2AA0C, size: 0x8, addend: 0x0, symName: __ZNKSt16initializer_listIPbE3endB8ue170006Ev, symObjAddr: 0x14AE0, symBinAddr: 0x100018768, symSize: 0x20 }
  - { offsetInCU: 0x2AA31, offset: 0x2AA31, size: 0x8, addend: 0x0, symName: __ZNSt3__128__exception_guard_exceptionsINS_6vectorIPbNS_9allocatorIS2_EEE16__destroy_vectorEE10__completeB8ue170006Ev, symObjAddr: 0x14B00, symBinAddr: 0x100018788, symSize: 0x1C }
  - { offsetInCU: 0x2AA56, offset: 0x2AA56, size: 0x8, addend: 0x0, symName: __ZNSt3__128__exception_guard_exceptionsINS_6vectorIPbNS_9allocatorIS2_EEE16__destroy_vectorEED1B8ue170006Ev, symObjAddr: 0x14B1C, symBinAddr: 0x1000187A4, symSize: 0x2C }
  - { offsetInCU: 0x2AA7F, offset: 0x2AA7F, size: 0x8, addend: 0x0, symName: __ZNSt3__128__exception_guard_exceptionsINS_6vectorIPbNS_9allocatorIS2_EEE16__destroy_vectorEEC1B8ue170006ES6_, symObjAddr: 0x14B48, symBinAddr: 0x1000187D0, symSize: 0x34 }
  - { offsetInCU: 0x2AAB6, offset: 0x2AAB6, size: 0x8, addend: 0x0, symName: __ZNSt3__128__exception_guard_exceptionsINS_6vectorIPbNS_9allocatorIS2_EEE16__destroy_vectorEEC2B8ue170006ES6_, symObjAddr: 0x14B7C, symBinAddr: 0x100018804, symSize: 0x24 }
  - { offsetInCU: 0x2AAEC, offset: 0x2AAEC, size: 0x8, addend: 0x0, symName: __ZNKSt3__16vectorIPbNS_9allocatorIS1_EEE8max_sizeEv, symObjAddr: 0x14BA0, symBinAddr: 0x100018828, symSize: 0x60 }
  - { offsetInCU: 0x2AB12, offset: 0x2AB12, size: 0x8, addend: 0x0, symName: __ZNKSt3__16vectorIPbNS_9allocatorIS1_EEE20__throw_length_errorB8ue170006Ev, symObjAddr: 0x14C00, symBinAddr: 0x100018888, symSize: 0x1C }
  - { offsetInCU: 0x2AB36, offset: 0x2AB36, size: 0x8, addend: 0x0, symName: __ZNSt3__16vectorIPbNS_9allocatorIS1_EEE9__end_capB8ue170006Ev, symObjAddr: 0x14C5C, symBinAddr: 0x1000188E4, symSize: 0x28 }
  - { offsetInCU: 0x2AB5A, offset: 0x2AB5A, size: 0x8, addend: 0x0, symName: __ZNKSt3__16vectorIPbNS_9allocatorIS1_EEE14__annotate_newB8ue170006Em, symObjAddr: 0x14C84, symBinAddr: 0x10001890C, symSize: 0xAC }
  - { offsetInCU: 0x2AB97, offset: 0x2AB97, size: 0x8, addend: 0x0, symName: __ZNSt3__116allocator_traitsINS_9allocatorIPbEEE8max_sizeB8ue170006IS3_vEEmRKS3_, symObjAddr: 0x14D30, symBinAddr: 0x1000189B8, symSize: 0x24 }
  - { offsetInCU: 0x2ABC4, offset: 0x2ABC4, size: 0x8, addend: 0x0, symName: __ZNKSt3__16vectorIPbNS_9allocatorIS1_EEE7__allocB8ue170006Ev, symObjAddr: 0x14D54, symBinAddr: 0x1000189DC, symSize: 0x28 }
  - { offsetInCU: 0x2ABE9, offset: 0x2ABE9, size: 0x8, addend: 0x0, symName: __ZNKSt3__19allocatorIPbE8max_sizeB8ue170006Ev, symObjAddr: 0x14D7C, symBinAddr: 0x100018A04, symSize: 0x14 }
  - { offsetInCU: 0x2AC0D, offset: 0x2AC0D, size: 0x8, addend: 0x0, symName: __ZNKSt3__117__compressed_pairIPPbNS_9allocatorIS1_EEE6secondB8ue170006Ev, symObjAddr: 0x14D90, symBinAddr: 0x100018A18, symSize: 0x24 }
  - { offsetInCU: 0x2AC32, offset: 0x2AC32, size: 0x8, addend: 0x0, symName: __ZNKSt3__122__compressed_pair_elemINS_9allocatorIPbEELi1ELb1EE5__getB8ue170006Ev, symObjAddr: 0x14DB4, symBinAddr: 0x100018A3C, symSize: 0x14 }
  - { offsetInCU: 0x2AC56, offset: 0x2AC56, size: 0x8, addend: 0x0, symName: __ZNSt3__19allocatorIPbE8allocateB8ue170006Em, symObjAddr: 0x14DC8, symBinAddr: 0x100018A50, symSize: 0x58 }
  - { offsetInCU: 0x2AC88, offset: 0x2AC88, size: 0x8, addend: 0x0, symName: __ZNSt3__117__compressed_pairIPPbNS_9allocatorIS1_EEE5firstB8ue170006Ev, symObjAddr: 0x14E20, symBinAddr: 0x100018AA8, symSize: 0x24 }
  - { offsetInCU: 0x2ACAD, offset: 0x2ACAD, size: 0x8, addend: 0x0, symName: __ZNSt3__122__compressed_pair_elemIPPbLi0ELb0EE5__getB8ue170006Ev, symObjAddr: 0x14E44, symBinAddr: 0x100018ACC, symSize: 0x14 }
  - { offsetInCU: 0x2ACEB, offset: 0x2ACEB, size: 0x8, addend: 0x0, symName: __ZNSt3__16vectorIPbNS_9allocatorIS1_EEE21_ConstructTransactionC1B8ue170006ERS4_m, symObjAddr: 0x14E58, symBinAddr: 0x100018AE0, symSize: 0x3C }
  - { offsetInCU: 0x2AD32, offset: 0x2AD32, size: 0x8, addend: 0x0, symName: __ZNSt3__16vectorIPbNS_9allocatorIS1_EEE21_ConstructTransactionD1B8ue170006Ev, symObjAddr: 0x14F14, symBinAddr: 0x100018B9C, symSize: 0x2C }
  - { offsetInCU: 0x2AD5B, offset: 0x2AD5B, size: 0x8, addend: 0x0, symName: __ZNSt3__16vectorIPbNS_9allocatorIS1_EEE21_ConstructTransactionC2B8ue170006ERS4_m, symObjAddr: 0x14F40, symBinAddr: 0x100018BC8, symSize: 0x44 }
  - { offsetInCU: 0x2ADC0, offset: 0x2ADC0, size: 0x8, addend: 0x0, symName: __ZNSt3__14pairIPKPbS3_EC1B8ue170006IS3_S3_LPv0EEEOT_OT0_, symObjAddr: 0x150D8, symBinAddr: 0x100018D60, symSize: 0x3C }
  - { offsetInCU: 0x2AE1D, offset: 0x2AE1D, size: 0x8, addend: 0x0, symName: __ZNSt3__14pairIPKPbS3_EC2B8ue170006IS3_S3_LPv0EEEOT_OT0_, symObjAddr: 0x15114, symBinAddr: 0x100018D9C, symSize: 0x34 }
  - { offsetInCU: 0x2AE79, offset: 0x2AE79, size: 0x8, addend: 0x0, symName: __ZNSt3__118__unwrap_iter_implIPKPbLb1EE8__unwrapB8ue170006ES3_, symObjAddr: 0x15148, symBinAddr: 0x100018DD0, symSize: 0x24 }
  - { offsetInCU: 0x2AEB4, offset: 0x2AEB4, size: 0x8, addend: 0x0, symName: __ZNKSt3__114__copy_trivialclB8ue170006IKPbS2_Li0EEENS_4pairIPT_PT0_EES6_S6_S8_, symObjAddr: 0x152FC, symBinAddr: 0x100018F84, symSize: 0x48 }
  - { offsetInCU: 0x2AF25, offset: 0x2AF25, size: 0x8, addend: 0x0, symName: __ZNSt3__14pairIPKPbPS1_EC1B8ue170006IRS3_S4_LPv0EEEOT_OT0_, symObjAddr: 0x154C4, symBinAddr: 0x10001914C, symSize: 0x3C }
  - { offsetInCU: 0x2AF82, offset: 0x2AF82, size: 0x8, addend: 0x0, symName: __ZNSt3__14pairIPKPbPS1_EC2B8ue170006IRS3_S4_LPv0EEEOT_OT0_, symObjAddr: 0x15500, symBinAddr: 0x100019188, symSize: 0x34 }
  - { offsetInCU: 0x2AFDF, offset: 0x2AFDF, size: 0x8, addend: 0x0, symName: __ZNSt3__14pairIPKPbPS1_EC1B8ue170006IS3_S4_LPv0EEEOT_OT0_, symObjAddr: 0x15534, symBinAddr: 0x1000191BC, symSize: 0x3C }
  - { offsetInCU: 0x2B03C, offset: 0x2B03C, size: 0x8, addend: 0x0, symName: __ZNSt3__14pairIPKPbPS1_EC2B8ue170006IS3_S4_LPv0EEEOT_OT0_, symObjAddr: 0x15570, symBinAddr: 0x1000191F8, symSize: 0x34 }
  - { offsetInCU: 0x2B098, offset: 0x2B098, size: 0x8, addend: 0x0, symName: __ZNSt3__118__unwrap_iter_implIPKPbLb1EE8__rewrapB8ue170006ES3_S3_, symObjAddr: 0x155E0, symBinAddr: 0x100019268, symSize: 0x50 }
  - { offsetInCU: 0x2B0C8, offset: 0x2B0C8, size: 0x8, addend: 0x0, symName: __ZNSt3__118__unwrap_iter_implIPPbLb1EE8__unwrapB8ue170006ES2_, symObjAddr: 0x15630, symBinAddr: 0x1000192B8, symSize: 0x24 }
  - { offsetInCU: 0x2B0EA, offset: 0x2B0EA, size: 0x8, addend: 0x0, symName: __ZNSt3__118__unwrap_iter_implIPPbLb1EE8__rewrapB8ue170006ES2_S2_, symObjAddr: 0x15654, symBinAddr: 0x1000192DC, symSize: 0x50 }
  - { offsetInCU: 0x2B11B, offset: 0x2B11B, size: 0x8, addend: 0x0, symName: __ZNSt3__16vectorIPbNS_9allocatorIS1_EEE21_ConstructTransactionD2B8ue170006Ev, symObjAddr: 0x156A4, symBinAddr: 0x10001932C, symSize: 0x20 }
  - { offsetInCU: 0x2B144, offset: 0x2B144, size: 0x8, addend: 0x0, symName: __ZNSt3__128__exception_guard_exceptionsINS_6vectorIPbNS_9allocatorIS2_EEE16__destroy_vectorEED2B8ue170006Ev, symObjAddr: 0x156C4, symBinAddr: 0x10001934C, symSize: 0x48 }
  - { offsetInCU: 0x2B16D, offset: 0x2B16D, size: 0x8, addend: 0x0, symName: __ZNSt3__13setINS_4pairIiiEENS_4lessIS2_EENS_9allocatorIS2_EEEC2B8ue170006Ev, symObjAddr: 0x1570C, symBinAddr: 0x100019394, symSize: 0x30 }
  - { offsetInCU: 0x2B196, offset: 0x2B196, size: 0x8, addend: 0x0, symName: __ZNSt3__16__treeINS_4pairIiiEENS_4lessIS2_EENS_9allocatorIS2_EEEC1ERKS4_, symObjAddr: 0x1573C, symBinAddr: 0x1000193C4, symSize: 0x34 }
  - { offsetInCU: 0x2B1D0, offset: 0x2B1D0, size: 0x8, addend: 0x0, symName: __ZNSt3__16__treeINS_4pairIiiEENS_4lessIS2_EENS_9allocatorIS2_EEEC2ERKS4_, symObjAddr: 0x15770, symBinAddr: 0x1000193F8, symSize: 0x7C }
  - { offsetInCU: 0x2B20A, offset: 0x2B20A, size: 0x8, addend: 0x0, symName: __ZNSt3__117__compressed_pairINS_15__tree_end_nodeIPNS_16__tree_node_baseIPvEEEENS_9allocatorINS_11__tree_nodeINS_4pairIiiEES3_EEEEEC1B8ue170006ILb1EvEEv, symObjAddr: 0x157EC, symBinAddr: 0x100019474, symSize: 0x2C }
  - { offsetInCU: 0x2B23E, offset: 0x2B23E, size: 0x8, addend: 0x0, symName: __ZNSt3__117__compressed_pairImNS_4lessINS_4pairIiiEEEEEC1B8ue170006IiRKS4_EEOT_OT0_, symObjAddr: 0x15818, symBinAddr: 0x1000194A0, symSize: 0x3C }
  - { offsetInCU: 0x2B294, offset: 0x2B294, size: 0x8, addend: 0x0, symName: __ZNSt3__16__treeINS_4pairIiiEENS_4lessIS2_EENS_9allocatorIS2_EEE10__end_nodeB8ue170006Ev, symObjAddr: 0x15854, symBinAddr: 0x1000194DC, symSize: 0x2C }
  - { offsetInCU: 0x2B2B9, offset: 0x2B2B9, size: 0x8, addend: 0x0, symName: __ZNSt3__16__treeINS_4pairIiiEENS_4lessIS2_EENS_9allocatorIS2_EEE12__begin_nodeB8ue170006Ev, symObjAddr: 0x15880, symBinAddr: 0x100019508, symSize: 0x14 }
  - { offsetInCU: 0x2B2DE, offset: 0x2B2DE, size: 0x8, addend: 0x0, symName: __ZNSt3__117__compressed_pairINS_15__tree_end_nodeIPNS_16__tree_node_baseIPvEEEENS_9allocatorINS_11__tree_nodeINS_4pairIiiEES3_EEEEEC2B8ue170006ILb1EvEEv, symObjAddr: 0x15894, symBinAddr: 0x10001951C, symSize: 0x34 }
  - { offsetInCU: 0x2B312, offset: 0x2B312, size: 0x8, addend: 0x0, symName: __ZNSt3__122__compressed_pair_elemINS_15__tree_end_nodeIPNS_16__tree_node_baseIPvEEEELi0ELb0EEC2B8ue170006ENS_16__value_init_tagE, symObjAddr: 0x158C8, symBinAddr: 0x100019550, symSize: 0x2C }
  - { offsetInCU: 0x2B346, offset: 0x2B346, size: 0x8, addend: 0x0, symName: __ZNSt3__122__compressed_pair_elemINS_9allocatorINS_11__tree_nodeINS_4pairIiiEEPvEEEELi1ELb1EEC2B8ue170006ENS_16__value_init_tagE, symObjAddr: 0x158F4, symBinAddr: 0x10001957C, symSize: 0x2C }
  - { offsetInCU: 0x2B37A, offset: 0x2B37A, size: 0x8, addend: 0x0, symName: __ZNSt3__115__tree_end_nodeIPNS_16__tree_node_baseIPvEEEC1B8ue170006Ev, symObjAddr: 0x15920, symBinAddr: 0x1000195A8, symSize: 0x2C }
  - { offsetInCU: 0x2B3A3, offset: 0x2B3A3, size: 0x8, addend: 0x0, symName: __ZNSt3__115__tree_end_nodeIPNS_16__tree_node_baseIPvEEEC2B8ue170006Ev, symObjAddr: 0x1594C, symBinAddr: 0x1000195D4, symSize: 0x18 }
  - { offsetInCU: 0x2B3CC, offset: 0x2B3CC, size: 0x8, addend: 0x0, symName: __ZNSt3__19allocatorINS_11__tree_nodeINS_4pairIiiEEPvEEEC2B8ue170006Ev, symObjAddr: 0x15964, symBinAddr: 0x1000195EC, symSize: 0x2C }
  - { offsetInCU: 0x2B3F5, offset: 0x2B3F5, size: 0x8, addend: 0x0, symName: __ZNSt3__116__non_trivial_ifILb1ENS_9allocatorINS_11__tree_nodeINS_4pairIiiEEPvEEEEEC2B8ue170006Ev, symObjAddr: 0x15990, symBinAddr: 0x100019618, symSize: 0x14 }
  - { offsetInCU: 0x2B41E, offset: 0x2B41E, size: 0x8, addend: 0x0, symName: __ZNSt3__117__compressed_pairImNS_4lessINS_4pairIiiEEEEEC2B8ue170006IiRKS4_EEOT_OT0_, symObjAddr: 0x159A4, symBinAddr: 0x10001962C, symSize: 0x44 }
  - { offsetInCU: 0x2B475, offset: 0x2B475, size: 0x8, addend: 0x0, symName: __ZNSt3__122__compressed_pair_elemImLi0ELb0EEC2B8ue170006IivEEOT_, symObjAddr: 0x159E8, symBinAddr: 0x100019670, symSize: 0x24 }
  - { offsetInCU: 0x2B4B6, offset: 0x2B4B6, size: 0x8, addend: 0x0, symName: __ZNSt3__122__compressed_pair_elemINS_4lessINS_4pairIiiEEEELi1ELb1EEC2B8ue170006IRKS4_vEEOT_, symObjAddr: 0x15A0C, symBinAddr: 0x100019694, symSize: 0x18 }
  - { offsetInCU: 0x2B4F7, offset: 0x2B4F7, size: 0x8, addend: 0x0, symName: __ZNSt3__114pointer_traitsIPNS_15__tree_end_nodeIPNS_16__tree_node_baseIPvEEEEE10pointer_toB8ue170006ERS6_, symObjAddr: 0x15A24, symBinAddr: 0x1000196AC, symSize: 0x14 }
  - { offsetInCU: 0x2B519, offset: 0x2B519, size: 0x8, addend: 0x0, symName: __ZNSt3__117__compressed_pairINS_15__tree_end_nodeIPNS_16__tree_node_baseIPvEEEENS_9allocatorINS_11__tree_nodeINS_4pairIiiEES3_EEEEE5firstB8ue170006Ev, symObjAddr: 0x15A38, symBinAddr: 0x1000196C0, symSize: 0x24 }
  - { offsetInCU: 0x2B53E, offset: 0x2B53E, size: 0x8, addend: 0x0, symName: __ZNSt3__122__compressed_pair_elemINS_15__tree_end_nodeIPNS_16__tree_node_baseIPvEEEELi0ELb0EE5__getB8ue170006Ev, symObjAddr: 0x15A5C, symBinAddr: 0x1000196E4, symSize: 0x14 }
  - { offsetInCU: 0x2B563, offset: 0x2B563, size: 0x8, addend: 0x0, symName: __ZNSt3__13setINS_4pairIiiEENS_4lessIS2_EENS_9allocatorIS2_EEED2B8ue170006Ev, symObjAddr: 0x15A70, symBinAddr: 0x1000196F8, symSize: 0x2C }
  - { offsetInCU: 0x2B58C, offset: 0x2B58C, size: 0x8, addend: 0x0, symName: __ZNSt3__16__treeINS_4pairIiiEENS_4lessIS2_EENS_9allocatorIS2_EEED1Ev, symObjAddr: 0x15A9C, symBinAddr: 0x100019724, symSize: 0x2C }
  - { offsetInCU: 0x2B5B7, offset: 0x2B5B7, size: 0x8, addend: 0x0, symName: __ZNSt3__16__treeINS_4pairIiiEENS_4lessIS2_EENS_9allocatorIS2_EEED2Ev, symObjAddr: 0x15AC8, symBinAddr: 0x100019750, symSize: 0x38 }
  - { offsetInCU: 0x2B5E1, offset: 0x2B5E1, size: 0x8, addend: 0x0, symName: __ZNSt3__16__treeINS_4pairIiiEENS_4lessIS2_EENS_9allocatorIS2_EEE7destroyEPNS_11__tree_nodeIS2_PvEE, symObjAddr: 0x15B00, symBinAddr: 0x100019788, symSize: 0xAC }
  - { offsetInCU: 0x2B62B, offset: 0x2B62B, size: 0x8, addend: 0x0, symName: __ZNKSt3__16__treeINS_4pairIiiEENS_4lessIS2_EENS_9allocatorIS2_EEE6__rootB8ue170006Ev, symObjAddr: 0x15BAC, symBinAddr: 0x100019834, symSize: 0x28 }
  - { offsetInCU: 0x2B64F, offset: 0x2B64F, size: 0x8, addend: 0x0, symName: __ZNSt3__16__treeINS_4pairIiiEENS_4lessIS2_EENS_9allocatorIS2_EEE12__node_allocB8ue170006Ev, symObjAddr: 0x15BD4, symBinAddr: 0x10001985C, symSize: 0x28 }
  - { offsetInCU: 0x2B674, offset: 0x2B674, size: 0x8, addend: 0x0, symName: __ZNSt3__116allocator_traitsINS_9allocatorINS_11__tree_nodeINS_4pairIiiEEPvEEEEE7destroyB8ue170006IS4_vvEEvRS7_PT_, symObjAddr: 0x15BFC, symBinAddr: 0x100019884, symSize: 0x14 }
  - { offsetInCU: 0x2B6AE, offset: 0x2B6AE, size: 0x8, addend: 0x0, symName: __ZNSt3__122__tree_key_value_typesINS_4pairIiiEEE9__get_ptrB8ue170006ERS2_, symObjAddr: 0x15C10, symBinAddr: 0x100019898, symSize: 0x14 }
  - { offsetInCU: 0x2B6D1, offset: 0x2B6D1, size: 0x8, addend: 0x0, symName: __ZNSt3__116allocator_traitsINS_9allocatorINS_11__tree_nodeINS_4pairIiiEEPvEEEEE10deallocateB8ue170006ERS7_PS6_m, symObjAddr: 0x15C24, symBinAddr: 0x1000198AC, symSize: 0x34 }
  - { offsetInCU: 0x2B712, offset: 0x2B712, size: 0x8, addend: 0x0, symName: __ZNSt3__117__compressed_pairINS_15__tree_end_nodeIPNS_16__tree_node_baseIPvEEEENS_9allocatorINS_11__tree_nodeINS_4pairIiiEES3_EEEEE6secondB8ue170006Ev, symObjAddr: 0x15C58, symBinAddr: 0x1000198E0, symSize: 0x24 }
  - { offsetInCU: 0x2B737, offset: 0x2B737, size: 0x8, addend: 0x0, symName: __ZNSt3__122__compressed_pair_elemINS_9allocatorINS_11__tree_nodeINS_4pairIiiEEPvEEEELi1ELb1EE5__getB8ue170006Ev, symObjAddr: 0x15C7C, symBinAddr: 0x100019904, symSize: 0x14 }
  - { offsetInCU: 0x2B75B, offset: 0x2B75B, size: 0x8, addend: 0x0, symName: __ZNSt3__19allocatorINS_11__tree_nodeINS_4pairIiiEEPvEEE10deallocateB8ue170006EPS5_m, symObjAddr: 0x15C90, symBinAddr: 0x100019918, symSize: 0x44 }
  - { offsetInCU: 0x2B79B, offset: 0x2B79B, size: 0x8, addend: 0x0, symName: __ZNKSt3__16__treeINS_4pairIiiEENS_4lessIS2_EENS_9allocatorIS2_EEE10__end_nodeB8ue170006Ev, symObjAddr: 0x15CD4, symBinAddr: 0x10001995C, symSize: 0x2C }
  - { offsetInCU: 0x2B7BF, offset: 0x2B7BF, size: 0x8, addend: 0x0, symName: __ZNKSt3__117__compressed_pairINS_15__tree_end_nodeIPNS_16__tree_node_baseIPvEEEENS_9allocatorINS_11__tree_nodeINS_4pairIiiEES3_EEEEE5firstB8ue170006Ev, symObjAddr: 0x15D00, symBinAddr: 0x100019988, symSize: 0x24 }
  - { offsetInCU: 0x2B7E4, offset: 0x2B7E4, size: 0x8, addend: 0x0, symName: __ZNKSt3__122__compressed_pair_elemINS_15__tree_end_nodeIPNS_16__tree_node_baseIPvEEEELi0ELb0EE5__getB8ue170006Ev, symObjAddr: 0x15D24, symBinAddr: 0x1000199AC, symSize: 0x14 }
  - { offsetInCU: 0x2B808, offset: 0x2B808, size: 0x8, addend: 0x0, symName: __ZNKSt3__16__treeINS_4pairIiiEENS_4lessIS2_EENS_9allocatorIS2_EEE14__count_uniqueIS2_EEmRKT_, symObjAddr: 0x15D38, symBinAddr: 0x1000199C0, symSize: 0xC8 }
  - { offsetInCU: 0x2B855, offset: 0x2B855, size: 0x8, addend: 0x0, symName: __ZNKSt3__16__treeINS_4pairIiiEENS_4lessIS2_EENS_9allocatorIS2_EEE10value_compB8ue170006Ev, symObjAddr: 0x15E00, symBinAddr: 0x100019A88, symSize: 0x28 }
  - { offsetInCU: 0x2B879, offset: 0x2B879, size: 0x8, addend: 0x0, symName: __ZNKSt3__14lessINS_4pairIiiEEEclB8ue170006ERKS2_S5_, symObjAddr: 0x15E28, symBinAddr: 0x100019AB0, symSize: 0x34 }
  - { offsetInCU: 0x2B8BB, offset: 0x2B8BB, size: 0x8, addend: 0x0, symName: __ZNKSt3__117__compressed_pairImNS_4lessINS_4pairIiiEEEEE6secondB8ue170006Ev, symObjAddr: 0x15E5C, symBinAddr: 0x100019AE4, symSize: 0x24 }
  - { offsetInCU: 0x2B8E0, offset: 0x2B8E0, size: 0x8, addend: 0x0, symName: __ZNKSt3__122__compressed_pair_elemINS_4lessINS_4pairIiiEEEELi1ELb1EE5__getB8ue170006Ev, symObjAddr: 0x15E80, symBinAddr: 0x100019B08, symSize: 0x14 }
  - { offsetInCU: 0x2B905, offset: 0x2B905, size: 0x8, addend: 0x0, symName: __ZNSt3__14pairIiiEC2B8ue170006IRiS3_LPv0EEEOT_OT0_, symObjAddr: 0x15F2C, symBinAddr: 0x100019BB4, symSize: 0x34 }
  - { offsetInCU: 0x2B966, offset: 0x2B966, size: 0x8, addend: 0x0, symName: __ZNSt3__16vectorIPbNS_9allocatorIS1_EEE22__construct_one_at_endB8ue170006IJS1_EEEvDpOT_, symObjAddr: 0x15F60, symBinAddr: 0x100019BE8, symSize: 0x90 }
  - { offsetInCU: 0x2B9B3, offset: 0x2B9B3, size: 0x8, addend: 0x0, symName: __ZNSt3__16vectorIPbNS_9allocatorIS1_EEE21__push_back_slow_pathIS1_EEvOT_, symObjAddr: 0x15FF0, symBinAddr: 0x100019C78, symSize: 0xD8 }
  - { offsetInCU: 0x2BA0F, offset: 0x2BA0F, size: 0x8, addend: 0x0, symName: __ZNSt3__116allocator_traitsINS_9allocatorIPbEEE9constructB8ue170006IS2_JS2_EvEEvRS3_PT_DpOT0_, symObjAddr: 0x160C8, symBinAddr: 0x100019D50, symSize: 0x34 }
  - { offsetInCU: 0x2BA66, offset: 0x2BA66, size: 0x8, addend: 0x0, symName: __ZNSt3__19allocatorIPbE9constructB8ue170006IS1_JS1_EEEvPT_DpOT0_, symObjAddr: 0x160FC, symBinAddr: 0x100019D84, symSize: 0x28 }
  - { offsetInCU: 0x2BABA, offset: 0x2BABA, size: 0x8, addend: 0x0, symName: __ZNKSt3__16vectorIPbNS_9allocatorIS1_EEE11__recommendB8ue170006Em, symObjAddr: 0x16124, symBinAddr: 0x100019DAC, symSize: 0xB4 }
  - { offsetInCU: 0x2BB0E, offset: 0x2BB0E, size: 0x8, addend: 0x0, symName: __ZNSt3__114__split_bufferIPbRNS_9allocatorIS1_EEEC1EmmS4_, symObjAddr: 0x161D8, symBinAddr: 0x100019E60, symSize: 0x44 }
  - { offsetInCU: 0x2BB63, offset: 0x2BB63, size: 0x8, addend: 0x0, symName: __ZNSt3__114__split_bufferIPbRNS_9allocatorIS1_EEED1Ev, symObjAddr: 0x1632C, symBinAddr: 0x100019FB4, symSize: 0x2C }
  - { offsetInCU: 0x2BB8E, offset: 0x2BB8E, size: 0x8, addend: 0x0, symName: __ZNSt3__114__split_bufferIPbRNS_9allocatorIS1_EEEC2EmmS4_, symObjAddr: 0x16358, symBinAddr: 0x100019FE0, symSize: 0xD4 }
  - { offsetInCU: 0x2BC00, offset: 0x2BC00, size: 0x8, addend: 0x0, symName: __ZNSt3__117__compressed_pairIPPbRNS_9allocatorIS1_EEEC1B8ue170006IDnS5_EEOT_OT0_, symObjAddr: 0x1642C, symBinAddr: 0x10001A0B4, symSize: 0x3C }
  - { offsetInCU: 0x2BC56, offset: 0x2BC56, size: 0x8, addend: 0x0, symName: __ZNSt3__114__split_bufferIPbRNS_9allocatorIS1_EEE7__allocB8ue170006Ev, symObjAddr: 0x16468, symBinAddr: 0x10001A0F0, symSize: 0x28 }
  - { offsetInCU: 0x2BC7A, offset: 0x2BC7A, size: 0x8, addend: 0x0, symName: __ZNSt3__114__split_bufferIPbRNS_9allocatorIS1_EEE9__end_capB8ue170006Ev, symObjAddr: 0x16490, symBinAddr: 0x10001A118, symSize: 0x28 }
  - { offsetInCU: 0x2BC9F, offset: 0x2BC9F, size: 0x8, addend: 0x0, symName: __ZNSt3__117__compressed_pairIPPbRNS_9allocatorIS1_EEEC2B8ue170006IDnS5_EEOT_OT0_, symObjAddr: 0x164B8, symBinAddr: 0x10001A140, symSize: 0x48 }
  - { offsetInCU: 0x2BCF6, offset: 0x2BCF6, size: 0x8, addend: 0x0, symName: __ZNSt3__122__compressed_pair_elemIRNS_9allocatorIPbEELi1ELb0EEC2B8ue170006IS4_vEEOT_, symObjAddr: 0x16500, symBinAddr: 0x10001A188, symSize: 0x20 }
  - { offsetInCU: 0x2BD36, offset: 0x2BD36, size: 0x8, addend: 0x0, symName: __ZNSt3__117__compressed_pairIPPbRNS_9allocatorIS1_EEE6secondB8ue170006Ev, symObjAddr: 0x16520, symBinAddr: 0x10001A1A8, symSize: 0x28 }
  - { offsetInCU: 0x2BD5B, offset: 0x2BD5B, size: 0x8, addend: 0x0, symName: __ZNSt3__122__compressed_pair_elemIRNS_9allocatorIPbEELi1ELb0EE5__getB8ue170006Ev, symObjAddr: 0x16548, symBinAddr: 0x10001A1D0, symSize: 0x18 }
  - { offsetInCU: 0x2BD7F, offset: 0x2BD7F, size: 0x8, addend: 0x0, symName: __ZNSt3__117__compressed_pairIPPbRNS_9allocatorIS1_EEE5firstB8ue170006Ev, symObjAddr: 0x16560, symBinAddr: 0x10001A1E8, symSize: 0x24 }
  - { offsetInCU: 0x2BDA4, offset: 0x2BDA4, size: 0x8, addend: 0x0, symName: __ZNSt3__116reverse_iteratorIPPbEC1B8ue170006ES2_, symObjAddr: 0x165FC, symBinAddr: 0x10001A284, symSize: 0x34 }
  - { offsetInCU: 0x2BDDB, offset: 0x2BDDB, size: 0x8, addend: 0x0, symName: __ZNKSt3__116reverse_iteratorIPPbE4baseB8ue170006Ev, symObjAddr: 0x16630, symBinAddr: 0x10001A2B8, symSize: 0x18 }
  - { offsetInCU: 0x2BE18, offset: 0x2BE18, size: 0x8, addend: 0x0, symName: __ZNKSt3__111__move_loopINS_17_ClassicAlgPolicyEEclB8ue170006INS_16reverse_iteratorIPPbEES7_S7_EENS_4pairIT_T1_EES9_T0_SA_, symObjAddr: 0x16974, symBinAddr: 0x10001A5FC, symSize: 0xA0 }
  - { offsetInCU: 0x2BE81, offset: 0x2BE81, size: 0x8, addend: 0x0, symName: __ZNSt3__18_IterOpsINS_17_ClassicAlgPolicyEE11__iter_moveB8ue170006IRNS_16reverse_iteratorIPPbEEEENS_9enable_ifIXsr12is_referenceIDTdeclsr3stdE7declvalIRT_EEEEE5valueEDTclsr3stdE4movedeclsr3stdE7declvalISB_EEEEE4typeEOSA_, symObjAddr: 0x16BA8, symBinAddr: 0x10001A830, symSize: 0x28 }
  - { offsetInCU: 0x2BEAD, offset: 0x2BEAD, size: 0x8, addend: 0x0, symName: __ZNKSt3__116reverse_iteratorIPPbEdeB8ue170006Ev, symObjAddr: 0x16BD0, symBinAddr: 0x10001A858, symSize: 0x28 }
  - { offsetInCU: 0x2BEE0, offset: 0x2BEE0, size: 0x8, addend: 0x0, symName: __ZNSt3__116reverse_iteratorIPPbEppB8ue170006Ev, symObjAddr: 0x16BF8, symBinAddr: 0x10001A880, symSize: 0x20 }
  - { offsetInCU: 0x2BF05, offset: 0x2BF05, size: 0x8, addend: 0x0, symName: __ZNSt3__18_IterOpsINS_17_ClassicAlgPolicyEE25__validate_iter_referenceB8ue170006IRNS_16reverse_iteratorIPPbEEEEvv, symObjAddr: 0x16C18, symBinAddr: 0x10001A8A0, symSize: 0x4 }
  - { offsetInCU: 0x2BF23, offset: 0x2BF23, size: 0x8, addend: 0x0, symName: __ZNSt3__118__unwrap_iter_implINS_16reverse_iteratorIPPbEELb0EE8__unwrapB8ue170006ES4_, symObjAddr: 0x16C1C, symBinAddr: 0x10001A8A4, symSize: 0x24 }
  - { offsetInCU: 0x2BF4B, offset: 0x2BF4B, size: 0x8, addend: 0x0, symName: __ZNSt3__14pairINS_16reverse_iteratorIPPbEES4_EC1B8ue170006IS4_S4_LPv0EEEOT_OT0_, symObjAddr: 0x16C40, symBinAddr: 0x10001A8C8, symSize: 0x3C }
  - { offsetInCU: 0x2BFA8, offset: 0x2BFA8, size: 0x8, addend: 0x0, symName: __ZNSt3__14pairINS_16reverse_iteratorIPPbEES4_EC2B8ue170006IS4_S4_LPv0EEEOT_OT0_, symObjAddr: 0x16C7C, symBinAddr: 0x10001A904, symSize: 0x34 }
  - { offsetInCU: 0x2C005, offset: 0x2C005, size: 0x8, addend: 0x0, symName: __ZNSt3__118__unwrap_iter_implINS_16reverse_iteratorIPPbEELb0EE8__rewrapB8ue170006ES4_S4_, symObjAddr: 0x16CB0, symBinAddr: 0x10001A938, symSize: 0x2C }
  - { offsetInCU: 0x2C033, offset: 0x2C033, size: 0x8, addend: 0x0, symName: __ZNSt3__116reverse_iteratorIPPbEC2B8ue170006ES2_, symObjAddr: 0x16CDC, symBinAddr: 0x10001A964, symSize: 0x28 }
  - { offsetInCU: 0x2C06A, offset: 0x2C06A, size: 0x8, addend: 0x0, symName: __ZNSt3__114__split_bufferIPbRNS_9allocatorIS1_EEED2Ev, symObjAddr: 0x16D04, symBinAddr: 0x10001A98C, symSize: 0x8C }
  - { offsetInCU: 0x2C094, offset: 0x2C094, size: 0x8, addend: 0x0, symName: __ZNSt3__114__split_bufferIPbRNS_9allocatorIS1_EEE5clearB8ue170006Ev, symObjAddr: 0x16D90, symBinAddr: 0x10001AA18, symSize: 0x28 }
  - { offsetInCU: 0x2C0B8, offset: 0x2C0B8, size: 0x8, addend: 0x0, symName: __ZNKSt3__114__split_bufferIPbRNS_9allocatorIS1_EEE8capacityB8ue170006Ev, symObjAddr: 0x16DB8, symBinAddr: 0x10001AA40, symSize: 0x40 }
  - { offsetInCU: 0x2C0DC, offset: 0x2C0DC, size: 0x8, addend: 0x0, symName: __ZNSt3__114__split_bufferIPbRNS_9allocatorIS1_EEE17__destruct_at_endB8ue170006EPS1_, symObjAddr: 0x16DF8, symBinAddr: 0x10001AA80, symSize: 0x2C }
  - { offsetInCU: 0x2C10E, offset: 0x2C10E, size: 0x8, addend: 0x0, symName: __ZNSt3__114__split_bufferIPbRNS_9allocatorIS1_EEE17__destruct_at_endB8ue170006EPS1_NS_17integral_constantIbLb0EEE, symObjAddr: 0x16E24, symBinAddr: 0x10001AAAC, symSize: 0x80 }
  - { offsetInCU: 0x2C14D, offset: 0x2C14D, size: 0x8, addend: 0x0, symName: __ZNKSt3__114__split_bufferIPbRNS_9allocatorIS1_EEE9__end_capB8ue170006Ev, symObjAddr: 0x16EA4, symBinAddr: 0x10001AB2C, symSize: 0x28 }
  - { offsetInCU: 0x2C171, offset: 0x2C171, size: 0x8, addend: 0x0, symName: __ZNKSt3__117__compressed_pairIPPbRNS_9allocatorIS1_EEE5firstB8ue170006Ev, symObjAddr: 0x16ECC, symBinAddr: 0x10001AB54, symSize: 0x24 }
  - { offsetInCU: 0x2C195, offset: 0x2C195, size: 0x8, addend: 0x0, symName: __ZNSt3__16__treeINS_4pairIiiEENS_4lessIS2_EENS_9allocatorIS2_EEE15__insert_uniqueB8ue170006EOS2_, symObjAddr: 0x16EF0, symBinAddr: 0x10001AB78, symSize: 0x50 }
  - { offsetInCU: 0x2C1C9, offset: 0x2C1C9, size: 0x8, addend: 0x0, symName: __ZNSt3__14pairINS_21__tree_const_iteratorINS0_IiiEEPNS_11__tree_nodeIS2_PvEElEEbEC1B8ue170006INS_15__tree_iteratorIS2_S6_lEEbLS4_0EEEONS0_IT_T0_EE, symObjAddr: 0x16F40, symBinAddr: 0x10001ABC8, symSize: 0x34 }
  - { offsetInCU: 0x2C218, offset: 0x2C218, size: 0x8, addend: 0x0, symName: __ZNSt3__16__treeINS_4pairIiiEENS_4lessIS2_EENS_9allocatorIS2_EEE25__emplace_unique_key_argsIS2_JS2_EEENS1_INS_15__tree_iteratorIS2_PNS_11__tree_nodeIS2_PvEElEEbEERKT_DpOT0_, symObjAddr: 0x16F74, symBinAddr: 0x10001ABFC, symSize: 0xF0 }
  - { offsetInCU: 0x2C2C3, offset: 0x2C2C3, size: 0x8, addend: 0x0, symName: __ZNSt3__122__tree_key_value_typesINS_4pairIiiEEE9__get_keyB8ue170006ERKS2_, symObjAddr: 0x17064, symBinAddr: 0x10001ACEC, symSize: 0x14 }
  - { offsetInCU: 0x2C2E6, offset: 0x2C2E6, size: 0x8, addend: 0x0, symName: __ZNSt3__16__treeINS_4pairIiiEENS_4lessIS2_EENS_9allocatorIS2_EEE12__find_equalIS2_EERPNS_16__tree_node_baseIPvEERPNS_15__tree_end_nodeISC_EERKT_, symObjAddr: 0x17078, symBinAddr: 0x10001AD00, symSize: 0x184 }
  - { offsetInCU: 0x2C351, offset: 0x2C351, size: 0x8, addend: 0x0, symName: __ZNSt3__16__treeINS_4pairIiiEENS_4lessIS2_EENS_9allocatorIS2_EEE16__construct_nodeIJS2_EEENS_10unique_ptrINS_11__tree_nodeIS2_PvEENS_22__tree_node_destructorINS5_ISC_EEEEEEDpOT_, symObjAddr: 0x171FC, symBinAddr: 0x10001AE84, symSize: 0x108 }
  - { offsetInCU: 0x2C3B0, offset: 0x2C3B0, size: 0x8, addend: 0x0, symName: __ZNSt3__16__treeINS_4pairIiiEENS_4lessIS2_EENS_9allocatorIS2_EEE16__insert_node_atEPNS_15__tree_end_nodeIPNS_16__tree_node_baseIPvEEEERSC_SC_, symObjAddr: 0x17304, symBinAddr: 0x10001AF8C, symSize: 0xCC }
  - { offsetInCU: 0x2C403, offset: 0x2C403, size: 0x8, addend: 0x0, symName: __ZNKSt3__110unique_ptrINS_11__tree_nodeINS_4pairIiiEEPvEENS_22__tree_node_destructorINS_9allocatorIS5_EEEEE3getB8ue170006Ev, symObjAddr: 0x173D0, symBinAddr: 0x10001B058, symSize: 0x28 }
  - { offsetInCU: 0x2C427, offset: 0x2C427, size: 0x8, addend: 0x0, symName: __ZNSt3__110unique_ptrINS_11__tree_nodeINS_4pairIiiEEPvEENS_22__tree_node_destructorINS_9allocatorIS5_EEEEE7releaseB8ue170006Ev, symObjAddr: 0x173F8, symBinAddr: 0x10001B080, symSize: 0x44 }
  - { offsetInCU: 0x2C45B, offset: 0x2C45B, size: 0x8, addend: 0x0, symName: __ZNSt3__110unique_ptrINS_11__tree_nodeINS_4pairIiiEEPvEENS_22__tree_node_destructorINS_9allocatorIS5_EEEEED1B8ue170006Ev, symObjAddr: 0x1743C, symBinAddr: 0x10001B0C4, symSize: 0x2C }
  - { offsetInCU: 0x2C484, offset: 0x2C484, size: 0x8, addend: 0x0, symName: __ZNSt3__115__tree_iteratorINS_4pairIiiEEPNS_11__tree_nodeIS2_PvEElEC1B8ue170006ES6_, symObjAddr: 0x17468, symBinAddr: 0x10001B0F0, symSize: 0x34 }
  - { offsetInCU: 0x2C4C6, offset: 0x2C4C6, size: 0x8, addend: 0x0, symName: __ZNSt3__14pairINS_15__tree_iteratorINS0_IiiEEPNS_11__tree_nodeIS2_PvEElEEbEC1B8ue170006IS7_RbLS4_0EEEOT_OT0_, symObjAddr: 0x1749C, symBinAddr: 0x10001B124, symSize: 0x3C }
  - { offsetInCU: 0x2C522, offset: 0x2C522, size: 0x8, addend: 0x0, symName: __ZNKSt3__16__treeINS_4pairIiiEENS_4lessIS2_EENS_9allocatorIS2_EEE10__root_ptrB8ue170006Ev, symObjAddr: 0x174D8, symBinAddr: 0x10001B160, symSize: 0x24 }
  - { offsetInCU: 0x2C546, offset: 0x2C546, size: 0x8, addend: 0x0, symName: __ZNSt3__16__treeINS_4pairIiiEENS_4lessIS2_EENS_9allocatorIS2_EEE10value_compB8ue170006Ev, symObjAddr: 0x174FC, symBinAddr: 0x10001B184, symSize: 0x28 }
  - { offsetInCU: 0x2C56A, offset: 0x2C56A, size: 0x8, addend: 0x0, symName: __ZNSt3__117__compressed_pairImNS_4lessINS_4pairIiiEEEEE6secondB8ue170006Ev, symObjAddr: 0x17524, symBinAddr: 0x10001B1AC, symSize: 0x24 }
  - { offsetInCU: 0x2C58F, offset: 0x2C58F, size: 0x8, addend: 0x0, symName: __ZNSt3__122__compressed_pair_elemINS_4lessINS_4pairIiiEEEELi1ELb1EE5__getB8ue170006Ev, symObjAddr: 0x17548, symBinAddr: 0x10001B1D0, symSize: 0x14 }
  - { offsetInCU: 0x2C5B3, offset: 0x2C5B3, size: 0x8, addend: 0x0, symName: __ZNSt3__116allocator_traitsINS_9allocatorINS_11__tree_nodeINS_4pairIiiEEPvEEEEE8allocateB8ue170006ERS7_m, symObjAddr: 0x1755C, symBinAddr: 0x10001B1E4, symSize: 0x2C }
  - { offsetInCU: 0x2C5E6, offset: 0x2C5E6, size: 0x8, addend: 0x0, symName: __ZNSt3__122__tree_node_destructorINS_9allocatorINS_11__tree_nodeINS_4pairIiiEEPvEEEEEC1B8ue170006ERS7_b, symObjAddr: 0x17588, symBinAddr: 0x10001B210, symSize: 0x48 }
  - { offsetInCU: 0x2C632, offset: 0x2C632, size: 0x8, addend: 0x0, symName: __ZNSt3__110unique_ptrINS_11__tree_nodeINS_4pairIiiEEPvEENS_22__tree_node_destructorINS_9allocatorIS5_EEEEEC1B8ue170006ILb1EvEEPS5_NS_16__dependent_typeINS_27__unique_ptr_deleter_sfinaeIS9_EEXT_EE20__good_rval_ref_typeE, symObjAddr: 0x175D0, symBinAddr: 0x10001B258, symSize: 0x3C }
  - { offsetInCU: 0x2C681, offset: 0x2C681, size: 0x8, addend: 0x0, symName: __ZNSt3__116allocator_traitsINS_9allocatorINS_11__tree_nodeINS_4pairIiiEEPvEEEEE9constructB8ue170006IS4_JS4_EvEEvRS7_PT_DpOT0_, symObjAddr: 0x1760C, symBinAddr: 0x10001B294, symSize: 0x34 }
  - { offsetInCU: 0x2C6D7, offset: 0x2C6D7, size: 0x8, addend: 0x0, symName: __ZNKSt3__110unique_ptrINS_11__tree_nodeINS_4pairIiiEEPvEENS_22__tree_node_destructorINS_9allocatorIS5_EEEEEptB8ue170006Ev, symObjAddr: 0x17640, symBinAddr: 0x10001B2C8, symSize: 0x28 }
  - { offsetInCU: 0x2C6FB, offset: 0x2C6FB, size: 0x8, addend: 0x0, symName: __ZNSt3__110unique_ptrINS_11__tree_nodeINS_4pairIiiEEPvEENS_22__tree_node_destructorINS_9allocatorIS5_EEEEE11get_deleterB8ue170006Ev, symObjAddr: 0x17668, symBinAddr: 0x10001B2F0, symSize: 0x24 }
  - { offsetInCU: 0x2C71F, offset: 0x2C71F, size: 0x8, addend: 0x0, symName: __ZNSt3__19allocatorINS_11__tree_nodeINS_4pairIiiEEPvEEE8allocateB8ue170006Em, symObjAddr: 0x1768C, symBinAddr: 0x10001B314, symSize: 0x5C }
  - { offsetInCU: 0x2C75B, offset: 0x2C75B, size: 0x8, addend: 0x0, symName: __ZNSt3__116allocator_traitsINS_9allocatorINS_11__tree_nodeINS_4pairIiiEEPvEEEEE8max_sizeB8ue170006IS7_vEEmRKS7_, symObjAddr: 0x176E8, symBinAddr: 0x10001B370, symSize: 0x24 }
  - { offsetInCU: 0x2C789, offset: 0x2C789, size: 0x8, addend: 0x0, symName: __ZNKSt3__19allocatorINS_11__tree_nodeINS_4pairIiiEEPvEEE8max_sizeB8ue170006Ev, symObjAddr: 0x1770C, symBinAddr: 0x10001B394, symSize: 0x18 }
  - { offsetInCU: 0x2C7AE, offset: 0x2C7AE, size: 0x8, addend: 0x0, symName: __ZNSt3__122__tree_node_destructorINS_9allocatorINS_11__tree_nodeINS_4pairIiiEEPvEEEEEC2B8ue170006ERS7_b, symObjAddr: 0x17724, symBinAddr: 0x10001B3AC, symSize: 0x38 }
  - { offsetInCU: 0x2C7F5, offset: 0x2C7F5, size: 0x8, addend: 0x0, symName: __ZNSt3__110unique_ptrINS_11__tree_nodeINS_4pairIiiEEPvEENS_22__tree_node_destructorINS_9allocatorIS5_EEEEEC2B8ue170006ILb1EvEEPS5_NS_16__dependent_typeINS_27__unique_ptr_deleter_sfinaeIS9_EEXT_EE20__good_rval_ref_typeE, symObjAddr: 0x1775C, symBinAddr: 0x10001B3E4, symSize: 0x48 }
  - { offsetInCU: 0x2C845, offset: 0x2C845, size: 0x8, addend: 0x0, symName: __ZNSt3__117__compressed_pairIPNS_11__tree_nodeINS_4pairIiiEEPvEENS_22__tree_node_destructorINS_9allocatorIS5_EEEEEC1B8ue170006IRS6_SA_EEOT_OT0_, symObjAddr: 0x177A4, symBinAddr: 0x10001B42C, symSize: 0x3C }
  - { offsetInCU: 0x2C89C, offset: 0x2C89C, size: 0x8, addend: 0x0, symName: __ZNSt3__117__compressed_pairIPNS_11__tree_nodeINS_4pairIiiEEPvEENS_22__tree_node_destructorINS_9allocatorIS5_EEEEEC2B8ue170006IRS6_SA_EEOT_OT0_, symObjAddr: 0x177E0, symBinAddr: 0x10001B468, symSize: 0x48 }
  - { offsetInCU: 0x2C8F3, offset: 0x2C8F3, size: 0x8, addend: 0x0, symName: __ZNSt3__122__compressed_pair_elemIPNS_11__tree_nodeINS_4pairIiiEEPvEELi0ELb0EEC2B8ue170006IRS6_vEEOT_, symObjAddr: 0x17828, symBinAddr: 0x10001B4B0, symSize: 0x24 }
  - { offsetInCU: 0x2C934, offset: 0x2C934, size: 0x8, addend: 0x0, symName: __ZNSt3__122__compressed_pair_elemINS_22__tree_node_destructorINS_9allocatorINS_11__tree_nodeINS_4pairIiiEEPvEEEEEELi1ELb0EEC2B8ue170006IS9_vEEOT_, symObjAddr: 0x1784C, symBinAddr: 0x10001B4D4, symSize: 0x24 }
  - { offsetInCU: 0x2C975, offset: 0x2C975, size: 0x8, addend: 0x0, symName: __ZNSt3__19allocatorINS_11__tree_nodeINS_4pairIiiEEPvEEE9constructB8ue170006IS3_JS3_EEEvPT_DpOT0_, symObjAddr: 0x17870, symBinAddr: 0x10001B4F8, symSize: 0x28 }
  - { offsetInCU: 0x2C9C9, offset: 0x2C9C9, size: 0x8, addend: 0x0, symName: __ZNKSt3__117__compressed_pairIPNS_11__tree_nodeINS_4pairIiiEEPvEENS_22__tree_node_destructorINS_9allocatorIS5_EEEEE5firstB8ue170006Ev, symObjAddr: 0x17898, symBinAddr: 0x10001B520, symSize: 0x24 }
  - { offsetInCU: 0x2C9EE, offset: 0x2C9EE, size: 0x8, addend: 0x0, symName: __ZNKSt3__122__compressed_pair_elemIPNS_11__tree_nodeINS_4pairIiiEEPvEELi0ELb0EE5__getB8ue170006Ev, symObjAddr: 0x178BC, symBinAddr: 0x10001B544, symSize: 0x14 }
  - { offsetInCU: 0x2CA12, offset: 0x2CA12, size: 0x8, addend: 0x0, symName: __ZNSt3__117__compressed_pairIPNS_11__tree_nodeINS_4pairIiiEEPvEENS_22__tree_node_destructorINS_9allocatorIS5_EEEEE6secondB8ue170006Ev, symObjAddr: 0x178D0, symBinAddr: 0x10001B558, symSize: 0x28 }
  - { offsetInCU: 0x2CA37, offset: 0x2CA37, size: 0x8, addend: 0x0, symName: __ZNSt3__122__compressed_pair_elemINS_22__tree_node_destructorINS_9allocatorINS_11__tree_nodeINS_4pairIiiEEPvEEEEEELi1ELb0EE5__getB8ue170006Ev, symObjAddr: 0x178F8, symBinAddr: 0x10001B580, symSize: 0x14 }
  - { offsetInCU: 0x2CA5B, offset: 0x2CA5B, size: 0x8, addend: 0x0, symName: __ZNSt3__16__treeINS_4pairIiiEENS_4lessIS2_EENS_9allocatorIS2_EEE4sizeB8ue170006Ev, symObjAddr: 0x17C38, symBinAddr: 0x10001B8C0, symSize: 0x28 }
  - { offsetInCU: 0x2CA80, offset: 0x2CA80, size: 0x8, addend: 0x0, symName: __ZNKSt3__116__tree_node_baseIPvE15__parent_unsafeB8ue170006Ev, symObjAddr: 0x17C60, symBinAddr: 0x10001B8E8, symSize: 0x18 }
  - { offsetInCU: 0x2CAA5, offset: 0x2CAA5, size: 0x8, addend: 0x0, symName: __ZNSt3__116__tree_node_baseIPvE12__set_parentB8ue170006EPS2_, symObjAddr: 0x17E48, symBinAddr: 0x10001BAD0, symSize: 0x20 }
  - { offsetInCU: 0x2CAD8, offset: 0x2CAD8, size: 0x8, addend: 0x0, symName: __ZNSt3__117__compressed_pairImNS_4lessINS_4pairIiiEEEEE5firstB8ue170006Ev, symObjAddr: 0x17E68, symBinAddr: 0x10001BAF0, symSize: 0x24 }
  - { offsetInCU: 0x2CAFD, offset: 0x2CAFD, size: 0x8, addend: 0x0, symName: __ZNSt3__122__compressed_pair_elemImLi0ELb0EE5__getB8ue170006Ev, symObjAddr: 0x17E8C, symBinAddr: 0x10001BB14, symSize: 0x14 }
  - { offsetInCU: 0x2CB21, offset: 0x2CB21, size: 0x8, addend: 0x0, symName: __ZNSt3__117__compressed_pairIPNS_11__tree_nodeINS_4pairIiiEEPvEENS_22__tree_node_destructorINS_9allocatorIS5_EEEEE5firstB8ue170006Ev, symObjAddr: 0x17EA0, symBinAddr: 0x10001BB28, symSize: 0x24 }
  - { offsetInCU: 0x2CB46, offset: 0x2CB46, size: 0x8, addend: 0x0, symName: __ZNSt3__122__compressed_pair_elemIPNS_11__tree_nodeINS_4pairIiiEEPvEELi0ELb0EE5__getB8ue170006Ev, symObjAddr: 0x17EC4, symBinAddr: 0x10001BB4C, symSize: 0x14 }
  - { offsetInCU: 0x2CB6B, offset: 0x2CB6B, size: 0x8, addend: 0x0, symName: __ZNSt3__110unique_ptrINS_11__tree_nodeINS_4pairIiiEEPvEENS_22__tree_node_destructorINS_9allocatorIS5_EEEEED2B8ue170006Ev, symObjAddr: 0x17ED8, symBinAddr: 0x10001BB60, symSize: 0x30 }
  - { offsetInCU: 0x2CB93, offset: 0x2CB93, size: 0x8, addend: 0x0, symName: __ZNSt3__110unique_ptrINS_11__tree_nodeINS_4pairIiiEEPvEENS_22__tree_node_destructorINS_9allocatorIS5_EEEEE5resetB8ue170006EPS5_, symObjAddr: 0x17F08, symBinAddr: 0x10001BB90, symSize: 0x78 }
  - { offsetInCU: 0x2CBD5, offset: 0x2CBD5, size: 0x8, addend: 0x0, symName: __ZNSt3__122__tree_node_destructorINS_9allocatorINS_11__tree_nodeINS_4pairIiiEEPvEEEEEclB8ue170006EPS6_, symObjAddr: 0x17F80, symBinAddr: 0x10001BC08, symSize: 0x88 }
  - { offsetInCU: 0x2CC09, offset: 0x2CC09, size: 0x8, addend: 0x0, symName: __ZNSt3__115__tree_iteratorINS_4pairIiiEEPNS_11__tree_nodeIS2_PvEElEC2B8ue170006ES6_, symObjAddr: 0x18008, symBinAddr: 0x10001BC90, symSize: 0x20 }
  - { offsetInCU: 0x2CC41, offset: 0x2CC41, size: 0x8, addend: 0x0, symName: __ZNSt3__14pairINS_15__tree_iteratorINS0_IiiEEPNS_11__tree_nodeIS2_PvEElEEbEC2B8ue170006IS7_RbLS4_0EEEOT_OT0_, symObjAddr: 0x18028, symBinAddr: 0x10001BCB0, symSize: 0x38 }
  - { offsetInCU: 0x2CC9E, offset: 0x2CC9E, size: 0x8, addend: 0x0, symName: __ZNSt3__14pairINS_21__tree_const_iteratorINS0_IiiEEPNS_11__tree_nodeIS2_PvEElEEbEC2B8ue170006INS_15__tree_iteratorIS2_S6_lEEbLS4_0EEEONS0_IT_T0_EE, symObjAddr: 0x18060, symBinAddr: 0x10001BCE8, symSize: 0x50 }
  - { offsetInCU: 0x2CCEE, offset: 0x2CCEE, size: 0x8, addend: 0x0, symName: __ZNSt3__121__tree_const_iteratorINS_4pairIiiEEPNS_11__tree_nodeIS2_PvEElEC1B8ue170006ENS_15__tree_iteratorIS2_S6_lEE, symObjAddr: 0x180B0, symBinAddr: 0x10001BD38, symSize: 0x34 }
  - { offsetInCU: 0x2CD26, offset: 0x2CD26, size: 0x8, addend: 0x0, symName: __ZNSt3__121__tree_const_iteratorINS_4pairIiiEEPNS_11__tree_nodeIS2_PvEElEC2B8ue170006ENS_15__tree_iteratorIS2_S6_lEE, symObjAddr: 0x180E4, symBinAddr: 0x10001BD6C, symSize: 0x20 }
  - { offsetInCU: 0x2CD5E, offset: 0x2CD5E, size: 0x8, addend: 0x0, symName: __ZNSt3__16vectorIP9IRunnableNS_9allocatorIS2_EEEC2B8ue170006Ev, symObjAddr: 0x18104, symBinAddr: 0x10001BD8C, symSize: 0x4C }
  - { offsetInCU: 0x2CD87, offset: 0x2CD87, size: 0x8, addend: 0x0, symName: __ZNSt3__117__compressed_pairIPP9IRunnableNS_9allocatorIS2_EEEC1B8ue170006IDnNS_18__default_init_tagEEEOT_OT0_, symObjAddr: 0x18150, symBinAddr: 0x10001BDD8, symSize: 0x3C }
  - { offsetInCU: 0x2CDDE, offset: 0x2CDDE, size: 0x8, addend: 0x0, symName: __ZNSt3__117__compressed_pairIPP9IRunnableNS_9allocatorIS2_EEEC2B8ue170006IDnNS_18__default_init_tagEEEOT_OT0_, symObjAddr: 0x1818C, symBinAddr: 0x10001BE14, symSize: 0x40 }
  - { offsetInCU: 0x2CE35, offset: 0x2CE35, size: 0x8, addend: 0x0, symName: __ZNSt3__122__compressed_pair_elemIPP9IRunnableLi0ELb0EEC2B8ue170006IDnvEEOT_, symObjAddr: 0x181CC, symBinAddr: 0x10001BE54, symSize: 0x1C }
  - { offsetInCU: 0x2CE76, offset: 0x2CE76, size: 0x8, addend: 0x0, symName: __ZNSt3__122__compressed_pair_elemINS_9allocatorIP9IRunnableEELi1ELb1EEC2B8ue170006ENS_18__default_init_tagE, symObjAddr: 0x181E8, symBinAddr: 0x10001BE70, symSize: 0x2C }
  - { offsetInCU: 0x2CEAA, offset: 0x2CEAA, size: 0x8, addend: 0x0, symName: __ZNSt3__19allocatorIP9IRunnableEC2B8ue170006Ev, symObjAddr: 0x18214, symBinAddr: 0x10001BE9C, symSize: 0x2C }
  - { offsetInCU: 0x2CED3, offset: 0x2CED3, size: 0x8, addend: 0x0, symName: __ZNSt3__116__non_trivial_ifILb1ENS_9allocatorIP9IRunnableEEEC2B8ue170006Ev, symObjAddr: 0x18240, symBinAddr: 0x10001BEC8, symSize: 0x14 }
  - { offsetInCU: 0x2CEFC, offset: 0x2CEFC, size: 0x8, addend: 0x0, symName: __ZNSt3__16vectorIP9IRunnableNS_9allocatorIS2_EEED2B8ue170006Ev, symObjAddr: 0x18254, symBinAddr: 0x10001BEDC, symSize: 0x44 }
  - { offsetInCU: 0x2CF25, offset: 0x2CF25, size: 0x8, addend: 0x0, symName: __ZNSt3__16vectorIP9IRunnableNS_9allocatorIS2_EEE16__destroy_vectorC1B8ue170006ERS5_, symObjAddr: 0x18298, symBinAddr: 0x10001BF20, symSize: 0x34 }
  - { offsetInCU: 0x2CF5C, offset: 0x2CF5C, size: 0x8, addend: 0x0, symName: __ZNSt3__16vectorIP9IRunnableNS_9allocatorIS2_EEE16__destroy_vectorclB8ue170006Ev, symObjAddr: 0x182CC, symBinAddr: 0x10001BF54, symSize: 0x90 }
  - { offsetInCU: 0x2CF81, offset: 0x2CF81, size: 0x8, addend: 0x0, symName: __ZNSt3__16vectorIP9IRunnableNS_9allocatorIS2_EEE16__destroy_vectorC2B8ue170006ERS5_, symObjAddr: 0x1835C, symBinAddr: 0x10001BFE4, symSize: 0x20 }
  - { offsetInCU: 0x2CFB8, offset: 0x2CFB8, size: 0x8, addend: 0x0, symName: __ZNSt3__16vectorIP9IRunnableNS_9allocatorIS2_EEE7__clearB8ue170006Ev, symObjAddr: 0x1837C, symBinAddr: 0x10001C004, symSize: 0x28 }
  - { offsetInCU: 0x2CFDC, offset: 0x2CFDC, size: 0x8, addend: 0x0, symName: __ZNKSt3__16vectorIP9IRunnableNS_9allocatorIS2_EEE17__annotate_deleteB8ue170006Ev, symObjAddr: 0x183A4, symBinAddr: 0x10001C02C, symSize: 0xB8 }
  - { offsetInCU: 0x2D000, offset: 0x2D000, size: 0x8, addend: 0x0, symName: __ZNSt3__116allocator_traitsINS_9allocatorIP9IRunnableEEE10deallocateB8ue170006ERS4_PS3_m, symObjAddr: 0x1845C, symBinAddr: 0x10001C0E4, symSize: 0x34 }
  - { offsetInCU: 0x2D041, offset: 0x2D041, size: 0x8, addend: 0x0, symName: __ZNSt3__16vectorIP9IRunnableNS_9allocatorIS2_EEE7__allocB8ue170006Ev, symObjAddr: 0x18490, symBinAddr: 0x10001C118, symSize: 0x28 }
  - { offsetInCU: 0x2D065, offset: 0x2D065, size: 0x8, addend: 0x0, symName: __ZNKSt3__16vectorIP9IRunnableNS_9allocatorIS2_EEE8capacityB8ue170006Ev, symObjAddr: 0x184B8, symBinAddr: 0x10001C140, symSize: 0x40 }
  - { offsetInCU: 0x2D089, offset: 0x2D089, size: 0x8, addend: 0x0, symName: __ZNSt3__16vectorIP9IRunnableNS_9allocatorIS2_EEE22__base_destruct_at_endB8ue170006EPS2_, symObjAddr: 0x184F8, symBinAddr: 0x10001C180, symSize: 0x8C }
  - { offsetInCU: 0x2D0CB, offset: 0x2D0CB, size: 0x8, addend: 0x0, symName: __ZNSt3__116allocator_traitsINS_9allocatorIP9IRunnableEEE7destroyB8ue170006IS3_vEEvRS4_PT_, symObjAddr: 0x18584, symBinAddr: 0x10001C20C, symSize: 0x2C }
  - { offsetInCU: 0x2D108, offset: 0x2D108, size: 0x8, addend: 0x0, symName: __ZNSt3__19allocatorIP9IRunnableE7destroyB8ue170006EPS2_, symObjAddr: 0x185C4, symBinAddr: 0x10001C24C, symSize: 0x14 }
  - { offsetInCU: 0x2D13B, offset: 0x2D13B, size: 0x8, addend: 0x0, symName: __ZNKSt3__16vectorIP9IRunnableNS_9allocatorIS2_EEE31__annotate_contiguous_containerB8ue170006EPKvS7_S7_S7_, symObjAddr: 0x185D8, symBinAddr: 0x10001C260, symSize: 0x20 }
  - { offsetInCU: 0x2D18B, offset: 0x2D18B, size: 0x8, addend: 0x0, symName: __ZNKSt3__16vectorIP9IRunnableNS_9allocatorIS2_EEE4dataB8ue170006Ev, symObjAddr: 0x185F8, symBinAddr: 0x10001C280, symSize: 0x28 }
  - { offsetInCU: 0x2D1B0, offset: 0x2D1B0, size: 0x8, addend: 0x0, symName: __ZNKSt3__16vectorIP9IRunnableNS_9allocatorIS2_EEE4sizeB8ue170006Ev, symObjAddr: 0x18620, symBinAddr: 0x10001C2A8, symSize: 0x28 }
  - { offsetInCU: 0x2D1D4, offset: 0x2D1D4, size: 0x8, addend: 0x0, symName: __ZNSt3__19allocatorIP9IRunnableE10deallocateB8ue170006EPS2_m, symObjAddr: 0x18648, symBinAddr: 0x10001C2D0, symSize: 0x40 }
  - { offsetInCU: 0x2D214, offset: 0x2D214, size: 0x8, addend: 0x0, symName: __ZNSt3__117__compressed_pairIPP9IRunnableNS_9allocatorIS2_EEE6secondB8ue170006Ev, symObjAddr: 0x18688, symBinAddr: 0x10001C310, symSize: 0x24 }
  - { offsetInCU: 0x2D239, offset: 0x2D239, size: 0x8, addend: 0x0, symName: __ZNSt3__122__compressed_pair_elemINS_9allocatorIP9IRunnableEELi1ELb1EE5__getB8ue170006Ev, symObjAddr: 0x186AC, symBinAddr: 0x10001C334, symSize: 0x14 }
  - { offsetInCU: 0x2D25D, offset: 0x2D25D, size: 0x8, addend: 0x0, symName: __ZNKSt3__16vectorIP9IRunnableNS_9allocatorIS2_EEE9__end_capB8ue170006Ev, symObjAddr: 0x186C0, symBinAddr: 0x10001C348, symSize: 0x28 }
  - { offsetInCU: 0x2D281, offset: 0x2D281, size: 0x8, addend: 0x0, symName: __ZNKSt3__117__compressed_pairIPP9IRunnableNS_9allocatorIS2_EEE5firstB8ue170006Ev, symObjAddr: 0x186E8, symBinAddr: 0x10001C370, symSize: 0x24 }
  - { offsetInCU: 0x2D2A6, offset: 0x2D2A6, size: 0x8, addend: 0x0, symName: __ZNKSt3__122__compressed_pair_elemIPP9IRunnableLi0ELb0EE5__getB8ue170006Ev, symObjAddr: 0x1870C, symBinAddr: 0x10001C394, symSize: 0x14 }
  - { offsetInCU: 0x2D2CA, offset: 0x2D2CA, size: 0x8, addend: 0x0, symName: __ZNSt3__16vectorIP9IRunnableNS_9allocatorIS2_EEE9__end_capB8ue170006Ev, symObjAddr: 0x18720, symBinAddr: 0x10001C3A8, symSize: 0x28 }
  - { offsetInCU: 0x2D2F3, offset: 0x2D2F3, size: 0x8, addend: 0x0, symName: __ZNSt3__16vectorIP9IRunnableNS_9allocatorIS2_EEE22__construct_one_at_endB8ue170006IJS2_EEEvDpOT_, symObjAddr: 0x18748, symBinAddr: 0x10001C3D0, symSize: 0x90 }
  - { offsetInCU: 0x2D340, offset: 0x2D340, size: 0x8, addend: 0x0, symName: __ZNSt3__16vectorIP9IRunnableNS_9allocatorIS2_EEE21__push_back_slow_pathIS2_EEvOT_, symObjAddr: 0x187D8, symBinAddr: 0x10001C460, symSize: 0xD8 }
  - { offsetInCU: 0x2D39C, offset: 0x2D39C, size: 0x8, addend: 0x0, symName: __ZNSt3__117__compressed_pairIPP9IRunnableNS_9allocatorIS2_EEE5firstB8ue170006Ev, symObjAddr: 0x188B0, symBinAddr: 0x10001C538, symSize: 0x24 }
  - { offsetInCU: 0x2D3C1, offset: 0x2D3C1, size: 0x8, addend: 0x0, symName: __ZNSt3__122__compressed_pair_elemIPP9IRunnableLi0ELb0EE5__getB8ue170006Ev, symObjAddr: 0x188D4, symBinAddr: 0x10001C55C, symSize: 0x14 }
  - { offsetInCU: 0x2D3FF, offset: 0x2D3FF, size: 0x8, addend: 0x0, symName: __ZNSt3__16vectorIP9IRunnableNS_9allocatorIS2_EEE21_ConstructTransactionC1B8ue170006ERS5_m, symObjAddr: 0x188E8, symBinAddr: 0x10001C570, symSize: 0x3C }
  - { offsetInCU: 0x2D445, offset: 0x2D445, size: 0x8, addend: 0x0, symName: __ZNSt3__116allocator_traitsINS_9allocatorIP9IRunnableEEE9constructB8ue170006IS3_JS3_EvEEvRS4_PT_DpOT0_, symObjAddr: 0x18924, symBinAddr: 0x10001C5AC, symSize: 0x34 }
  - { offsetInCU: 0x2D49C, offset: 0x2D49C, size: 0x8, addend: 0x0, symName: __ZNSt3__16vectorIP9IRunnableNS_9allocatorIS2_EEE21_ConstructTransactionD1B8ue170006Ev, symObjAddr: 0x18958, symBinAddr: 0x10001C5E0, symSize: 0x2C }
  - { offsetInCU: 0x2D4C5, offset: 0x2D4C5, size: 0x8, addend: 0x0, symName: __ZNSt3__16vectorIP9IRunnableNS_9allocatorIS2_EEE21_ConstructTransactionC2B8ue170006ERS5_m, symObjAddr: 0x18984, symBinAddr: 0x10001C60C, symSize: 0x44 }
  - { offsetInCU: 0x2D50C, offset: 0x2D50C, size: 0x8, addend: 0x0, symName: __ZNSt3__19allocatorIP9IRunnableE9constructB8ue170006IS2_JS2_EEEvPT_DpOT0_, symObjAddr: 0x189C8, symBinAddr: 0x10001C650, symSize: 0x28 }
  - { offsetInCU: 0x2D561, offset: 0x2D561, size: 0x8, addend: 0x0, symName: __ZNSt3__16vectorIP9IRunnableNS_9allocatorIS2_EEE21_ConstructTransactionD2B8ue170006Ev, symObjAddr: 0x189F0, symBinAddr: 0x10001C678, symSize: 0x20 }
  - { offsetInCU: 0x2D589, offset: 0x2D589, size: 0x8, addend: 0x0, symName: __ZNKSt3__16vectorIP9IRunnableNS_9allocatorIS2_EEE11__recommendB8ue170006Em, symObjAddr: 0x18A10, symBinAddr: 0x10001C698, symSize: 0xB4 }
  - { offsetInCU: 0x2D5DD, offset: 0x2D5DD, size: 0x8, addend: 0x0, symName: __ZNSt3__114__split_bufferIP9IRunnableRNS_9allocatorIS2_EEEC1EmmS5_, symObjAddr: 0x18AC4, symBinAddr: 0x10001C74C, symSize: 0x44 }
  - { offsetInCU: 0x2D632, offset: 0x2D632, size: 0x8, addend: 0x0, symName: __ZNSt3__114__split_bufferIP9IRunnableRNS_9allocatorIS2_EEED1Ev, symObjAddr: 0x18C18, symBinAddr: 0x10001C8A0, symSize: 0x2C }
  - { offsetInCU: 0x2D65C, offset: 0x2D65C, size: 0x8, addend: 0x0, symName: __ZNKSt3__16vectorIP9IRunnableNS_9allocatorIS2_EEE8max_sizeEv, symObjAddr: 0x18C44, symBinAddr: 0x10001C8CC, symSize: 0x60 }
  - { offsetInCU: 0x2D682, offset: 0x2D682, size: 0x8, addend: 0x0, symName: __ZNKSt3__16vectorIP9IRunnableNS_9allocatorIS2_EEE20__throw_length_errorB8ue170006Ev, symObjAddr: 0x18CA4, symBinAddr: 0x10001C92C, symSize: 0x1C }
  - { offsetInCU: 0x2D6B0, offset: 0x2D6B0, size: 0x8, addend: 0x0, symName: __ZNSt3__116allocator_traitsINS_9allocatorIP9IRunnableEEE8max_sizeB8ue170006IS4_vEEmRKS4_, symObjAddr: 0x18CC0, symBinAddr: 0x10001C948, symSize: 0x24 }
  - { offsetInCU: 0x2D6DD, offset: 0x2D6DD, size: 0x8, addend: 0x0, symName: __ZNKSt3__16vectorIP9IRunnableNS_9allocatorIS2_EEE7__allocB8ue170006Ev, symObjAddr: 0x18CE4, symBinAddr: 0x10001C96C, symSize: 0x28 }
  - { offsetInCU: 0x2D702, offset: 0x2D702, size: 0x8, addend: 0x0, symName: __ZNKSt3__19allocatorIP9IRunnableE8max_sizeB8ue170006Ev, symObjAddr: 0x18D0C, symBinAddr: 0x10001C994, symSize: 0x14 }
  - { offsetInCU: 0x2D726, offset: 0x2D726, size: 0x8, addend: 0x0, symName: __ZNKSt3__117__compressed_pairIPP9IRunnableNS_9allocatorIS2_EEE6secondB8ue170006Ev, symObjAddr: 0x18D20, symBinAddr: 0x10001C9A8, symSize: 0x24 }
  - { offsetInCU: 0x2D74B, offset: 0x2D74B, size: 0x8, addend: 0x0, symName: __ZNKSt3__122__compressed_pair_elemINS_9allocatorIP9IRunnableEELi1ELb1EE5__getB8ue170006Ev, symObjAddr: 0x18D44, symBinAddr: 0x10001C9CC, symSize: 0x14 }
  - { offsetInCU: 0x2D770, offset: 0x2D770, size: 0x8, addend: 0x0, symName: __ZNSt3__114__split_bufferIP9IRunnableRNS_9allocatorIS2_EEEC2EmmS5_, symObjAddr: 0x18D58, symBinAddr: 0x10001C9E0, symSize: 0xD4 }
  - { offsetInCU: 0x2D7E2, offset: 0x2D7E2, size: 0x8, addend: 0x0, symName: __ZNSt3__117__compressed_pairIPP9IRunnableRNS_9allocatorIS2_EEEC1B8ue170006IDnS6_EEOT_OT0_, symObjAddr: 0x18E2C, symBinAddr: 0x10001CAB4, symSize: 0x3C }
  - { offsetInCU: 0x2D838, offset: 0x2D838, size: 0x8, addend: 0x0, symName: __ZNSt3__114__split_bufferIP9IRunnableRNS_9allocatorIS2_EEE7__allocB8ue170006Ev, symObjAddr: 0x18EA8, symBinAddr: 0x10001CB30, symSize: 0x28 }
  - { offsetInCU: 0x2D85C, offset: 0x2D85C, size: 0x8, addend: 0x0, symName: __ZNSt3__114__split_bufferIP9IRunnableRNS_9allocatorIS2_EEE9__end_capB8ue170006Ev, symObjAddr: 0x18ED0, symBinAddr: 0x10001CB58, symSize: 0x28 }
  - { offsetInCU: 0x2D881, offset: 0x2D881, size: 0x8, addend: 0x0, symName: __ZNSt3__117__compressed_pairIPP9IRunnableRNS_9allocatorIS2_EEEC2B8ue170006IDnS6_EEOT_OT0_, symObjAddr: 0x18EF8, symBinAddr: 0x10001CB80, symSize: 0x48 }
  - { offsetInCU: 0x2D8D8, offset: 0x2D8D8, size: 0x8, addend: 0x0, symName: __ZNSt3__122__compressed_pair_elemIRNS_9allocatorIP9IRunnableEELi1ELb0EEC2B8ue170006IS5_vEEOT_, symObjAddr: 0x18F40, symBinAddr: 0x10001CBC8, symSize: 0x20 }
  - { offsetInCU: 0x2D918, offset: 0x2D918, size: 0x8, addend: 0x0, symName: __ZNSt3__19allocatorIP9IRunnableE8allocateB8ue170006Em, symObjAddr: 0x18F60, symBinAddr: 0x10001CBE8, symSize: 0x58 }
  - { offsetInCU: 0x2D94A, offset: 0x2D94A, size: 0x8, addend: 0x0, symName: __ZNSt3__117__compressed_pairIPP9IRunnableRNS_9allocatorIS2_EEE6secondB8ue170006Ev, symObjAddr: 0x18FB8, symBinAddr: 0x10001CC40, symSize: 0x28 }
  - { offsetInCU: 0x2D96F, offset: 0x2D96F, size: 0x8, addend: 0x0, symName: __ZNSt3__122__compressed_pair_elemIRNS_9allocatorIP9IRunnableEELi1ELb0EE5__getB8ue170006Ev, symObjAddr: 0x18FE0, symBinAddr: 0x10001CC68, symSize: 0x18 }
  - { offsetInCU: 0x2D993, offset: 0x2D993, size: 0x8, addend: 0x0, symName: __ZNSt3__117__compressed_pairIPP9IRunnableRNS_9allocatorIS2_EEE5firstB8ue170006Ev, symObjAddr: 0x18FF8, symBinAddr: 0x10001CC80, symSize: 0x24 }
  - { offsetInCU: 0x2D9B8, offset: 0x2D9B8, size: 0x8, addend: 0x0, symName: __ZNSt3__116reverse_iteratorIPP9IRunnableEC1B8ue170006ES3_, symObjAddr: 0x19094, symBinAddr: 0x10001CD1C, symSize: 0x34 }
  - { offsetInCU: 0x2D9EF, offset: 0x2D9EF, size: 0x8, addend: 0x0, symName: __ZNKSt3__116reverse_iteratorIPP9IRunnableE4baseB8ue170006Ev, symObjAddr: 0x190C8, symBinAddr: 0x10001CD50, symSize: 0x18 }
  - { offsetInCU: 0x2DA13, offset: 0x2DA13, size: 0x8, addend: 0x0, symName: __ZNKSt3__16vectorIP9IRunnableNS_9allocatorIS2_EEE14__annotate_newB8ue170006Em, symObjAddr: 0x1911C, symBinAddr: 0x10001CDA4, symSize: 0xAC }
  - { offsetInCU: 0x2DA5F, offset: 0x2DA5F, size: 0x8, addend: 0x0, symName: __ZNKSt3__111__move_loopINS_17_ClassicAlgPolicyEEclB8ue170006INS_16reverse_iteratorIPP9IRunnableEES8_S8_EENS_4pairIT_T1_EESA_T0_SB_, symObjAddr: 0x194B8, symBinAddr: 0x10001D140, symSize: 0xA0 }
  - { offsetInCU: 0x2DAC8, offset: 0x2DAC8, size: 0x8, addend: 0x0, symName: __ZNSt3__18_IterOpsINS_17_ClassicAlgPolicyEE11__iter_moveB8ue170006IRNS_16reverse_iteratorIPP9IRunnableEEEENS_9enable_ifIXsr12is_referenceIDTdeclsr3stdE7declvalIRT_EEEEE5valueEDTclsr3stdE4movedeclsr3stdE7declvalISC_EEEEE4typeEOSB_, symObjAddr: 0x196EC, symBinAddr: 0x10001D374, symSize: 0x28 }
  - { offsetInCU: 0x2DAF4, offset: 0x2DAF4, size: 0x8, addend: 0x0, symName: __ZNKSt3__116reverse_iteratorIPP9IRunnableEdeB8ue170006Ev, symObjAddr: 0x19714, symBinAddr: 0x10001D39C, symSize: 0x28 }
  - { offsetInCU: 0x2DB27, offset: 0x2DB27, size: 0x8, addend: 0x0, symName: __ZNSt3__116reverse_iteratorIPP9IRunnableEppB8ue170006Ev, symObjAddr: 0x1973C, symBinAddr: 0x10001D3C4, symSize: 0x20 }
  - { offsetInCU: 0x2DB4C, offset: 0x2DB4C, size: 0x8, addend: 0x0, symName: __ZNSt3__18_IterOpsINS_17_ClassicAlgPolicyEE25__validate_iter_referenceB8ue170006IRNS_16reverse_iteratorIPP9IRunnableEEEEvv, symObjAddr: 0x1975C, symBinAddr: 0x10001D3E4, symSize: 0x4 }
  - { offsetInCU: 0x2DB6A, offset: 0x2DB6A, size: 0x8, addend: 0x0, symName: __ZNSt3__118__unwrap_iter_implINS_16reverse_iteratorIPP9IRunnableEELb0EE8__unwrapB8ue170006ES5_, symObjAddr: 0x19760, symBinAddr: 0x10001D3E8, symSize: 0x24 }
  - { offsetInCU: 0x2DB92, offset: 0x2DB92, size: 0x8, addend: 0x0, symName: __ZNSt3__14pairINS_16reverse_iteratorIPP9IRunnableEES5_EC1B8ue170006IS5_S5_LPv0EEEOT_OT0_, symObjAddr: 0x19784, symBinAddr: 0x10001D40C, symSize: 0x3C }
  - { offsetInCU: 0x2DBEF, offset: 0x2DBEF, size: 0x8, addend: 0x0, symName: __ZNSt3__14pairINS_16reverse_iteratorIPP9IRunnableEES5_EC2B8ue170006IS5_S5_LPv0EEEOT_OT0_, symObjAddr: 0x197C0, symBinAddr: 0x10001D448, symSize: 0x34 }
  - { offsetInCU: 0x2DC4C, offset: 0x2DC4C, size: 0x8, addend: 0x0, symName: __ZNSt3__118__unwrap_iter_implINS_16reverse_iteratorIPP9IRunnableEELb0EE8__rewrapB8ue170006ES5_S5_, symObjAddr: 0x197F4, symBinAddr: 0x10001D47C, symSize: 0x2C }
  - { offsetInCU: 0x2DC7A, offset: 0x2DC7A, size: 0x8, addend: 0x0, symName: __ZNSt3__116reverse_iteratorIPP9IRunnableEC2B8ue170006ES3_, symObjAddr: 0x19820, symBinAddr: 0x10001D4A8, symSize: 0x28 }
  - { offsetInCU: 0x2DCB1, offset: 0x2DCB1, size: 0x8, addend: 0x0, symName: __ZNSt3__114__split_bufferIP9IRunnableRNS_9allocatorIS2_EEED2Ev, symObjAddr: 0x19848, symBinAddr: 0x10001D4D0, symSize: 0x8C }
  - { offsetInCU: 0x2DCDB, offset: 0x2DCDB, size: 0x8, addend: 0x0, symName: __ZNSt3__114__split_bufferIP9IRunnableRNS_9allocatorIS2_EEE5clearB8ue170006Ev, symObjAddr: 0x198D4, symBinAddr: 0x10001D55C, symSize: 0x28 }
  - { offsetInCU: 0x2DCFF, offset: 0x2DCFF, size: 0x8, addend: 0x0, symName: __ZNKSt3__114__split_bufferIP9IRunnableRNS_9allocatorIS2_EEE8capacityB8ue170006Ev, symObjAddr: 0x198FC, symBinAddr: 0x10001D584, symSize: 0x40 }
  - { offsetInCU: 0x2DD23, offset: 0x2DD23, size: 0x8, addend: 0x0, symName: __ZNSt3__114__split_bufferIP9IRunnableRNS_9allocatorIS2_EEE17__destruct_at_endB8ue170006EPS2_, symObjAddr: 0x1993C, symBinAddr: 0x10001D5C4, symSize: 0x2C }
  - { offsetInCU: 0x2DD55, offset: 0x2DD55, size: 0x8, addend: 0x0, symName: __ZNSt3__114__split_bufferIP9IRunnableRNS_9allocatorIS2_EEE17__destruct_at_endB8ue170006EPS2_NS_17integral_constantIbLb0EEE, symObjAddr: 0x19968, symBinAddr: 0x10001D5F0, symSize: 0x80 }
  - { offsetInCU: 0x2DD94, offset: 0x2DD94, size: 0x8, addend: 0x0, symName: __ZNKSt3__114__split_bufferIP9IRunnableRNS_9allocatorIS2_EEE9__end_capB8ue170006Ev, symObjAddr: 0x199E8, symBinAddr: 0x10001D670, symSize: 0x28 }
  - { offsetInCU: 0x2DDB8, offset: 0x2DDB8, size: 0x8, addend: 0x0, symName: __ZNKSt3__117__compressed_pairIPP9IRunnableRNS_9allocatorIS2_EEE5firstB8ue170006Ev, symObjAddr: 0x19A10, symBinAddr: 0x10001D698, symSize: 0x24 }
  - { offsetInCU: 0x2DDDC, offset: 0x2DDDC, size: 0x8, addend: 0x0, symName: __ZNSt3__16vectorIiNS_9allocatorIiEEE11__make_iterB8ue170006EPi, symObjAddr: 0x19A34, symBinAddr: 0x10001D6BC, symSize: 0x30 }
  - { offsetInCU: 0x2DE10, offset: 0x2DE10, size: 0x8, addend: 0x0, symName: __ZNSt3__111__wrap_iterIPiEC1B8ue170006ES1_, symObjAddr: 0x19A64, symBinAddr: 0x10001D6EC, symSize: 0x34 }
  - { offsetInCU: 0x2DE47, offset: 0x2DE47, size: 0x8, addend: 0x0, symName: __ZNSt3__111__wrap_iterIPiEC2B8ue170006ES1_, symObjAddr: 0x19A98, symBinAddr: 0x10001D720, symSize: 0x20 }
  - { offsetInCU: 0x2DE7D, offset: 0x2DE7D, size: 0x8, addend: 0x0, symName: __ZNKSt3__112basic_stringIcNS_11char_traitsIcEENS_9allocatorIcEEE4dataB8ue170006Ev, symObjAddr: 0x19AB8, symBinAddr: 0x10001D740, symSize: 0x28 }
  - { offsetInCU: 0x2DEA1, offset: 0x2DEA1, size: 0x8, addend: 0x0, symName: __ZNKSt3__112basic_stringIcNS_11char_traitsIcEENS_9allocatorIcEEE13__get_pointerB8ue170006Ev, symObjAddr: 0x19AF4, symBinAddr: 0x10001D77C, symSize: 0x54 }
  - { offsetInCU: 0x2DEC5, offset: 0x2DEC5, size: 0x8, addend: 0x0, symName: __ZNKSt3__112basic_stringIcNS_11char_traitsIcEENS_9allocatorIcEEE9__is_longB8ue170006Ev, symObjAddr: 0x19B48, symBinAddr: 0x10001D7D0, symSize: 0x38 }
  - { offsetInCU: 0x2DEE9, offset: 0x2DEE9, size: 0x8, addend: 0x0, symName: __ZNKSt3__112basic_stringIcNS_11char_traitsIcEENS_9allocatorIcEEE18__get_long_pointerB8ue170006Ev, symObjAddr: 0x19B80, symBinAddr: 0x10001D808, symSize: 0x28 }
  - { offsetInCU: 0x2DF0D, offset: 0x2DF0D, size: 0x8, addend: 0x0, symName: __ZNKSt3__112basic_stringIcNS_11char_traitsIcEENS_9allocatorIcEEE19__get_short_pointerB8ue170006Ev, symObjAddr: 0x19BA8, symBinAddr: 0x10001D830, symSize: 0x28 }
  - { offsetInCU: 0x2DF31, offset: 0x2DF31, size: 0x8, addend: 0x0, symName: __ZNKSt3__117__compressed_pairINS_12basic_stringIcNS_11char_traitsIcEENS_9allocatorIcEEE5__repES5_E5firstB8ue170006Ev, symObjAddr: 0x19BD0, symBinAddr: 0x10001D858, symSize: 0x24 }
  - { offsetInCU: 0x2DF56, offset: 0x2DF56, size: 0x8, addend: 0x0, symName: __ZNKSt3__122__compressed_pair_elemINS_12basic_stringIcNS_11char_traitsIcEENS_9allocatorIcEEE5__repELi0ELb0EE5__getB8ue170006Ev, symObjAddr: 0x19BF4, symBinAddr: 0x10001D87C, symSize: 0x14 }
  - { offsetInCU: 0x2DF7B, offset: 0x2DF7B, size: 0x8, addend: 0x0, symName: __ZNSt3__114pointer_traitsIPKcE10pointer_toB8ue170006ERS1_, symObjAddr: 0x19C08, symBinAddr: 0x10001D890, symSize: 0x14 }
  - { offsetInCU: 0x2DF9E, offset: 0x2DF9E, size: 0x8, addend: 0x0, symName: __ZNSt3__112basic_stringIcNS_11char_traitsIcEENS_9allocatorIcEEEC2B8ue170006Ev, symObjAddr: 0x19C1C, symBinAddr: 0x10001D8A4, symSize: 0x48 }
  - { offsetInCU: 0x2DFC6, offset: 0x2DFC6, size: 0x8, addend: 0x0, symName: __ZNSt3__112basic_stringIcNS_11char_traitsIcEENS_9allocatorIcEEE14__default_initB8ue170006Ev, symObjAddr: 0x19C64, symBinAddr: 0x10001D8EC, symSize: 0x40 }
  - { offsetInCU: 0x2DFEA, offset: 0x2DFEA, size: 0x8, addend: 0x0, symName: __ZNSt3__117__compressed_pairINS_12basic_stringIcNS_11char_traitsIcEENS_9allocatorIcEEE5__repES5_E5firstB8ue170006Ev, symObjAddr: 0x19CA4, symBinAddr: 0x10001D92C, symSize: 0x24 }
  - { offsetInCU: 0x2E00F, offset: 0x2E00F, size: 0x8, addend: 0x0, symName: __ZNSt3__122__compressed_pair_elemINS_12basic_stringIcNS_11char_traitsIcEENS_9allocatorIcEEE5__repELi0ELb0EE5__getB8ue170006Ev, symObjAddr: 0x19CC8, symBinAddr: 0x10001D950, symSize: 0x14 }
  - { offsetInCU: 0x2E033, offset: 0x2E033, size: 0x8, addend: 0x0, symName: __ZNKSt3__112basic_stringIcNS_11char_traitsIcEENS_9allocatorIcEEE7compareINS_17basic_string_viewIcS2_EELi0EEEiRKT_, symObjAddr: 0x19CDC, symBinAddr: 0x10001D964, symSize: 0x12C }
  - { offsetInCU: 0x2E0B4, offset: 0x2E0B4, size: 0x8, addend: 0x0, symName: __ZNKSt3__112basic_stringIcNS_11char_traitsIcEENS_9allocatorIcEEEcvNS_17basic_string_viewIcS2_EEB8ue170006Ev, symObjAddr: 0x19E08, symBinAddr: 0x10001DA90, symSize: 0x50 }
  - { offsetInCU: 0x2E0D8, offset: 0x2E0D8, size: 0x8, addend: 0x0, symName: __ZNKSt3__112basic_stringIcNS_11char_traitsIcEENS_9allocatorIcEEE4sizeB8ue170006Ev, symObjAddr: 0x19E58, symBinAddr: 0x10001DAE0, symSize: 0x54 }
  - { offsetInCU: 0x2E0FD, offset: 0x2E0FD, size: 0x8, addend: 0x0, symName: __ZNKSt3__117basic_string_viewIcNS_11char_traitsIcEEE4sizeB8ue170006Ev, symObjAddr: 0x19EAC, symBinAddr: 0x10001DB34, symSize: 0x18 }
  - { offsetInCU: 0x2E121, offset: 0x2E121, size: 0x8, addend: 0x0, symName: __ZNSt3__111char_traitsIcE7compareB8ue170006EPKcS3_m, symObjAddr: 0x19EC4, symBinAddr: 0x10001DB4C, symSize: 0x34 }
  - { offsetInCU: 0x2E160, offset: 0x2E160, size: 0x8, addend: 0x0, symName: __ZNKSt3__117basic_string_viewIcNS_11char_traitsIcEEE4dataB8ue170006Ev, symObjAddr: 0x19EF8, symBinAddr: 0x10001DB80, symSize: 0x18 }
  - { offsetInCU: 0x2E184, offset: 0x2E184, size: 0x8, addend: 0x0, symName: __ZNKSt3__112basic_stringIcNS_11char_traitsIcEENS_9allocatorIcEEE15__get_long_sizeB8ue170006Ev, symObjAddr: 0x19F10, symBinAddr: 0x10001DB98, symSize: 0x28 }
  - { offsetInCU: 0x2E1A8, offset: 0x2E1A8, size: 0x8, addend: 0x0, symName: __ZNKSt3__112basic_stringIcNS_11char_traitsIcEENS_9allocatorIcEEE16__get_short_sizeB8ue170006Ev, symObjAddr: 0x19F38, symBinAddr: 0x10001DBC0, symSize: 0x34 }
  - { offsetInCU: 0x2E1CD, offset: 0x2E1CD, size: 0x8, addend: 0x0, symName: __ZNSt3__117basic_string_viewIcNS_11char_traitsIcEEEC1B8ue170006EPKcm, symObjAddr: 0x19F6C, symBinAddr: 0x10001DBF4, symSize: 0x3C }
  - { offsetInCU: 0x2E214, offset: 0x2E214, size: 0x8, addend: 0x0, symName: __ZNSt3__117basic_string_viewIcNS_11char_traitsIcEEEC2B8ue170006EPKcm, symObjAddr: 0x19FA8, symBinAddr: 0x10001DC30, symSize: 0x2C }
  - { offsetInCU: 0x2E265, offset: 0x2E265, size: 0x8, addend: 0x0, symName: __ZNKSt3__16__lessIvvEclB8ue170006IddEEbRKT_RKT0_, symObjAddr: 0x1A028, symBinAddr: 0x10001DCB0, symSize: 0x34 }
  - { offsetInCU: 0x52, offset: 0x2E92D, size: 0x8, addend: 0x0, symName: __ZL22MAX_EXECUTION_CONTEXTS, symObjAddr: 0x126A0, symBinAddr: 0x10002DE8C, symSize: 0x0 }
  - { offsetInCU: 0x82, offset: 0x2E95D, size: 0x8, addend: 0x0, symName: __ZNSt3__1L19piecewise_constructE, symObjAddr: 0x12738, symBinAddr: 0x10002DF24, symSize: 0x0 }
  - { offsetInCU: 0x2C7E, offset: 0x31559, size: 0x8, addend: 0x0, symName: __ZNSt3__17advanceB8ue170006IPKillvEEvRT_T0_, symObjAddr: 0x4A8C, symBinAddr: 0x100021EEC, symSize: 0x38 }
  - { offsetInCU: 0x2CE9, offset: 0x315C4, size: 0x8, addend: 0x0, symName: __ZNSt3__17advanceB8ue170006IPillvEEvRT_T0_, symObjAddr: 0x5FC0, symBinAddr: 0x100022830, symSize: 0x38 }
  - { offsetInCU: 0xB53B, offset: 0x39E16, size: 0x8, addend: 0x0, symName: __ZNSt3__117__cxx_atomic_loadB8ue170006IbEET_PKNS_22__cxx_atomic_base_implIS1_EENS_12memory_orderE, symObjAddr: 0xA97C, symBinAddr: 0x100026AB4, symSize: 0x84 }
  - { offsetInCU: 0xC11A, offset: 0x3A9F5, size: 0x8, addend: 0x0, symName: __ZNSt3__117__cxx_atomic_loadB8ue170006IiEET_PKNS_22__cxx_atomic_base_implIS1_EENS_12memory_orderE, symObjAddr: 0x11C04, symBinAddr: 0x10002C4C8, symSize: 0x80 }
  - { offsetInCU: 0xCC62, offset: 0x3B53D, size: 0x8, addend: 0x0, symName: __ZNSt3__1neB8ue170006IPNS_6threadEEEbRKNS_11__wrap_iterIT_EES7_, symObjAddr: 0x1404, symBinAddr: 0x10001F07C, symSize: 0x34 }
  - { offsetInCU: 0xCCA5, offset: 0x3B580, size: 0x8, addend: 0x0, symName: __ZNSt3__1neB8ue170006ERKNS_19__hash_map_iteratorINS_15__hash_iteratorIPNS_11__hash_nodeINS_17__hash_value_typeIiP14BulkTaskLaunchEEPvEEEEEESD_, symObjAddr: 0x151C, symBinAddr: 0x10001F194, symSize: 0x30 }
  - { offsetInCU: 0xCCE2, offset: 0x3B5BD, size: 0x8, addend: 0x0, symName: __ZNSt3__1neB8ue170006IPKiEEbRKNS_11__wrap_iterIT_EES7_, symObjAddr: 0x2478, symBinAddr: 0x10001FF90, symSize: 0x34 }
  - { offsetInCU: 0xCD25, offset: 0x3B600, size: 0x8, addend: 0x0, symName: __ZNSt3__1neB8ue170006ERKNS_16__deque_iteratorIP14BulkTaskLaunchPS2_RS2_PS3_lLl512EEES8_, symObjAddr: 0x3014, symBinAddr: 0x10002099C, symSize: 0x34 }
  - { offsetInCU: 0xCD62, offset: 0x3B63D, size: 0x8, addend: 0x0, symName: __ZNSt3__1eqB8ue170006ERKNS_16__deque_iteratorIP14BulkTaskLaunchPS2_RS2_PS3_lLl512EEES8_, symObjAddr: 0x3360, symBinAddr: 0x100020CE8, symSize: 0x30 }
  - { offsetInCU: 0xCD9F, offset: 0x3B67A, size: 0x8, addend: 0x0, symName: __ZNSt3__112__to_addressB8ue170006IP14BulkTaskLaunchEEPT_S4_, symObjAddr: 0x39F0, symBinAddr: 0x100021364, symSize: 0x14 }
  - { offsetInCU: 0xCDD4, offset: 0x3B6AF, size: 0x8, addend: 0x0, symName: __ZNSt3__112__to_addressB8ue170006IPP14BulkTaskLaunchEEPT_S5_, symObjAddr: 0x3E38, symBinAddr: 0x100021730, symSize: 0x14 }
  - { offsetInCU: 0xCE09, offset: 0x3B6E4, size: 0x8, addend: 0x0, symName: __ZNSt3__1eqB8ue170006IPNS_6threadEEEbRKNS_11__wrap_iterIT_EES7_, symObjAddr: 0x3F38, symBinAddr: 0x100021830, symSize: 0x48 }
  - { offsetInCU: 0xCE4C, offset: 0x3B727, size: 0x8, addend: 0x0, symName: __ZNSt3__122__libcpp_thread_isnullB8ue170006EPKP17_opaque_pthread_t, symObjAddr: 0x3F98, symBinAddr: 0x100021890, symSize: 0x30 }
  - { offsetInCU: 0xCE7A, offset: 0x3B755, size: 0x8, addend: 0x0, symName: __ZNSt3__122__libcpp_thread_get_idB8ue170006EPKP17_opaque_pthread_t, symObjAddr: 0x3FC8, symBinAddr: 0x1000218C0, symSize: 0x18 }
  - { offsetInCU: 0xCEA8, offset: 0x3B783, size: 0x8, addend: 0x0, symName: __ZNSt3__18distanceB8ue170006IPKiEENS_15iterator_traitsIT_E15difference_typeES4_S4_, symObjAddr: 0x463C, symBinAddr: 0x100021D30, symSize: 0x2C }
  - { offsetInCU: 0xCEEB, offset: 0x3B7C6, size: 0x8, addend: 0x0, symName: __ZNSt3__14nextB8ue170006IPKiEENS_9enable_ifIXsr29__has_input_iterator_categoryIT_EE5valueES4_E4typeES4_NS_15iterator_traitsIS4_E15difference_typeE, symObjAddr: 0x46A8, symBinAddr: 0x100021D5C, symSize: 0x34 }
  - { offsetInCU: 0xCF2E, offset: 0x3B809, size: 0x8, addend: 0x0, symName: __ZNSt3__14copyB8ue170006IPKiPiEET0_T_S5_S4_, symObjAddr: 0x46DC, symBinAddr: 0x100021D90, symSize: 0x40 }
  - { offsetInCU: 0xCF88, offset: 0x3B863, size: 0x8, addend: 0x0, symName: __ZNSt3__16__copyB8ue170006INS_17_ClassicAlgPolicyEPKiS3_PiEENS_4pairIT0_T2_EES6_T1_S7_, symObjAddr: 0x47A8, symBinAddr: 0x100021E5C, symSize: 0x44 }
  - { offsetInCU: 0xCFF4, offset: 0x3B8CF, size: 0x8, addend: 0x0, symName: __ZNSt3__121__convert_to_integralB8ue170006El, symObjAddr: 0x4AC4, symBinAddr: 0x100021F24, symSize: 0x14 }
  - { offsetInCU: 0xD020, offset: 0x3B8FB, size: 0x8, addend: 0x0, symName: __ZNSt3__19__advanceB8ue170006IPKiEEvRT_NS_15iterator_traitsIS3_E15difference_typeENS_26random_access_iterator_tagE, symObjAddr: 0x4AD8, symBinAddr: 0x100021F38, symSize: 0x28 }
  - { offsetInCU: 0xD06B, offset: 0x3B946, size: 0x8, addend: 0x0, symName: __ZNSt3__130__uninitialized_allocator_copyB8ue170006INS_9allocatorIiEEPKiS4_PiEET2_RT_T0_T1_S6_, symObjAddr: 0x4B3C, symBinAddr: 0x100021F60, symSize: 0x80 }
  - { offsetInCU: 0xD108, offset: 0x3B9E3, size: 0x8, addend: 0x0, symName: __ZNSt3__114__unwrap_rangeB8ue170006IPKiS2_EENS_4pairIT0_S4_EET_S6_, symObjAddr: 0x4C54, symBinAddr: 0x100021FE0, symSize: 0x60 }
  - { offsetInCU: 0xD154, offset: 0x3BA2F, size: 0x8, addend: 0x0, symName: __ZNSt3__135__uninitialized_allocator_copy_implB8ue170006INS_9allocatorIiEEKiiiLPv0EEEPT2_RT_PT0_SA_S6_, symObjAddr: 0x4CB4, symBinAddr: 0x100022040, symSize: 0x38 }
  - { offsetInCU: 0xD1D5, offset: 0x3BAB0, size: 0x8, addend: 0x0, symName: __ZNSt3__19make_pairB8ue170006IPKiS2_EENS_4pairINS_18__unwrap_ref_decayIT_E4typeENS4_IT0_E4typeEEEOS5_OS8_, symObjAddr: 0x4D4C, symBinAddr: 0x100022078, symSize: 0x38 }
  - { offsetInCU: 0xD224, offset: 0x3BAFF, size: 0x8, addend: 0x0, symName: __ZNSt3__113__unwrap_iterB8ue170006IPKiNS_18__unwrap_iter_implIS2_Lb1EEELi0EEEDTclsrT0_8__unwrapclsr3stdE7declvalIT_EEEES6_, symObjAddr: 0x4D84, symBinAddr: 0x1000220B0, symSize: 0x24 }
  - { offsetInCU: 0xD38F, offset: 0x3BC6A, size: 0x8, addend: 0x0, symName: __ZNSt3__112__to_addressB8ue170006IKiEEPT_S3_, symObjAddr: 0x4E3C, symBinAddr: 0x100022168, symSize: 0x14 }
  - { offsetInCU: 0xD3C4, offset: 0x3BC9F, size: 0x8, addend: 0x0, symName: __ZNSt3__123__dispatch_copy_or_moveB8ue170006INS_17_ClassicAlgPolicyENS_11__copy_loopIS1_EENS_14__copy_trivialEPKiS6_PiEENS_4pairIT2_T4_EES9_T3_SA_, symObjAddr: 0x4F30, symBinAddr: 0x10002217C, symSize: 0x44 }
  - { offsetInCU: 0xD442, offset: 0x3BD1D, size: 0x8, addend: 0x0, symName: __ZNSt3__121__unwrap_and_dispatchB8ue170006INS_10__overloadINS_11__copy_loopINS_17_ClassicAlgPolicyEEENS_14__copy_trivialEEEPKiS8_PiLi0EEENS_4pairIT0_T2_EESB_T1_SC_, symObjAddr: 0x4F74, symBinAddr: 0x1000221C0, symSize: 0xB4 }
  - { offsetInCU: 0xD655, offset: 0x3BF30, size: 0x8, addend: 0x0, symName: __ZNSt3__19make_pairB8ue170006IPKiPiEENS_4pairINS_18__unwrap_ref_decayIT_E4typeENS5_IT0_E4typeEEEOS6_OS9_, symObjAddr: 0x5070, symBinAddr: 0x1000222BC, symSize: 0x38 }
  - { offsetInCU: 0xD6A4, offset: 0x3BF7F, size: 0x8, addend: 0x0, symName: __ZNSt3__114__rewrap_rangeB8ue170006IPKiS2_EET_S3_T0_, symObjAddr: 0x50A8, symBinAddr: 0x1000222F4, symSize: 0x2C }
  - { offsetInCU: 0xD6F0, offset: 0x3BFCB, size: 0x8, addend: 0x0, symName: __ZNSt3__119__copy_trivial_implB8ue170006IKiiEENS_4pairIPT_PT0_EES4_S4_S6_, symObjAddr: 0x50D4, symBinAddr: 0x100022320, symSize: 0x80 }
  - { offsetInCU: 0xD758, offset: 0x3C033, size: 0x8, addend: 0x0, symName: __ZNSt3__119__constexpr_memmoveB8ue170006IiKiLi0EEEPT_S3_PT0_NS_15__element_countE, symObjAddr: 0x5154, symBinAddr: 0x1000223A0, symSize: 0x64 }
  - { offsetInCU: 0xD7C6, offset: 0x3C0A1, size: 0x8, addend: 0x0, symName: __ZNSt3__19make_pairB8ue170006IRPKiPiEENS_4pairINS_18__unwrap_ref_decayIT_E4typeENS6_IT0_E4typeEEEOS7_OSA_, symObjAddr: 0x51B8, symBinAddr: 0x100022404, symSize: 0x38 }
  - { offsetInCU: 0xD815, offset: 0x3C0F0, size: 0x8, addend: 0x0, symName: __ZNSt3__113__rewrap_iterB8ue170006IPKiS2_NS_18__unwrap_iter_implIS2_Lb1EEEEET_S5_T0_, symObjAddr: 0x52D0, symBinAddr: 0x10002251C, symSize: 0x3C }
  - { offsetInCU: 0xD86A, offset: 0x3C145, size: 0x8, addend: 0x0, symName: __ZNSt3__110__distanceB8ue170006IPKiEENS_15iterator_traitsIT_E15difference_typeES4_S4_NS_26random_access_iterator_tagE, symObjAddr: 0x5C28, symBinAddr: 0x1000225A8, symSize: 0x28 }
  - { offsetInCU: 0xD8B8, offset: 0x3C193, size: 0x8, addend: 0x0, symName: __ZNSt3__18distanceB8ue170006IPiEENS_15iterator_traitsIT_E15difference_typeES3_S3_, symObjAddr: 0x5E50, symBinAddr: 0x1000227D0, symSize: 0x2C }
  - { offsetInCU: 0xD8FB, offset: 0x3C1D6, size: 0x8, addend: 0x0, symName: __ZNSt3__14nextB8ue170006IPiEENS_9enable_ifIXsr29__has_input_iterator_categoryIT_EE5valueES3_E4typeES3_NS_15iterator_traitsIS3_E15difference_typeE, symObjAddr: 0x5E7C, symBinAddr: 0x1000227FC, symSize: 0x34 }
  - { offsetInCU: 0xD93E, offset: 0x3C219, size: 0x8, addend: 0x0, symName: __ZNSt3__19__advanceB8ue170006IPiEEvRT_NS_15iterator_traitsIS2_E15difference_typeENS_26random_access_iterator_tagE, symObjAddr: 0x5FF8, symBinAddr: 0x100022868, symSize: 0x28 }
  - { offsetInCU: 0xD989, offset: 0x3C264, size: 0x8, addend: 0x0, symName: __ZNSt3__110__distanceB8ue170006IPiEENS_15iterator_traitsIT_E15difference_typeES3_S3_NS_26random_access_iterator_tagE, symObjAddr: 0x64D8, symBinAddr: 0x100022890, symSize: 0x28 }
  - { offsetInCU: 0xD9D7, offset: 0x3C2B2, size: 0x8, addend: 0x0, symName: __ZNSt3__1eqB8ue170006IPKiEEbRKNS_11__wrap_iterIT_EES7_, symObjAddr: 0x6500, symBinAddr: 0x1000228B8, symSize: 0x48 }
  - { offsetInCU: 0xDA1A, offset: 0x3C2F5, size: 0x8, addend: 0x0, symName: __ZNSt3__118__cxx_atomic_storeB8ue170006IiEEvPNS_22__cxx_atomic_base_implIT_EES2_NS_12memory_orderE, symObjAddr: 0x66BC, symBinAddr: 0x10002294C, symSize: 0x84 }
  - { offsetInCU: 0xDA6C, offset: 0x3C347, size: 0x8, addend: 0x0, symName: __ZNSt3__112__to_addressB8ue170006INS_6threadEEEPT_S3_, symObjAddr: 0x7894, symBinAddr: 0x100023A68, symSize: 0x14 }
  - { offsetInCU: 0xDAD4, offset: 0x3C3AF, size: 0x8, addend: 0x0, symName: __ZNSt3__118__cxx_atomic_storeB8ue170006IbEEvPNS_22__cxx_atomic_base_implIT_EES2_NS_12memory_orderE, symObjAddr: 0x82A0, symBinAddr: 0x100024460, symSize: 0x90 }
  - { offsetInCU: 0xDF23, offset: 0x3C7FE, size: 0x8, addend: 0x0, symName: __ZNSt3__122__libcpp_thread_createB8ue170006EPP17_opaque_pthread_tPFPvS3_ES3_, symObjAddr: 0x85C4, symBinAddr: 0x1000246FC, symSize: 0x38 }
  - { offsetInCU: 0xDF6F, offset: 0x3C84A, size: 0x8, addend: 0x0, symName: __ZNSt3__114__thread_proxyB8ue170006INS_5tupleIJNS_10unique_ptrINS_15__thread_structENS_14default_deleteIS3_EEEEM36TaskSystemParallelThreadPoolSleepingFviEPS7_iEEEEEPvSC_, symObjAddr: 0x85FC, symBinAddr: 0x100024734, symSize: 0x90 }
  - { offsetInCU: 0xE0D8, offset: 0x3C9B3, size: 0x8, addend: 0x0, symName: __ZNSt3__13getB8ue170006ILm0EJNS_10unique_ptrINS_15__thread_structENS_14default_deleteIS2_EEEEM36TaskSystemParallelThreadPoolSleepingFviEPS6_iEEERNS_13tuple_elementIXT_ENS_5tupleIJDpT0_EEEE4typeERSE_, symObjAddr: 0x8D48, symBinAddr: 0x100024E80, symSize: 0x24 }
  - { offsetInCU: 0xE12A, offset: 0x3CA05, size: 0x8, addend: 0x0, symName: __ZNSt3__116__thread_executeB8ue170006INS_10unique_ptrINS_15__thread_structENS_14default_deleteIS2_EEEEM36TaskSystemParallelThreadPoolSleepingFviEJPS6_iEJLm2ELm3EEEEvRNS_5tupleIJT_T0_DpT1_EEENS_15__tuple_indicesIJXspT2_EEEE, symObjAddr: 0x8D6C, symBinAddr: 0x100024EA4, symSize: 0x4C }
  - { offsetInCU: 0xE191, offset: 0x3CA6C, size: 0x8, addend: 0x0, symName: __ZNSt3__116__libcpp_tls_setB8ue170006EmPv, symObjAddr: 0x8DB8, symBinAddr: 0x100024EF0, symSize: 0x2C }
  - { offsetInCU: 0xE1CE, offset: 0x3CAA9, size: 0x8, addend: 0x0, symName: __ZNSt3__18__invokeB8ue170006IM36TaskSystemParallelThreadPoolSleepingFviEPS1_JiEvEEDTcldsdeclsr3stdE7declvalIT0_EEclsr3stdE7declvalIT_EEspclsr3stdE7declvalIT1_EEEEOS6_OS5_DpOS7_, symObjAddr: 0x8DF8, symBinAddr: 0x100024F30, symSize: 0x8C }
  - { offsetInCU: 0xE234, offset: 0x3CB0F, size: 0x8, addend: 0x0, symName: __ZNSt3__13getB8ue170006ILm1EJNS_10unique_ptrINS_15__thread_structENS_14default_deleteIS2_EEEEM36TaskSystemParallelThreadPoolSleepingFviEPS6_iEEERNS_13tuple_elementIXT_ENS_5tupleIJDpT0_EEEE4typeERSE_, symObjAddr: 0x8E84, symBinAddr: 0x100024FBC, symSize: 0x28 }
  - { offsetInCU: 0xE286, offset: 0x3CB61, size: 0x8, addend: 0x0, symName: __ZNSt3__13getB8ue170006ILm2EJNS_10unique_ptrINS_15__thread_structENS_14default_deleteIS2_EEEEM36TaskSystemParallelThreadPoolSleepingFviEPS6_iEEERNS_13tuple_elementIXT_ENS_5tupleIJDpT0_EEEE4typeERSE_, symObjAddr: 0x8EAC, symBinAddr: 0x100024FE4, symSize: 0x28 }
  - { offsetInCU: 0xE2D8, offset: 0x3CBB3, size: 0x8, addend: 0x0, symName: __ZNSt3__13getB8ue170006ILm3EJNS_10unique_ptrINS_15__thread_structENS_14default_deleteIS2_EEEEM36TaskSystemParallelThreadPoolSleepingFviEPS6_iEEERNS_13tuple_elementIXT_ENS_5tupleIJDpT0_EEEE4typeERSE_, symObjAddr: 0x8ED4, symBinAddr: 0x10002500C, symSize: 0x28 }
  - { offsetInCU: 0xE32A, offset: 0x3CC05, size: 0x8, addend: 0x0, symName: __ZNSt3__119__allocate_at_leastB8ue170006INS_9allocatorINS_6threadEEEEENS_19__allocation_resultINS_16allocator_traitsIT_E7pointerEEERS6_m, symObjAddr: 0x9A54, symBinAddr: 0x100025B8C, symSize: 0x40 }
  - { offsetInCU: 0xE36D, offset: 0x3CC48, size: 0x8, addend: 0x0, symName: __ZNSt3__142__uninitialized_allocator_move_if_noexceptB8ue170006INS_9allocatorINS_6threadEEENS_16reverse_iteratorIPS2_EES6_S6_EET2_RT_T0_T1_S7_, symObjAddr: 0x9C08, symBinAddr: 0x100025D40, symSize: 0x12C }
  - { offsetInCU: 0xE40D, offset: 0x3CCE8, size: 0x8, addend: 0x0, symName: __ZNSt3__14swapB8ue170006IPNS_6threadEEENS_9enable_ifIXaasr21is_move_constructibleIT_EE5valuesr18is_move_assignableIS4_EE5valueEvE4typeERS4_S7_, symObjAddr: 0x9D80, symBinAddr: 0x100025EB8, symSize: 0x3C }
  - { offsetInCU: 0xE45E, offset: 0x3CD39, size: 0x8, addend: 0x0, symName: __ZNSt3__122__make_exception_guardB8ue170006INS_29_AllocatorDestroyRangeReverseINS_9allocatorINS_6threadEEENS_16reverse_iteratorIPS3_EEEEEENS_28__exception_guard_exceptionsIT_EESA_, symObjAddr: 0x9E68, symBinAddr: 0x100025FA0, symSize: 0x4C }
  - { offsetInCU: 0xE494, offset: 0x3CD6F, size: 0x8, addend: 0x0, symName: __ZNSt3__1neB8ue170006IPNS_6threadES2_EEbRKNS_16reverse_iteratorIT_EERKNS3_IT0_EE, symObjAddr: 0x9EF8, symBinAddr: 0x100026030, symSize: 0x48 }
  - { offsetInCU: 0xE4E0, offset: 0x3CDBB, size: 0x8, addend: 0x0, symName: __ZNSt3__112__to_addressB8ue170006INS_16reverse_iteratorIPNS_6threadEEEvEEu7__decayIDTclsr19__to_address_helperIT_EE6__callclsr3stdE7declvalIRKS5_EEEEES7_, symObjAddr: 0x9F40, symBinAddr: 0x100026078, symSize: 0x24 }
  - { offsetInCU: 0xE53F, offset: 0x3CE1A, size: 0x8, addend: 0x0, symName: __ZNSt3__119__allocator_destroyB8ue170006INS_9allocatorINS_6threadEEENS_16reverse_iteratorINS4_IPS2_EEEES7_EEvRT_T0_T1_, symObjAddr: 0xA1F0, symBinAddr: 0x100026328, symSize: 0x70 }
  - { offsetInCU: 0xE5A4, offset: 0x3CE7F, size: 0x8, addend: 0x0, symName: __ZNSt3__1neB8ue170006INS_16reverse_iteratorIPNS_6threadEEES4_EEbRKNS1_IT_EERKNS1_IT0_EE, symObjAddr: 0xA29C, symBinAddr: 0x1000263D4, symSize: 0x60 }
  - { offsetInCU: 0xE5F0, offset: 0x3CECB, size: 0x8, addend: 0x0, symName: __ZNSt3__112__to_addressB8ue170006INS_16reverse_iteratorINS1_IPNS_6threadEEEEEvEEu7__decayIDTclsr19__to_address_helperIT_EE6__callclsr3stdE7declvalIRKS6_EEEEES8_, symObjAddr: 0xA2FC, symBinAddr: 0x100026434, symSize: 0x24 }
  - { offsetInCU: 0xE64F, offset: 0x3CF2A, size: 0x8, addend: 0x0, symName: __ZNSt3__1neB8ue170006ERKNS_15__hash_iteratorIPNS_11__hash_nodeINS_17__hash_value_typeIiP14BulkTaskLaunchEEPvEEEESB_, symObjAddr: 0xA884, symBinAddr: 0x1000269BC, symSize: 0x34 }
  - { offsetInCU: 0xE68C, offset: 0x3CF67, size: 0x8, addend: 0x0, symName: __ZNSt3__1eqB8ue170006ERKNS_15__hash_iteratorIPNS_11__hash_nodeINS_17__hash_value_typeIiP14BulkTaskLaunchEEPvEEEESB_, symObjAddr: 0xA8B8, symBinAddr: 0x1000269F0, symSize: 0x30 }
  - { offsetInCU: 0xE733, offset: 0x3D00E, size: 0x8, addend: 0x0, symName: __ZNSt3__116forward_as_tupleB8ue170006IJRKiEEENS_5tupleIJDpOT_EEES6_, symObjAddr: 0xB044, symBinAddr: 0x100027034, symSize: 0x2C }
  - { offsetInCU: 0xE76C, offset: 0x3D047, size: 0x8, addend: 0x0, symName: __ZNSt3__116forward_as_tupleB8ue170006IJEEENS_5tupleIJDpOT_EEES4_, symObjAddr: 0xB070, symBinAddr: 0x100027060, symSize: 0x4 }
  - { offsetInCU: 0xE790, offset: 0x3D06B, size: 0x8, addend: 0x0, symName: __ZNSt3__116__constrain_hashB8ue170006Emm, symObjAddr: 0xB0F4, symBinAddr: 0x1000270E4, symSize: 0x98 }
  - { offsetInCU: 0xE7CA, offset: 0x3D0A5, size: 0x8, addend: 0x0, symName: __ZNSt3__116__is_hash_power2B8ue170006Em, symObjAddr: 0xB414, symBinAddr: 0x100027404, symSize: 0x50 }
  - { offsetInCU: 0xE814, offset: 0x3D0EF, size: 0x8, addend: 0x0, symName: __ZNSt3__13getB8ue170006ILm0EJRKiEEERNS_13tuple_elementIXT_ENS_5tupleIJDpT0_EEEE4typeERS7_, symObjAddr: 0xBB50, symBinAddr: 0x100027B40, symSize: 0x24 }
  - { offsetInCU: 0xE857, offset: 0x3D132, size: 0x8, addend: 0x0, symName: __ZNSt3__116__next_hash_pow2B8ue170006Em, symObjAddr: 0xC054, symBinAddr: 0x100028044, symSize: 0x6C }
  - { offsetInCU: 0xE883, offset: 0x3D15E, size: 0x8, addend: 0x0, symName: __ZNSt3__112__libcpp_clzB8ue170006Em, symObjAddr: 0xC218, symBinAddr: 0x100028208, symSize: 0x1C }
  - { offsetInCU: 0xE8C4, offset: 0x3D19F, size: 0x8, addend: 0x0, symName: __ZNSt3__122__cxx_atomic_fetch_subB8ue170006IiEET_PNS_22__cxx_atomic_base_implIS1_EES1_NS_12memory_orderE, symObjAddr: 0xC53C, symBinAddr: 0x10002852C, symSize: 0xD8 }
  - { offsetInCU: 0xED72, offset: 0x3D64D, size: 0x8, addend: 0x0, symName: __ZNSt3__14swapB8ue170006IPPP14BulkTaskLaunchEENS_9enable_ifIXaasr21is_move_constructibleIT_EE5valuesr18is_move_assignableIS6_EE5valueEvE4typeERS6_S9_, symObjAddr: 0xDE38, symBinAddr: 0x100029E28, symSize: 0x3C }
  - { offsetInCU: 0xEDC3, offset: 0x3D69E, size: 0x8, addend: 0x0, symName: __ZNSt3__14moveB8ue170006IPPP14BulkTaskLaunchS4_EET0_T_S6_S5_, symObjAddr: 0xDF1C, symBinAddr: 0x100029F0C, symSize: 0x40 }
  - { offsetInCU: 0xEE1D, offset: 0x3D6F8, size: 0x8, addend: 0x0, symName: __ZNSt3__16__moveB8ue170006INS_17_ClassicAlgPolicyEPPP14BulkTaskLaunchS5_S5_EENS_4pairIT0_T2_EES7_T1_S8_, symObjAddr: 0xE024, symBinAddr: 0x10002A014, symSize: 0x44 }
  - { offsetInCU: 0xEE89, offset: 0x3D764, size: 0x8, addend: 0x0, symName: __ZNSt3__123__dispatch_copy_or_moveB8ue170006INS_17_ClassicAlgPolicyENS_11__move_loopIS1_EENS_14__move_trivialEPPP14BulkTaskLaunchS8_S8_EENS_4pairIT2_T4_EESA_T3_SB_, symObjAddr: 0xE068, symBinAddr: 0x10002A058, symSize: 0x44 }
  - { offsetInCU: 0xEF07, offset: 0x3D7E2, size: 0x8, addend: 0x0, symName: __ZNSt3__121__unwrap_and_dispatchB8ue170006INS_10__overloadINS_11__move_loopINS_17_ClassicAlgPolicyEEENS_14__move_trivialEEEPPP14BulkTaskLaunchSA_SA_Li0EEENS_4pairIT0_T2_EESC_T1_SD_, symObjAddr: 0xE0AC, symBinAddr: 0x10002A09C, symSize: 0xB4 }
  - { offsetInCU: 0xEF95, offset: 0x3D870, size: 0x8, addend: 0x0, symName: __ZNSt3__114__unwrap_rangeB8ue170006IPPP14BulkTaskLaunchS4_EENS_4pairIT0_S6_EET_S8_, symObjAddr: 0xE160, symBinAddr: 0x10002A150, symSize: 0x60 }
  - { offsetInCU: 0xF159, offset: 0x3DA34, size: 0x8, addend: 0x0, symName: __ZNSt3__113__unwrap_iterB8ue170006IPPP14BulkTaskLaunchNS_18__unwrap_iter_implIS4_Lb1EEELi0EEEDTclsrT0_8__unwrapclsr3stdE7declvalIT_EEEES8_, symObjAddr: 0xE208, symBinAddr: 0x10002A1F8, symSize: 0x24 }
  - { offsetInCU: 0xF19D, offset: 0x3DA78, size: 0x8, addend: 0x0, symName: __ZNSt3__19make_pairB8ue170006IPPP14BulkTaskLaunchS4_EENS_4pairINS_18__unwrap_ref_decayIT_E4typeENS6_IT0_E4typeEEEOS7_OSA_, symObjAddr: 0xE22C, symBinAddr: 0x10002A21C, symSize: 0x38 }
  - { offsetInCU: 0xF1EC, offset: 0x3DAC7, size: 0x8, addend: 0x0, symName: __ZNSt3__114__rewrap_rangeB8ue170006IPPP14BulkTaskLaunchS4_EET_S5_T0_, symObjAddr: 0xE264, symBinAddr: 0x10002A254, symSize: 0x2C }
  - { offsetInCU: 0xF238, offset: 0x3DB13, size: 0x8, addend: 0x0, symName: __ZNSt3__113__rewrap_iterB8ue170006IPPP14BulkTaskLaunchS4_NS_18__unwrap_iter_implIS4_Lb1EEEEET_S7_T0_, symObjAddr: 0xE290, symBinAddr: 0x10002A280, symSize: 0x3C }
  - { offsetInCU: 0xF28D, offset: 0x3DB68, size: 0x8, addend: 0x0, symName: __ZNSt3__119__copy_trivial_implB8ue170006IPP14BulkTaskLaunchS3_EENS_4pairIPT_PT0_EES6_S6_S8_, symObjAddr: 0xE2CC, symBinAddr: 0x10002A2BC, symSize: 0x80 }
  - { offsetInCU: 0xF2F5, offset: 0x3DBD0, size: 0x8, addend: 0x0, symName: __ZNSt3__119__constexpr_memmoveB8ue170006IPP14BulkTaskLaunchS3_Li0EEEPT_S5_PT0_NS_15__element_countE, symObjAddr: 0xE34C, symBinAddr: 0x10002A33C, symSize: 0x64 }
  - { offsetInCU: 0xF363, offset: 0x3DC3E, size: 0x8, addend: 0x0, symName: __ZNSt3__19make_pairB8ue170006IRPPP14BulkTaskLaunchS4_EENS_4pairINS_18__unwrap_ref_decayIT_E4typeENS7_IT0_E4typeEEEOS8_OSB_, symObjAddr: 0xE3B0, symBinAddr: 0x10002A3A0, symSize: 0x38 }
  - { offsetInCU: 0xF405, offset: 0x3DCE0, size: 0x8, addend: 0x0, symName: __ZNSt3__18distanceB8ue170006INS_13move_iteratorIPPP14BulkTaskLaunchEEEENS_15iterator_traitsIT_E15difference_typeES8_S8_, symObjAddr: 0xE618, symBinAddr: 0x10002A608, symSize: 0x3C }
  - { offsetInCU: 0xF448, offset: 0x3DD23, size: 0x8, addend: 0x0, symName: __ZNSt3__110__distanceB8ue170006INS_13move_iteratorIPPP14BulkTaskLaunchEEEENS_15iterator_traitsIT_E15difference_typeES8_S8_NS_26random_access_iterator_tagE, symObjAddr: 0xE81C, symBinAddr: 0x10002A80C, symSize: 0x30 }
  - { offsetInCU: 0xF496, offset: 0x3DD71, size: 0x8, addend: 0x0, symName: __ZNSt3__1miB8ue170006IPPP14BulkTaskLaunchS4_EEDTmicldtfp_4baseEcldtfp0_4baseEERKNS_13move_iteratorIT_EERKNS6_IT0_EE, symObjAddr: 0xE84C, symBinAddr: 0x10002A83C, symSize: 0x48 }
  - { offsetInCU: 0xF4E5, offset: 0x3DDC0, size: 0x8, addend: 0x0, symName: __ZNSt3__113move_backwardB8ue170006IPPP14BulkTaskLaunchS4_EET0_T_S6_S5_, symObjAddr: 0xE984, symBinAddr: 0x10002A974, symSize: 0x40 }
  - { offsetInCU: 0xF53F, offset: 0x3DE1A, size: 0x8, addend: 0x0, symName: __ZNSt3__115__move_backwardB8ue170006INS_17_ClassicAlgPolicyEPPP14BulkTaskLaunchS5_S5_EENS_4pairIT0_T2_EES7_T1_S8_, symObjAddr: 0xE9C4, symBinAddr: 0x10002A9B4, symSize: 0x44 }
  - { offsetInCU: 0xF5AB, offset: 0x3DE86, size: 0x8, addend: 0x0, symName: __ZNSt3__123__dispatch_copy_or_moveB8ue170006INS_17_ClassicAlgPolicyENS_20__move_backward_loopIS1_EENS_23__move_backward_trivialEPPP14BulkTaskLaunchS8_S8_EENS_4pairIT2_T4_EESA_T3_SB_, symObjAddr: 0xEA08, symBinAddr: 0x10002A9F8, symSize: 0x44 }
  - { offsetInCU: 0xF629, offset: 0x3DF04, size: 0x8, addend: 0x0, symName: __ZNSt3__121__unwrap_and_dispatchB8ue170006INS_10__overloadINS_20__move_backward_loopINS_17_ClassicAlgPolicyEEENS_23__move_backward_trivialEEEPPP14BulkTaskLaunchSA_SA_Li0EEENS_4pairIT0_T2_EESC_T1_SD_, symObjAddr: 0xEA4C, symBinAddr: 0x10002AA3C, symSize: 0xB4 }
  - { offsetInCU: 0xF6FD, offset: 0x3DFD8, size: 0x8, addend: 0x0, symName: __ZNSt3__128__copy_backward_trivial_implB8ue170006IPP14BulkTaskLaunchS3_EENS_4pairIPT_PT0_EES6_S6_S8_, symObjAddr: 0xEB48, symBinAddr: 0x10002AB38, symSize: 0x90 }
  - { offsetInCU: 0xF765, offset: 0x3E040, size: 0x8, addend: 0x0, symName: __ZNSt3__19make_pairB8ue170006IRPPP14BulkTaskLaunchS5_EENS_4pairINS_18__unwrap_ref_decayIT_E4typeENS7_IT0_E4typeEEEOS8_OSB_, symObjAddr: 0xEBD8, symBinAddr: 0x10002ABC8, symSize: 0x38 }
  - { offsetInCU: 0xF7B4, offset: 0x3E08F, size: 0x8, addend: 0x0, symName: __ZNSt3__119__allocate_at_leastB8ue170006INS_9allocatorIPP14BulkTaskLaunchEEEENS_19__allocation_resultINS_16allocator_traitsIT_E7pointerEEERS8_m, symObjAddr: 0xED90, symBinAddr: 0x10002AD80, symSize: 0x40 }
  - { offsetInCU: 0x10CA5, offset: 0x3F580, size: 0x8, addend: 0x0, symName: __ZNSt3__16vectorINS_6threadENS_9allocatorIS1_EEE26__swap_out_circular_bufferERNS_14__split_bufferIS1_RS3_EE, symObjAddr: 0x96F4, symBinAddr: 0x10002582C, symSize: 0x110 }
  - { offsetInCU: 0x12C29, offset: 0x41504, size: 0x8, addend: 0x0, symName: __ZN9IRunnableD2Ev, symObjAddr: 0x0, symBinAddr: 0x10001DCE4, symSize: 0x14 }
  - { offsetInCU: 0x12C54, offset: 0x4152F, size: 0x8, addend: 0x0, symName: __ZN9IRunnableD1Ev, symObjAddr: 0x14, symBinAddr: 0x10001DCF8, symSize: 0x14 }
  - { offsetInCU: 0x12C7F, offset: 0x4155A, size: 0x8, addend: 0x0, symName: __ZN9IRunnableD0Ev, symObjAddr: 0x28, symBinAddr: 0x10001DD0C, symSize: 0xC }
  - { offsetInCU: 0x12CAA, offset: 0x41585, size: 0x8, addend: 0x0, symName: __ZN11ITaskSystemC2Ei, symObjAddr: 0x34, symBinAddr: 0x10001DD18, symSize: 0x28 }
  - { offsetInCU: 0x12CE3, offset: 0x415BE, size: 0x8, addend: 0x0, symName: __ZN11ITaskSystemD2Ev, symObjAddr: 0x5C, symBinAddr: 0x10001DD40, symSize: 0x14 }
  - { offsetInCU: 0x12D0E, offset: 0x415E9, size: 0x8, addend: 0x0, symName: __ZN11ITaskSystemD1Ev, symObjAddr: 0x70, symBinAddr: 0x10001DD54, symSize: 0x14 }
  - { offsetInCU: 0x12D39, offset: 0x41614, size: 0x8, addend: 0x0, symName: __ZN11ITaskSystemD0Ev, symObjAddr: 0x84, symBinAddr: 0x10001DD68, symSize: 0xC }
  - { offsetInCU: 0x12E30, offset: 0x4170B, size: 0x8, addend: 0x0, symName: __ZN16TaskSystemSerial4nameEv, symObjAddr: 0x90, symBinAddr: 0x10001DD74, symSize: 0x18 }
  - { offsetInCU: 0x12E57, offset: 0x41732, size: 0x8, addend: 0x0, symName: __ZN16TaskSystemSerialC2Ei, symObjAddr: 0xA8, symBinAddr: 0x10001DD8C, symSize: 0x4C }
  - { offsetInCU: 0x12E90, offset: 0x4176B, size: 0x8, addend: 0x0, symName: __ZN16TaskSystemSerialC1Ei, symObjAddr: 0xF4, symBinAddr: 0x10001DDD8, symSize: 0x34 }
  - { offsetInCU: 0x12EC9, offset: 0x417A4, size: 0x8, addend: 0x0, symName: __ZN16TaskSystemSerialD2Ev, symObjAddr: 0x128, symBinAddr: 0x10001DE0C, symSize: 0x2C }
  - { offsetInCU: 0x12EF4, offset: 0x417CF, size: 0x8, addend: 0x0, symName: __ZN16TaskSystemSerialD1Ev, symObjAddr: 0x154, symBinAddr: 0x10001DE38, symSize: 0x2C }
  - { offsetInCU: 0x12F1F, offset: 0x417FA, size: 0x8, addend: 0x0, symName: __ZN16TaskSystemSerialD0Ev, symObjAddr: 0x180, symBinAddr: 0x10001DE64, symSize: 0x30 }
  - { offsetInCU: 0x12F4A, offset: 0x41825, size: 0x8, addend: 0x0, symName: __ZN16TaskSystemSerial3runEP9IRunnablei, symObjAddr: 0x1B0, symBinAddr: 0x10001DE94, symSize: 0x70 }
  - { offsetInCU: 0x12FA9, offset: 0x41884, size: 0x8, addend: 0x0, symName: __ZN16TaskSystemSerial16runAsyncWithDepsEP9IRunnableiRKNSt3__16vectorIiNS2_9allocatorIiEEEE, symObjAddr: 0x220, symBinAddr: 0x10001DF04, symSize: 0x78 }
  - { offsetInCU: 0x13016, offset: 0x418F1, size: 0x8, addend: 0x0, symName: __ZN16TaskSystemSerial4syncEv, symObjAddr: 0x298, symBinAddr: 0x10001DF7C, symSize: 0x10 }
  - { offsetInCU: 0x13109, offset: 0x419E4, size: 0x8, addend: 0x0, symName: __ZN23TaskSystemParallelSpawn4nameEv, symObjAddr: 0x2A8, symBinAddr: 0x10001DF8C, symSize: 0x18 }
  - { offsetInCU: 0x13130, offset: 0x41A0B, size: 0x8, addend: 0x0, symName: __ZN23TaskSystemParallelSpawnC2Ei, symObjAddr: 0x2C0, symBinAddr: 0x10001DFA4, symSize: 0x4C }
  - { offsetInCU: 0x13169, offset: 0x41A44, size: 0x8, addend: 0x0, symName: __ZN23TaskSystemParallelSpawnC1Ei, symObjAddr: 0x30C, symBinAddr: 0x10001DFF0, symSize: 0x34 }
  - { offsetInCU: 0x131A2, offset: 0x41A7D, size: 0x8, addend: 0x0, symName: __ZN23TaskSystemParallelSpawnD2Ev, symObjAddr: 0x340, symBinAddr: 0x10001E024, symSize: 0x2C }
  - { offsetInCU: 0x131CD, offset: 0x41AA8, size: 0x8, addend: 0x0, symName: __ZN23TaskSystemParallelSpawnD1Ev, symObjAddr: 0x36C, symBinAddr: 0x10001E050, symSize: 0x2C }
  - { offsetInCU: 0x131F8, offset: 0x41AD3, size: 0x8, addend: 0x0, symName: __ZN23TaskSystemParallelSpawnD0Ev, symObjAddr: 0x398, symBinAddr: 0x10001E07C, symSize: 0x30 }
  - { offsetInCU: 0x13223, offset: 0x41AFE, size: 0x8, addend: 0x0, symName: __ZN23TaskSystemParallelSpawn3runEP9IRunnablei, symObjAddr: 0x3C8, symBinAddr: 0x10001E0AC, symSize: 0x70 }
  - { offsetInCU: 0x13282, offset: 0x41B5D, size: 0x8, addend: 0x0, symName: __ZN23TaskSystemParallelSpawn16runAsyncWithDepsEP9IRunnableiRKNSt3__16vectorIiNS2_9allocatorIiEEEE, symObjAddr: 0x438, symBinAddr: 0x10001E11C, symSize: 0x78 }
  - { offsetInCU: 0x132EF, offset: 0x41BCA, size: 0x8, addend: 0x0, symName: __ZN23TaskSystemParallelSpawn4syncEv, symObjAddr: 0x4B0, symBinAddr: 0x10001E194, symSize: 0x10 }
  - { offsetInCU: 0x133E2, offset: 0x41CBD, size: 0x8, addend: 0x0, symName: __ZN36TaskSystemParallelThreadPoolSpinning4nameEv, symObjAddr: 0x4C0, symBinAddr: 0x10001E1A4, symSize: 0x18 }
  - { offsetInCU: 0x13409, offset: 0x41CE4, size: 0x8, addend: 0x0, symName: __ZN36TaskSystemParallelThreadPoolSpinningC2Ei, symObjAddr: 0x4D8, symBinAddr: 0x10001E1BC, symSize: 0x4C }
  - { offsetInCU: 0x13442, offset: 0x41D1D, size: 0x8, addend: 0x0, symName: __ZN36TaskSystemParallelThreadPoolSpinningC1Ei, symObjAddr: 0x524, symBinAddr: 0x10001E208, symSize: 0x34 }
  - { offsetInCU: 0x1347B, offset: 0x41D56, size: 0x8, addend: 0x0, symName: __ZN36TaskSystemParallelThreadPoolSpinningD2Ev, symObjAddr: 0x558, symBinAddr: 0x10001E23C, symSize: 0x2C }
  - { offsetInCU: 0x134A6, offset: 0x41D81, size: 0x8, addend: 0x0, symName: __ZN36TaskSystemParallelThreadPoolSpinningD1Ev, symObjAddr: 0x584, symBinAddr: 0x10001E268, symSize: 0x2C }
  - { offsetInCU: 0x134D1, offset: 0x41DAC, size: 0x8, addend: 0x0, symName: __ZN36TaskSystemParallelThreadPoolSpinningD0Ev, symObjAddr: 0x5B0, symBinAddr: 0x10001E294, symSize: 0x30 }
  - { offsetInCU: 0x134FC, offset: 0x41DD7, size: 0x8, addend: 0x0, symName: __ZN36TaskSystemParallelThreadPoolSpinning3runEP9IRunnablei, symObjAddr: 0x5E0, symBinAddr: 0x10001E2C4, symSize: 0x70 }
  - { offsetInCU: 0x1355B, offset: 0x41E36, size: 0x8, addend: 0x0, symName: __ZN36TaskSystemParallelThreadPoolSpinning16runAsyncWithDepsEP9IRunnableiRKNSt3__16vectorIiNS2_9allocatorIiEEEE, symObjAddr: 0x650, symBinAddr: 0x10001E334, symSize: 0x78 }
  - { offsetInCU: 0x135C8, offset: 0x41EA3, size: 0x8, addend: 0x0, symName: __ZN36TaskSystemParallelThreadPoolSpinning4syncEv, symObjAddr: 0x6C8, symBinAddr: 0x10001E3AC, symSize: 0x10 }
  - { offsetInCU: 0x135EF, offset: 0x41ECA, size: 0x8, addend: 0x0, symName: __ZN36TaskSystemParallelThreadPoolSleeping4nameEv, symObjAddr: 0x6D8, symBinAddr: 0x10001E3BC, symSize: 0x18 }
  - { offsetInCU: 0x13616, offset: 0x41EF1, size: 0x8, addend: 0x0, symName: __ZN36TaskSystemParallelThreadPoolSleepingC2Ei, symObjAddr: 0x6F0, symBinAddr: 0x10001E3D4, symSize: 0x2B4 }
  - { offsetInCU: 0x13663, offset: 0x41F3E, size: 0x8, addend: 0x0, symName: __ZNSt3__16vectorINS_6threadENS_9allocatorIS1_EEEC1B8ue170006Ev, symObjAddr: 0x9A4, symBinAddr: 0x10001E688, symSize: 0x2C }
  - { offsetInCU: 0x1368C, offset: 0x41F67, size: 0x8, addend: 0x0, symName: __ZNSt3__16atomicIbEC1B8ue170006Eb, symObjAddr: 0x9D0, symBinAddr: 0x10001E6B4, symSize: 0x40 }
  - { offsetInCU: 0x136C3, offset: 0x41F9E, size: 0x8, addend: 0x0, symName: __ZNSt3__15mutexC1B8ue170006Ev, symObjAddr: 0xA10, symBinAddr: 0x10001E6F4, symSize: 0x2C }
  - { offsetInCU: 0x136EC, offset: 0x41FC7, size: 0x8, addend: 0x0, symName: __ZNSt3__118condition_variableC1B8ue170006Ev, symObjAddr: 0xA3C, symBinAddr: 0x10001E720, symSize: 0x2C }
  - { offsetInCU: 0x13715, offset: 0x41FF0, size: 0x8, addend: 0x0, symName: __ZNSt3__113unordered_mapIiP14BulkTaskLaunchNS_4hashIiEENS_8equal_toIiEENS_9allocatorINS_4pairIKiS2_EEEEEC1B8ue170006Ev, symObjAddr: 0xA9C, symBinAddr: 0x10001E74C, symSize: 0x2C }
  - { offsetInCU: 0x1373E, offset: 0x42019, size: 0x8, addend: 0x0, symName: __ZNSt3__15queueIP14BulkTaskLaunchNS_5dequeIS2_NS_9allocatorIS2_EEEEEC1B8ue170006Ev, symObjAddr: 0xAC8, symBinAddr: 0x10001E778, symSize: 0x2C }
  - { offsetInCU: 0x13767, offset: 0x42042, size: 0x8, addend: 0x0, symName: __ZNSt3__13setIiNS_4lessIiEENS_9allocatorIiEEEC1B8ue170006Ev, symObjAddr: 0xAF4, symBinAddr: 0x10001E7A4, symSize: 0x2C }
  - { offsetInCU: 0x13790, offset: 0x4206B, size: 0x8, addend: 0x0, symName: __ZNSt3__16atomicIbEaSB8ue170006Eb, symObjAddr: 0xB20, symBinAddr: 0x10001E7D0, symSize: 0x44 }
  - { offsetInCU: 0x137C2, offset: 0x4209D, size: 0x8, addend: 0x0, symName: __ZNSt3__16atomicIiEaSB8ue170006Ei, symObjAddr: 0xB64, symBinAddr: 0x10001E814, symSize: 0x34 }
  - { offsetInCU: 0x137F4, offset: 0x420CF, size: 0x8, addend: 0x0, symName: __ZNSt3__16vectorINS_6threadENS_9allocatorIS1_EEE12emplace_backIJS1_EEEvDpOT_, symObjAddr: 0xBC4, symBinAddr: 0x10001E848, symSize: 0x6C }
  - { offsetInCU: 0x13834, offset: 0x4210F, size: 0x8, addend: 0x0, symName: __ZN36TaskSystemParallelThreadPoolSleeping22runAsyncWithDepsThreadEi, symObjAddr: 0xC30, symBinAddr: 0x10001E8B4, symSize: 0x3E0 }
  - { offsetInCU: 0x138AB, offset: 0x42186, size: 0x8, addend: 0x0, symName: __ZNSt3__16threadC1IM36TaskSystemParallelThreadPoolSleepingFviEJPS2_RiEvEEOT_DpOT0_, symObjAddr: 0x1010, symBinAddr: 0x10001EC94, symSize: 0x44 }
  - { offsetInCU: 0x13918, offset: 0x421F3, size: 0x8, addend: 0x0, symName: __ZNSt3__13setIiNS_4lessIiEENS_9allocatorIiEEED1B8ue170006Ev, symObjAddr: 0x1054, symBinAddr: 0x10001ECD8, symSize: 0x2C }
  - { offsetInCU: 0x13941, offset: 0x4221C, size: 0x8, addend: 0x0, symName: __ZNSt3__15queueIP14BulkTaskLaunchNS_5dequeIS2_NS_9allocatorIS2_EEEEED1Ev, symObjAddr: 0x1080, symBinAddr: 0x10001ED04, symSize: 0x2C }
  - { offsetInCU: 0x1396D, offset: 0x42248, size: 0x8, addend: 0x0, symName: __ZNSt3__113unordered_mapIiP14BulkTaskLaunchNS_4hashIiEENS_8equal_toIiEENS_9allocatorINS_4pairIKiS2_EEEEED1B8ue170006Ev, symObjAddr: 0x10AC, symBinAddr: 0x10001ED30, symSize: 0x2C }
  - { offsetInCU: 0x13996, offset: 0x42271, size: 0x8, addend: 0x0, symName: __ZNSt3__16vectorINS_6threadENS_9allocatorIS1_EEED1B8ue170006Ev, symObjAddr: 0x10D8, symBinAddr: 0x10001ED5C, symSize: 0x2C }
  - { offsetInCU: 0x139BF, offset: 0x4229A, size: 0x8, addend: 0x0, symName: __ZN36TaskSystemParallelThreadPoolSleepingC1Ei, symObjAddr: 0x1104, symBinAddr: 0x10001ED88, symSize: 0x34 }
  - { offsetInCU: 0x139F8, offset: 0x422D3, size: 0x8, addend: 0x0, symName: __ZN36TaskSystemParallelThreadPoolSleepingD2Ev, symObjAddr: 0x1138, symBinAddr: 0x10001EDBC, symSize: 0x200 }
  - { offsetInCU: 0x13ADA, offset: 0x423B5, size: 0x8, addend: 0x0, symName: __ZNSt3__111unique_lockINS_5mutexEEC1B8ue170006ERS1_, symObjAddr: 0x1338, symBinAddr: 0x10001EFBC, symSize: 0x34 }
  - { offsetInCU: 0x13B11, offset: 0x423EC, size: 0x8, addend: 0x0, symName: __ZNSt3__111unique_lockINS_5mutexEED1B8ue170006Ev, symObjAddr: 0x1378, symBinAddr: 0x10001EFF0, symSize: 0x2C }
  - { offsetInCU: 0x13B3A, offset: 0x42415, size: 0x8, addend: 0x0, symName: __ZNSt3__16vectorINS_6threadENS_9allocatorIS1_EEE5beginB8ue170006Ev, symObjAddr: 0x13A4, symBinAddr: 0x10001F01C, symSize: 0x30 }
  - { offsetInCU: 0x13B60, offset: 0x4243B, size: 0x8, addend: 0x0, symName: __ZNSt3__16vectorINS_6threadENS_9allocatorIS1_EEE3endB8ue170006Ev, symObjAddr: 0x13D4, symBinAddr: 0x10001F04C, symSize: 0x30 }
  - { offsetInCU: 0x13B86, offset: 0x42461, size: 0x8, addend: 0x0, symName: __ZNKSt3__111__wrap_iterIPNS_6threadEEdeB8ue170006Ev, symObjAddr: 0x1438, symBinAddr: 0x10001F0B0, symSize: 0x18 }
  - { offsetInCU: 0x13BAB, offset: 0x42486, size: 0x8, addend: 0x0, symName: __ZNKSt3__16thread8joinableB8ue170006Ev, symObjAddr: 0x1450, symBinAddr: 0x10001F0C8, symSize: 0x3C }
  - { offsetInCU: 0x13BCF, offset: 0x424AA, size: 0x8, addend: 0x0, symName: __ZNSt3__111__wrap_iterIPNS_6threadEEppB8ue170006Ev, symObjAddr: 0x148C, symBinAddr: 0x10001F104, symSize: 0x20 }
  - { offsetInCU: 0x13BF4, offset: 0x424CF, size: 0x8, addend: 0x0, symName: __ZNSt3__113unordered_mapIiP14BulkTaskLaunchNS_4hashIiEENS_8equal_toIiEENS_9allocatorINS_4pairIKiS2_EEEEE5beginB8ue170006Ev, symObjAddr: 0x14AC, symBinAddr: 0x10001F124, symSize: 0x38 }
  - { offsetInCU: 0x13C18, offset: 0x424F3, size: 0x8, addend: 0x0, symName: __ZNSt3__113unordered_mapIiP14BulkTaskLaunchNS_4hashIiEENS_8equal_toIiEENS_9allocatorINS_4pairIKiS2_EEEEE3endB8ue170006Ev, symObjAddr: 0x14E4, symBinAddr: 0x10001F15C, symSize: 0x38 }
  - { offsetInCU: 0x13C3C, offset: 0x42517, size: 0x8, addend: 0x0, symName: __ZNKSt3__119__hash_map_iteratorINS_15__hash_iteratorIPNS_11__hash_nodeINS_17__hash_value_typeIiP14BulkTaskLaunchEEPvEEEEEdeB8ue170006Ev, symObjAddr: 0x154C, symBinAddr: 0x10001F1C4, symSize: 0x28 }
  - { offsetInCU: 0x13C60, offset: 0x4253B, size: 0x8, addend: 0x0, symName: __ZN14BulkTaskLaunchD1Ev, symObjAddr: 0x1574, symBinAddr: 0x10001F1EC, symSize: 0x2C }
  - { offsetInCU: 0x13C8B, offset: 0x42566, size: 0x8, addend: 0x0, symName: __ZNSt3__119__hash_map_iteratorINS_15__hash_iteratorIPNS_11__hash_nodeINS_17__hash_value_typeIiP14BulkTaskLaunchEEPvEEEEEppB8ue170006Ev, symObjAddr: 0x15A0, symBinAddr: 0x10001F218, symSize: 0x2C }
  - { offsetInCU: 0x13CAF, offset: 0x4258A, size: 0x8, addend: 0x0, symName: __ZN36TaskSystemParallelThreadPoolSleepingD1Ev, symObjAddr: 0x15CC, symBinAddr: 0x10001F244, symSize: 0x2C }
  - { offsetInCU: 0x13CDA, offset: 0x425B5, size: 0x8, addend: 0x0, symName: __ZN36TaskSystemParallelThreadPoolSleepingD0Ev, symObjAddr: 0x15F8, symBinAddr: 0x10001F270, symSize: 0x30 }
  - { offsetInCU: 0x13D05, offset: 0x425E0, size: 0x8, addend: 0x0, symName: __ZN36TaskSystemParallelThreadPoolSleeping9runThreadEv, symObjAddr: 0x1628, symBinAddr: 0x10001F2A0, symSize: 0x210 }
  - { offsetInCU: 0x13D5C, offset: 0x42637, size: 0x8, addend: 0x0, symName: __ZNKSt3__113__atomic_baseIbLb0EEcvbB8ue170006Ev, symObjAddr: 0x1838, symBinAddr: 0x10001F4B0, symSize: 0x2C }
  - { offsetInCU: 0x13D80, offset: 0x4265B, size: 0x8, addend: 0x0, symName: __ZNKSt3__113__atomic_baseIiLb0EEcviB8ue170006Ev, symObjAddr: 0x1864, symBinAddr: 0x10001F4DC, symSize: 0x28 }
  - { offsetInCU: 0x13DA4, offset: 0x4267F, size: 0x8, addend: 0x0, symName: __ZNSt3__111unique_lockINS_5mutexEE6unlockEv, symObjAddr: 0x188C, symBinAddr: 0x10001F504, symSize: 0x54 }
  - { offsetInCU: 0x13DCA, offset: 0x426A5, size: 0x8, addend: 0x0, symName: __ZNSt3__111unique_lockINS_5mutexEE4lockEv, symObjAddr: 0x1914, symBinAddr: 0x10001F558, symSize: 0x80 }
  - { offsetInCU: 0x13DF0, offset: 0x426CB, size: 0x8, addend: 0x0, symName: __ZN36TaskSystemParallelThreadPoolSleeping3runEP9IRunnablei, symObjAddr: 0x1994, symBinAddr: 0x10001F5D8, symSize: 0xF0 }
  - { offsetInCU: 0x13E5D, offset: 0x42738, size: 0x8, addend: 0x0, symName: __ZN36TaskSystemParallelThreadPoolSleeping16updateDependentsENSt3__16vectorIiNS0_9allocatorIiEEEE, symObjAddr: 0x1A84, symBinAddr: 0x10001F6C8, symSize: 0x17C }
  - { offsetInCU: 0x13EF6, offset: 0x427D1, size: 0x8, addend: 0x0, symName: __ZNSt3__113unordered_mapIiP14BulkTaskLaunchNS_4hashIiEENS_8equal_toIiEENS_9allocatorINS_4pairIKiS2_EEEEEixERS9_, symObjAddr: 0x1CAC, symBinAddr: 0x10001F844, symSize: 0x80 }
  - { offsetInCU: 0x13F2B, offset: 0x42806, size: 0x8, addend: 0x0, symName: __ZNSt3__113__atomic_baseIiLb1EEmmB8ue170006Ei, symObjAddr: 0x1D2C, symBinAddr: 0x10001F8C4, symSize: 0x30 }
  - { offsetInCU: 0x13F5A, offset: 0x42835, size: 0x8, addend: 0x0, symName: __ZNSt3__113unordered_mapIiP14BulkTaskLaunchNS_4hashIiEENS_8equal_toIiEENS_9allocatorINS_4pairIKiS2_EEEEE5eraseB8ue170006ERS9_, symObjAddr: 0x1D5C, symBinAddr: 0x10001F8F4, symSize: 0x2C }
  - { offsetInCU: 0x13F8D, offset: 0x42868, size: 0x8, addend: 0x0, symName: __ZNSt3__15queueIP14BulkTaskLaunchNS_5dequeIS2_NS_9allocatorIS2_EEEEE4pushB8ue170006ERKS2_, symObjAddr: 0x1D88, symBinAddr: 0x10001F920, symSize: 0x2C }
  - { offsetInCU: 0x13FC0, offset: 0x4289B, size: 0x8, addend: 0x0, symName: __ZNKSt3__15queueIP14BulkTaskLaunchNS_5dequeIS2_NS_9allocatorIS2_EEEEE5emptyB8ue170006Ev, symObjAddr: 0x1DD4, symBinAddr: 0x10001F94C, symSize: 0x28 }
  - { offsetInCU: 0x13FE4, offset: 0x428BF, size: 0x8, addend: 0x0, symName: __ZNSt3__15queueIP14BulkTaskLaunchNS_5dequeIS2_NS_9allocatorIS2_EEEEE5frontB8ue170006Ev, symObjAddr: 0x1DFC, symBinAddr: 0x10001F974, symSize: 0x24 }
  - { offsetInCU: 0x14008, offset: 0x428E3, size: 0x8, addend: 0x0, symName: __ZNSt3__15queueIP14BulkTaskLaunchNS_5dequeIS2_NS_9allocatorIS2_EEEEE3popB8ue170006Ev, symObjAddr: 0x1E20, symBinAddr: 0x10001F998, symSize: 0x24 }
  - { offsetInCU: 0x1402C, offset: 0x42907, size: 0x8, addend: 0x0, symName: __ZNSt3__13setIiNS_4lessIiEENS_9allocatorIiEEE6insertB8ue170006ERKi, symObjAddr: 0x1E44, symBinAddr: 0x10001F9BC, symSize: 0x4C }
  - { offsetInCU: 0x1405F, offset: 0x4293A, size: 0x8, addend: 0x0, symName: __ZN36TaskSystemParallelThreadPoolSleeping10printStateEv, symObjAddr: 0x1EF0, symBinAddr: 0x10001FA08, symSize: 0xF4 }
  - { offsetInCU: 0x14096, offset: 0x42971, size: 0x8, addend: 0x0, symName: __ZNKSt3__15queueIP14BulkTaskLaunchNS_5dequeIS2_NS_9allocatorIS2_EEEEE4sizeB8ue170006Ev, symObjAddr: 0x1FE4, symBinAddr: 0x10001FAFC, symSize: 0x24 }
  - { offsetInCU: 0x140BA, offset: 0x42995, size: 0x8, addend: 0x0, symName: __ZNKSt3__113unordered_mapIiP14BulkTaskLaunchNS_4hashIiEENS_8equal_toIiEENS_9allocatorINS_4pairIKiS2_EEEEE4sizeB8ue170006Ev, symObjAddr: 0x2008, symBinAddr: 0x10001FB20, symSize: 0x24 }
  - { offsetInCU: 0x140DE, offset: 0x429B9, size: 0x8, addend: 0x0, symName: __ZNKSt3__13setIiNS_4lessIiEENS_9allocatorIiEEE4sizeB8ue170006Ev, symObjAddr: 0x202C, symBinAddr: 0x10001FB44, symSize: 0x28 }
  - { offsetInCU: 0x14102, offset: 0x429DD, size: 0x8, addend: 0x0, symName: __ZN36TaskSystemParallelThreadPoolSleeping16runAsyncWithDepsEP9IRunnableiRKNSt3__16vectorIiNS2_9allocatorIiEEEE, symObjAddr: 0x2054, symBinAddr: 0x10001FB6C, symSize: 0x378 }
  - { offsetInCU: 0x141F7, offset: 0x42AD2, size: 0x8, addend: 0x0, symName: __ZN14BulkTaskLaunchC1EiP9IRunnableiNSt3__16vectorIiNS2_9allocatorIiEEEE, symObjAddr: 0x23CC, symBinAddr: 0x10001FEE4, symSize: 0x4C }
  - { offsetInCU: 0x14259, offset: 0x42B34, size: 0x8, addend: 0x0, symName: __ZNKSt3__16vectorIiNS_9allocatorIiEEE5beginB8ue170006Ev, symObjAddr: 0x2418, symBinAddr: 0x10001FF30, symSize: 0x30 }
  - { offsetInCU: 0x1427F, offset: 0x42B5A, size: 0x8, addend: 0x0, symName: __ZNKSt3__16vectorIiNS_9allocatorIiEEE3endB8ue170006Ev, symObjAddr: 0x2448, symBinAddr: 0x10001FF60, symSize: 0x30 }
  - { offsetInCU: 0x142A5, offset: 0x42B80, size: 0x8, addend: 0x0, symName: __ZNKSt3__111__wrap_iterIPKiEdeB8ue170006Ev, symObjAddr: 0x24AC, symBinAddr: 0x10001FFC4, symSize: 0x18 }
  - { offsetInCU: 0x142CA, offset: 0x42BA5, size: 0x8, addend: 0x0, symName: __ZNSt3__113unordered_mapIiP14BulkTaskLaunchNS_4hashIiEENS_8equal_toIiEENS_9allocatorINS_4pairIKiS2_EEEEE4findB8ue170006ERS9_, symObjAddr: 0x24C4, symBinAddr: 0x10001FFDC, symSize: 0x40 }
  - { offsetInCU: 0x142FD, offset: 0x42BD8, size: 0x8, addend: 0x0, symName: __ZNKSt3__119__hash_map_iteratorINS_15__hash_iteratorIPNS_11__hash_nodeINS_17__hash_value_typeIiP14BulkTaskLaunchEEPvEEEEEptB8ue170006Ev, symObjAddr: 0x2504, symBinAddr: 0x10002001C, symSize: 0x2C }
  - { offsetInCU: 0x14321, offset: 0x42BFC, size: 0x8, addend: 0x0, symName: __ZNSt3__111__wrap_iterIPKiEppB8ue170006Ev, symObjAddr: 0x259C, symBinAddr: 0x100020048, symSize: 0x20 }
  - { offsetInCU: 0x14346, offset: 0x42C21, size: 0x8, addend: 0x0, symName: __ZN36TaskSystemParallelThreadPoolSleeping4syncEv, symObjAddr: 0x25BC, symBinAddr: 0x100020068, symSize: 0x180 }
  - { offsetInCU: 0x14427, offset: 0x42D02, size: 0x8, addend: 0x0, symName: __ZNKSt3__113__atomic_baseIiLb0EE4loadB8ue170006ENS_12memory_orderE, symObjAddr: 0x273C, symBinAddr: 0x1000201E8, symSize: 0x2C }
  - { offsetInCU: 0x14459, offset: 0x42D34, size: 0x8, addend: 0x0, symName: __ZNKSt3__113unordered_mapIiP14BulkTaskLaunchNS_4hashIiEENS_8equal_toIiEENS_9allocatorINS_4pairIKiS2_EEEEE5emptyB8ue170006Ev, symObjAddr: 0x2768, symBinAddr: 0x100020214, symSize: 0x30 }
  - { offsetInCU: 0x1447D, offset: 0x42D58, size: 0x8, addend: 0x0, symName: __ZNSt3__16atomicIbEC2B8ue170006Eb, symObjAddr: 0x2798, symBinAddr: 0x100020244, symSize: 0x40 }
  - { offsetInCU: 0x144B4, offset: 0x42D8F, size: 0x8, addend: 0x0, symName: __ZNSt3__113__atomic_baseIbLb0EEC2B8ue170006Eb, symObjAddr: 0x27D8, symBinAddr: 0x100020284, symSize: 0x40 }
  - { offsetInCU: 0x144EB, offset: 0x42DC6, size: 0x8, addend: 0x0, symName: __ZNSt3__117__cxx_atomic_implIbNS_22__cxx_atomic_base_implIbEEEC1B8ue170006Eb, symObjAddr: 0x2818, symBinAddr: 0x1000202C4, symSize: 0x40 }
  - { offsetInCU: 0x14523, offset: 0x42DFE, size: 0x8, addend: 0x0, symName: __ZNSt3__117__cxx_atomic_implIbNS_22__cxx_atomic_base_implIbEEEC2B8ue170006Eb, symObjAddr: 0x2858, symBinAddr: 0x100020304, symSize: 0x40 }
  - { offsetInCU: 0x1455B, offset: 0x42E36, size: 0x8, addend: 0x0, symName: __ZNSt3__122__cxx_atomic_base_implIbEC2Eb, symObjAddr: 0x2898, symBinAddr: 0x100020344, symSize: 0x2C }
  - { offsetInCU: 0x14593, offset: 0x42E6E, size: 0x8, addend: 0x0, symName: __ZNSt3__15mutexC2B8ue170006Ev, symObjAddr: 0x28C4, symBinAddr: 0x100020370, symSize: 0x44 }
  - { offsetInCU: 0x145BC, offset: 0x42E97, size: 0x8, addend: 0x0, symName: __ZNSt3__118condition_variableC2B8ue170006Ev, symObjAddr: 0x2908, symBinAddr: 0x1000203B4, symSize: 0x44 }
  - { offsetInCU: 0x145E5, offset: 0x42EC0, size: 0x8, addend: 0x0, symName: __ZNSt3__15queueIP14BulkTaskLaunchNS_5dequeIS2_NS_9allocatorIS2_EEEEED2Ev, symObjAddr: 0x2A70, symBinAddr: 0x1000203F8, symSize: 0x2C }
  - { offsetInCU: 0x14611, offset: 0x42EEC, size: 0x8, addend: 0x0, symName: __ZNSt3__15dequeIP14BulkTaskLaunchNS_9allocatorIS2_EEED1B8ue170006Ev, symObjAddr: 0x2A9C, symBinAddr: 0x100020424, symSize: 0x2C }
  - { offsetInCU: 0x1463A, offset: 0x42F15, size: 0x8, addend: 0x0, symName: __ZNSt3__15dequeIP14BulkTaskLaunchNS_9allocatorIS2_EEED2B8ue170006Ev, symObjAddr: 0x2AC8, symBinAddr: 0x100020450, symSize: 0xA4 }
  - { offsetInCU: 0x1468F, offset: 0x42F6A, size: 0x8, addend: 0x0, symName: __ZNSt3__15dequeIP14BulkTaskLaunchNS_9allocatorIS2_EEE5clearEv, symObjAddr: 0x2B6C, symBinAddr: 0x1000204F4, symSize: 0x194 }
  - { offsetInCU: 0x146E8, offset: 0x42FC3, size: 0x8, addend: 0x0, symName: __ZNKSt3__15dequeIP14BulkTaskLaunchNS_9allocatorIS2_EEE17__annotate_deleteB8ue170006Ev, symObjAddr: 0x2D00, symBinAddr: 0x100020688, symSize: 0xE8 }
  - { offsetInCU: 0x14729, offset: 0x43004, size: 0x8, addend: 0x0, symName: __ZNSt3__114__split_bufferIPP14BulkTaskLaunchNS_9allocatorIS3_EEE5beginB8ue170006Ev, symObjAddr: 0x2DE8, symBinAddr: 0x100020770, symSize: 0x18 }
  - { offsetInCU: 0x1474E, offset: 0x43029, size: 0x8, addend: 0x0, symName: __ZNSt3__114__split_bufferIPP14BulkTaskLaunchNS_9allocatorIS3_EEE3endB8ue170006Ev, symObjAddr: 0x2E00, symBinAddr: 0x100020788, symSize: 0x18 }
  - { offsetInCU: 0x14773, offset: 0x4304E, size: 0x8, addend: 0x0, symName: __ZNSt3__116allocator_traitsINS_9allocatorIP14BulkTaskLaunchEEE10deallocateB8ue170006ERS4_PS3_m, symObjAddr: 0x2E18, symBinAddr: 0x1000207A0, symSize: 0x34 }
  - { offsetInCU: 0x147B4, offset: 0x4308F, size: 0x8, addend: 0x0, symName: __ZNSt3__15dequeIP14BulkTaskLaunchNS_9allocatorIS2_EEE7__allocB8ue170006Ev, symObjAddr: 0x2E4C, symBinAddr: 0x1000207D4, symSize: 0x28 }
  - { offsetInCU: 0x147D8, offset: 0x430B3, size: 0x8, addend: 0x0, symName: __ZNSt3__114__split_bufferIPP14BulkTaskLaunchNS_9allocatorIS3_EEED1Ev, symObjAddr: 0x2E74, symBinAddr: 0x1000207FC, symSize: 0x2C }
  - { offsetInCU: 0x14803, offset: 0x430DE, size: 0x8, addend: 0x0, symName: __ZNSt3__15dequeIP14BulkTaskLaunchNS_9allocatorIS2_EEE5beginB8ue170006Ev, symObjAddr: 0x2EA0, symBinAddr: 0x100020828, symSize: 0xB8 }
  - { offsetInCU: 0x14836, offset: 0x43111, size: 0x8, addend: 0x0, symName: __ZNSt3__15dequeIP14BulkTaskLaunchNS_9allocatorIS2_EEE3endB8ue170006Ev, symObjAddr: 0x2F58, symBinAddr: 0x1000208E0, symSize: 0xBC }
  - { offsetInCU: 0x14878, offset: 0x43153, size: 0x8, addend: 0x0, symName: __ZNSt3__116allocator_traitsINS_9allocatorIP14BulkTaskLaunchEEE7destroyB8ue170006IS3_vEEvRS4_PT_, symObjAddr: 0x3048, symBinAddr: 0x1000209D0, symSize: 0x2C }
  - { offsetInCU: 0x148B4, offset: 0x4318F, size: 0x8, addend: 0x0, symName: __ZNKSt3__116__deque_iteratorIP14BulkTaskLaunchPS2_RS2_PS3_lLl512EEdeB8ue170006Ev, symObjAddr: 0x3074, symBinAddr: 0x1000209FC, symSize: 0x18 }
  - { offsetInCU: 0x148D9, offset: 0x431B4, size: 0x8, addend: 0x0, symName: __ZNSt3__116__deque_iteratorIP14BulkTaskLaunchPS2_RS2_PS3_lLl512EEppB8ue170006Ev, symObjAddr: 0x308C, symBinAddr: 0x100020A14, symSize: 0x70 }
  - { offsetInCU: 0x148FE, offset: 0x431D9, size: 0x8, addend: 0x0, symName: __ZNSt3__15dequeIP14BulkTaskLaunchNS_9allocatorIS2_EEE6__sizeB8ue170006Ev, symObjAddr: 0x30FC, symBinAddr: 0x100020A84, symSize: 0x28 }
  - { offsetInCU: 0x14922, offset: 0x431FD, size: 0x8, addend: 0x0, symName: __ZNKSt3__114__split_bufferIPP14BulkTaskLaunchNS_9allocatorIS3_EEE4sizeB8ue170006Ev, symObjAddr: 0x3124, symBinAddr: 0x100020AAC, symSize: 0x28 }
  - { offsetInCU: 0x14947, offset: 0x43222, size: 0x8, addend: 0x0, symName: __ZNSt3__114__split_bufferIPP14BulkTaskLaunchNS_9allocatorIS3_EEE5frontB8ue170006Ev, symObjAddr: 0x314C, symBinAddr: 0x100020AD4, symSize: 0x18 }
  - { offsetInCU: 0x1496C, offset: 0x43247, size: 0x8, addend: 0x0, symName: __ZNSt3__114__split_bufferIPP14BulkTaskLaunchNS_9allocatorIS3_EEE9pop_frontB8ue170006Ev, symObjAddr: 0x3164, symBinAddr: 0x100020AEC, symSize: 0x2C }
  - { offsetInCU: 0x14990, offset: 0x4326B, size: 0x8, addend: 0x0, symName: __ZNKSt3__15dequeIP14BulkTaskLaunchNS_9allocatorIS2_EEE14__annotate_newB8ue170006Em, symObjAddr: 0x3190, symBinAddr: 0x100020B18, symSize: 0xB8 }
  - { offsetInCU: 0x149C3, offset: 0x4329E, size: 0x8, addend: 0x0, symName: __ZNKSt3__114__split_bufferIPP14BulkTaskLaunchNS_9allocatorIS3_EEE5emptyB8ue170006Ev, symObjAddr: 0x3248, symBinAddr: 0x100020BD0, symSize: 0x28 }
  - { offsetInCU: 0x149E8, offset: 0x432C3, size: 0x8, addend: 0x0, symName: __ZNSt3__116__deque_iteratorIP14BulkTaskLaunchPS2_RS2_PS3_lLl512EEC1B8ue170006ES5_S3_, symObjAddr: 0x3270, symBinAddr: 0x100020BF8, symSize: 0x3C }
  - { offsetInCU: 0x14A2F, offset: 0x4330A, size: 0x8, addend: 0x0, symName: __ZNSt3__116__deque_iteratorIP14BulkTaskLaunchPS2_RS2_PS3_lLl512EEC2B8ue170006ES5_S3_, symObjAddr: 0x32AC, symBinAddr: 0x100020C34, symSize: 0x2C }
  - { offsetInCU: 0x14A76, offset: 0x43351, size: 0x8, addend: 0x0, symName: __ZNKSt3__15dequeIP14BulkTaskLaunchNS_9allocatorIS2_EEE4sizeB8ue170006Ev, symObjAddr: 0x32D8, symBinAddr: 0x100020C60, symSize: 0x28 }
  - { offsetInCU: 0x14A9A, offset: 0x43375, size: 0x8, addend: 0x0, symName: __ZNKSt3__15dequeIP14BulkTaskLaunchNS_9allocatorIS2_EEE6__sizeB8ue170006Ev, symObjAddr: 0x3300, symBinAddr: 0x100020C88, symSize: 0x28 }
  - { offsetInCU: 0x14ABE, offset: 0x43399, size: 0x8, addend: 0x0, symName: __ZNKSt3__117__compressed_pairImNS_9allocatorIP14BulkTaskLaunchEEE5firstB8ue170006Ev, symObjAddr: 0x3328, symBinAddr: 0x100020CB0, symSize: 0x24 }
  - { offsetInCU: 0x14AE2, offset: 0x433BD, size: 0x8, addend: 0x0, symName: __ZNKSt3__122__compressed_pair_elemImLi0ELb0EE5__getB8ue170006Ev, symObjAddr: 0x334C, symBinAddr: 0x100020CD4, symSize: 0x14 }
  - { offsetInCU: 0x14B07, offset: 0x433E2, size: 0x8, addend: 0x0, symName: __ZNSt3__19allocatorIP14BulkTaskLaunchE7destroyB8ue170006EPS2_, symObjAddr: 0x3390, symBinAddr: 0x100020D18, symSize: 0x14 }
  - { offsetInCU: 0x14B3A, offset: 0x43415, size: 0x8, addend: 0x0, symName: __ZNSt3__117__compressed_pairImNS_9allocatorIP14BulkTaskLaunchEEE5firstB8ue170006Ev, symObjAddr: 0x33A4, symBinAddr: 0x100020D2C, symSize: 0x24 }
  - { offsetInCU: 0x14B5E, offset: 0x43439, size: 0x8, addend: 0x0, symName: __ZNSt3__114__split_bufferIPP14BulkTaskLaunchNS_9allocatorIS3_EEE19__destruct_at_beginB8ue170006EPS3_, symObjAddr: 0x33DC, symBinAddr: 0x100020D50, symSize: 0x2C }
  - { offsetInCU: 0x14B90, offset: 0x4346B, size: 0x8, addend: 0x0, symName: __ZNSt3__114__split_bufferIPP14BulkTaskLaunchNS_9allocatorIS3_EEE19__destruct_at_beginEPS3_NS_17integral_constantIbLb1EEE, symObjAddr: 0x3408, symBinAddr: 0x100020D7C, symSize: 0x20 }
  - { offsetInCU: 0x14BD0, offset: 0x434AB, size: 0x8, addend: 0x0, symName: __ZNKSt3__15dequeIP14BulkTaskLaunchNS_9allocatorIS2_EEE18__annotate_from_toB8ue170006EmmNS5_22__asan_annotation_typeENS5_23__asan_annotation_placeE, symObjAddr: 0x3428, symBinAddr: 0x100020D9C, symSize: 0x580 }
  - { offsetInCU: 0x14D8A, offset: 0x43665, size: 0x8, addend: 0x0, symName: __ZNKSt3__114__split_bufferIPP14BulkTaskLaunchNS_9allocatorIS3_EEE5beginB8ue170006Ev, symObjAddr: 0x39A8, symBinAddr: 0x10002131C, symSize: 0x18 }
  - { offsetInCU: 0x14DAF, offset: 0x4368A, size: 0x8, addend: 0x0, symName: __ZNKSt3__15dequeIP14BulkTaskLaunchNS_9allocatorIS2_EEE5emptyB8ue170006Ev, symObjAddr: 0x39C0, symBinAddr: 0x100021334, symSize: 0x30 }
  - { offsetInCU: 0x14DD3, offset: 0x436AE, size: 0x8, addend: 0x0, symName: __ZNKSt3__15dequeIP14BulkTaskLaunchNS_9allocatorIS2_EEE44__annotate_double_ended_contiguous_containerB8ue170006EPKvS7_S7_S7_S7_S7_, symObjAddr: 0x3A04, symBinAddr: 0x100021378, symSize: 0x28 }
  - { offsetInCU: 0x14E3A, offset: 0x43715, size: 0x8, addend: 0x0, symName: __ZNKSt3__15dequeIP14BulkTaskLaunchNS_9allocatorIS2_EEE22__annotate_whole_blockB8ue170006EmNS5_22__asan_annotation_typeE, symObjAddr: 0x3A2C, symBinAddr: 0x1000213A0, symSize: 0xAC }
  - { offsetInCU: 0x14EA9, offset: 0x43784, size: 0x8, addend: 0x0, symName: __ZNKSt3__15dequeIP14BulkTaskLaunchNS_9allocatorIS2_EEE23__annotate_poison_blockB8ue170006EPKvS7_, symObjAddr: 0x3AD8, symBinAddr: 0x10002144C, symSize: 0x44 }
  - { offsetInCU: 0x14EEB, offset: 0x437C6, size: 0x8, addend: 0x0, symName: __ZNSt3__19allocatorIP14BulkTaskLaunchE10deallocateB8ue170006EPS2_m, symObjAddr: 0x3B1C, symBinAddr: 0x100021490, symSize: 0x40 }
  - { offsetInCU: 0x14F2B, offset: 0x43806, size: 0x8, addend: 0x0, symName: __ZNSt3__117__compressed_pairImNS_9allocatorIP14BulkTaskLaunchEEE6secondB8ue170006Ev, symObjAddr: 0x3BD8, symBinAddr: 0x1000214D0, symSize: 0x24 }
  - { offsetInCU: 0x14F4F, offset: 0x4382A, size: 0x8, addend: 0x0, symName: __ZNSt3__122__compressed_pair_elemINS_9allocatorIP14BulkTaskLaunchEELi1ELb1EE5__getB8ue170006Ev, symObjAddr: 0x3BFC, symBinAddr: 0x1000214F4, symSize: 0x14 }
  - { offsetInCU: 0x14F74, offset: 0x4384F, size: 0x8, addend: 0x0, symName: __ZNSt3__114__split_bufferIPP14BulkTaskLaunchNS_9allocatorIS3_EEED2Ev, symObjAddr: 0x3C10, symBinAddr: 0x100021508, symSize: 0x8C }
  - { offsetInCU: 0x14F9F, offset: 0x4387A, size: 0x8, addend: 0x0, symName: __ZNSt3__114__split_bufferIPP14BulkTaskLaunchNS_9allocatorIS3_EEE5clearB8ue170006Ev, symObjAddr: 0x3C9C, symBinAddr: 0x100021594, symSize: 0x28 }
  - { offsetInCU: 0x14FC3, offset: 0x4389E, size: 0x8, addend: 0x0, symName: __ZNSt3__116allocator_traitsINS_9allocatorIPP14BulkTaskLaunchEEE10deallocateB8ue170006ERS5_PS4_m, symObjAddr: 0x3CC4, symBinAddr: 0x1000215BC, symSize: 0x34 }
  - { offsetInCU: 0x15004, offset: 0x438DF, size: 0x8, addend: 0x0, symName: __ZNSt3__114__split_bufferIPP14BulkTaskLaunchNS_9allocatorIS3_EEE7__allocB8ue170006Ev, symObjAddr: 0x3CF8, symBinAddr: 0x1000215F0, symSize: 0x28 }
  - { offsetInCU: 0x15028, offset: 0x43903, size: 0x8, addend: 0x0, symName: __ZNKSt3__114__split_bufferIPP14BulkTaskLaunchNS_9allocatorIS3_EEE8capacityB8ue170006Ev, symObjAddr: 0x3D20, symBinAddr: 0x100021618, symSize: 0x40 }
  - { offsetInCU: 0x1504C, offset: 0x43927, size: 0x8, addend: 0x0, symName: __ZNSt3__114__split_bufferIPP14BulkTaskLaunchNS_9allocatorIS3_EEE17__destruct_at_endB8ue170006EPS3_, symObjAddr: 0x3D60, symBinAddr: 0x100021658, symSize: 0x2C }
  - { offsetInCU: 0x1507E, offset: 0x43959, size: 0x8, addend: 0x0, symName: __ZNSt3__114__split_bufferIPP14BulkTaskLaunchNS_9allocatorIS3_EEE17__destruct_at_endB8ue170006EPS3_NS_17integral_constantIbLb0EEE, symObjAddr: 0x3D8C, symBinAddr: 0x100021684, symSize: 0x80 }
  - { offsetInCU: 0x150BD, offset: 0x43998, size: 0x8, addend: 0x0, symName: __ZNSt3__116allocator_traitsINS_9allocatorIPP14BulkTaskLaunchEEE7destroyB8ue170006IS4_vEEvRS5_PT_, symObjAddr: 0x3E0C, symBinAddr: 0x100021704, symSize: 0x2C }
  - { offsetInCU: 0x150F9, offset: 0x439D4, size: 0x8, addend: 0x0, symName: __ZNSt3__19allocatorIPP14BulkTaskLaunchE7destroyB8ue170006EPS3_, symObjAddr: 0x3E4C, symBinAddr: 0x100021744, symSize: 0x14 }
  - { offsetInCU: 0x1512C, offset: 0x43A07, size: 0x8, addend: 0x0, symName: __ZNSt3__19allocatorIPP14BulkTaskLaunchE10deallocateB8ue170006EPS3_m, symObjAddr: 0x3E60, symBinAddr: 0x100021758, symSize: 0x40 }
  - { offsetInCU: 0x1516C, offset: 0x43A47, size: 0x8, addend: 0x0, symName: __ZNSt3__117__compressed_pairIPPP14BulkTaskLaunchNS_9allocatorIS3_EEE6secondB8ue170006Ev, symObjAddr: 0x3EA0, symBinAddr: 0x100021798, symSize: 0x24 }
  - { offsetInCU: 0x15190, offset: 0x43A6B, size: 0x8, addend: 0x0, symName: __ZNSt3__122__compressed_pair_elemINS_9allocatorIPP14BulkTaskLaunchEELi1ELb1EE5__getB8ue170006Ev, symObjAddr: 0x3EC4, symBinAddr: 0x1000217BC, symSize: 0x14 }
  - { offsetInCU: 0x151B5, offset: 0x43A90, size: 0x8, addend: 0x0, symName: __ZNKSt3__114__split_bufferIPP14BulkTaskLaunchNS_9allocatorIS3_EEE9__end_capB8ue170006Ev, symObjAddr: 0x3ED8, symBinAddr: 0x1000217D0, symSize: 0x28 }
  - { offsetInCU: 0x151D9, offset: 0x43AB4, size: 0x8, addend: 0x0, symName: __ZNKSt3__117__compressed_pairIPPP14BulkTaskLaunchNS_9allocatorIS3_EEE5firstB8ue170006Ev, symObjAddr: 0x3F00, symBinAddr: 0x1000217F8, symSize: 0x24 }
  - { offsetInCU: 0x151FD, offset: 0x43AD8, size: 0x8, addend: 0x0, symName: __ZNKSt3__122__compressed_pair_elemIPPP14BulkTaskLaunchLi0ELb0EE5__getB8ue170006Ev, symObjAddr: 0x3F24, symBinAddr: 0x10002181C, symSize: 0x14 }
  - { offsetInCU: 0x15222, offset: 0x43AFD, size: 0x8, addend: 0x0, symName: __ZNKSt3__111__wrap_iterIPNS_6threadEE4baseB8ue170006Ev, symObjAddr: 0x3F80, symBinAddr: 0x100021878, symSize: 0x18 }
  - { offsetInCU: 0x15247, offset: 0x43B22, size: 0x8, addend: 0x0, symName: __ZN14BulkTaskLaunchD2Ev, symObjAddr: 0x3FE0, symBinAddr: 0x1000218D8, symSize: 0x3C }
  - { offsetInCU: 0x15272, offset: 0x43B4D, size: 0x8, addend: 0x0, symName: __ZN14BulkTaskLaunchC2EiP9IRunnableiNSt3__16vectorIiNS2_9allocatorIiEEEE, symObjAddr: 0x407C, symBinAddr: 0x100021914, symSize: 0x114 }
  - { offsetInCU: 0x152D4, offset: 0x43BAF, size: 0x8, addend: 0x0, symName: __ZNSt16initializer_listIiEC1B8ue170006Ev, symObjAddr: 0x41BC, symBinAddr: 0x100021A28, symSize: 0x2C }
  - { offsetInCU: 0x152FD, offset: 0x43BD8, size: 0x8, addend: 0x0, symName: __ZNSt3__16vectorIiNS_9allocatorIiEEEaSB8ue170006ESt16initializer_listIiE, symObjAddr: 0x41E8, symBinAddr: 0x100021A54, symSize: 0x60 }
  - { offsetInCU: 0x15330, offset: 0x43C0B, size: 0x8, addend: 0x0, symName: __ZNSt3__16vectorIiNS_9allocatorIiEEEaSB8ue170006ERKS3_, symObjAddr: 0x4248, symBinAddr: 0x100021AB4, symSize: 0x68 }
  - { offsetInCU: 0x1536F, offset: 0x43C4A, size: 0x8, addend: 0x0, symName: __ZNSt16initializer_listIiEC2B8ue170006Ev, symObjAddr: 0x4428, symBinAddr: 0x100021B1C, symSize: 0x1C }
  - { offsetInCU: 0x15398, offset: 0x43C73, size: 0x8, addend: 0x0, symName: __ZNSt3__16vectorIiNS_9allocatorIiEEE6assignIPKiLi0EEEvT_S7_, symObjAddr: 0x4444, symBinAddr: 0x100021B38, symSize: 0x5C }
  - { offsetInCU: 0x153EB, offset: 0x43CC6, size: 0x8, addend: 0x0, symName: __ZNKSt16initializer_listIiE5beginB8ue170006Ev, symObjAddr: 0x44A0, symBinAddr: 0x100021B94, symSize: 0x18 }
  - { offsetInCU: 0x15410, offset: 0x43CEB, size: 0x8, addend: 0x0, symName: __ZNKSt16initializer_listIiE3endB8ue170006Ev, symObjAddr: 0x44B8, symBinAddr: 0x100021BAC, symSize: 0x20 }
  - { offsetInCU: 0x15435, offset: 0x43D10, size: 0x8, addend: 0x0, symName: __ZNSt3__16vectorIiNS_9allocatorIiEEE18__assign_with_sizeB8ue170006IPKiS6_EEvT_T0_l, symObjAddr: 0x44D8, symBinAddr: 0x100021BCC, symSize: 0x164 }
  - { offsetInCU: 0x154E3, offset: 0x43DBE, size: 0x8, addend: 0x0, symName: __ZNSt3__16vectorIiNS_9allocatorIiEEE18__construct_at_endIPKiS6_EEvT_T0_m, symObjAddr: 0x471C, symBinAddr: 0x100021DD0, symSize: 0x8C }
  - { offsetInCU: 0x15557, offset: 0x43E32, size: 0x8, addend: 0x0, symName: __ZNSt3__16vectorIiNS_9allocatorIiEEE17__destruct_at_endB8ue170006EPi, symObjAddr: 0x47EC, symBinAddr: 0x100021EA0, symSize: 0x4C }
  - { offsetInCU: 0x155D0, offset: 0x43EAB, size: 0x8, addend: 0x0, symName: __ZNSt3__14pairIPKiS2_EC1B8ue170006IS2_S2_LPv0EEEOT_OT0_, symObjAddr: 0x4DA8, symBinAddr: 0x1000220D4, symSize: 0x3C }
  - { offsetInCU: 0x1562D, offset: 0x43F08, size: 0x8, addend: 0x0, symName: __ZNSt3__14pairIPKiS2_EC2B8ue170006IS2_S2_LPv0EEEOT_OT0_, symObjAddr: 0x4DE4, symBinAddr: 0x100022110, symSize: 0x34 }
  - { offsetInCU: 0x1568A, offset: 0x43F65, size: 0x8, addend: 0x0, symName: __ZNSt3__118__unwrap_iter_implIPKiLb1EE8__unwrapB8ue170006ES2_, symObjAddr: 0x4E18, symBinAddr: 0x100022144, symSize: 0x24 }
  - { offsetInCU: 0x156CF, offset: 0x43FAA, size: 0x8, addend: 0x0, symName: __ZNKSt3__114__copy_trivialclB8ue170006IKiiLi0EEENS_4pairIPT_PT0_EES5_S5_S7_, symObjAddr: 0x5028, symBinAddr: 0x100022274, symSize: 0x48 }
  - { offsetInCU: 0x1573F, offset: 0x4401A, size: 0x8, addend: 0x0, symName: __ZNSt3__14pairIPKiPiEC1B8ue170006IRS2_S3_LPv0EEEOT_OT0_, symObjAddr: 0x51F0, symBinAddr: 0x10002243C, symSize: 0x3C }
  - { offsetInCU: 0x1579C, offset: 0x44077, size: 0x8, addend: 0x0, symName: __ZNSt3__14pairIPKiPiEC2B8ue170006IRS2_S3_LPv0EEEOT_OT0_, symObjAddr: 0x522C, symBinAddr: 0x100022478, symSize: 0x34 }
  - { offsetInCU: 0x157F9, offset: 0x440D4, size: 0x8, addend: 0x0, symName: __ZNSt3__14pairIPKiPiEC1B8ue170006IS2_S3_LPv0EEEOT_OT0_, symObjAddr: 0x5260, symBinAddr: 0x1000224AC, symSize: 0x3C }
  - { offsetInCU: 0x15856, offset: 0x44131, size: 0x8, addend: 0x0, symName: __ZNSt3__14pairIPKiPiEC2B8ue170006IS2_S3_LPv0EEEOT_OT0_, symObjAddr: 0x529C, symBinAddr: 0x1000224E8, symSize: 0x34 }
  - { offsetInCU: 0x158B3, offset: 0x4418E, size: 0x8, addend: 0x0, symName: __ZNSt3__118__unwrap_iter_implIPKiLb1EE8__rewrapB8ue170006ES2_S2_, symObjAddr: 0x530C, symBinAddr: 0x100022558, symSize: 0x50 }
  - { offsetInCU: 0x158ED, offset: 0x441C8, size: 0x8, addend: 0x0, symName: __ZNSt3__16vectorIiNS_9allocatorIiEEE19__copy_assign_allocB8ue170006ERKS3_, symObjAddr: 0x5C50, symBinAddr: 0x1000225D0, symSize: 0x2C }
  - { offsetInCU: 0x15920, offset: 0x441FB, size: 0x8, addend: 0x0, symName: __ZNSt3__16vectorIiNS_9allocatorIiEEE6assignIPiLi0EEEvT_S6_, symObjAddr: 0x5C7C, symBinAddr: 0x1000225FC, symSize: 0x5C }
  - { offsetInCU: 0x15973, offset: 0x4424E, size: 0x8, addend: 0x0, symName: __ZNSt3__16vectorIiNS_9allocatorIiEEE19__copy_assign_allocB8ue170006ERKS3_NS_17integral_constantIbLb0EEE, symObjAddr: 0x5CD8, symBinAddr: 0x100022658, symSize: 0x14 }
  - { offsetInCU: 0x159AE, offset: 0x44289, size: 0x8, addend: 0x0, symName: __ZNSt3__16vectorIiNS_9allocatorIiEEE18__assign_with_sizeB8ue170006IPiS5_EEvT_T0_l, symObjAddr: 0x5CEC, symBinAddr: 0x10002266C, symSize: 0x164 }
  - { offsetInCU: 0x15A5C, offset: 0x44337, size: 0x8, addend: 0x0, symName: __ZNKSt3__111__wrap_iterIPKiE4baseB8ue170006Ev, symObjAddr: 0x6548, symBinAddr: 0x100022900, symSize: 0x18 }
  - { offsetInCU: 0x15A81, offset: 0x4435C, size: 0x8, addend: 0x0, symName: __ZNSt3__113__atomic_baseIiLb0EE5storeB8ue170006EiNS_12memory_orderE, symObjAddr: 0x6688, symBinAddr: 0x100022918, symSize: 0x34 }
  - { offsetInCU: 0x15AC1, offset: 0x4439C, size: 0x8, addend: 0x0, symName: __ZNSt3__16vectorINS_6threadENS_9allocatorIS1_EEEC2B8ue170006Ev, symObjAddr: 0x6740, symBinAddr: 0x1000229D0, symSize: 0x4C }
  - { offsetInCU: 0x15AEA, offset: 0x443C5, size: 0x8, addend: 0x0, symName: __ZNSt3__117__compressed_pairIPNS_6threadENS_9allocatorIS1_EEEC1B8ue170006IDnNS_18__default_init_tagEEEOT_OT0_, symObjAddr: 0x678C, symBinAddr: 0x100022A1C, symSize: 0x3C }
  - { offsetInCU: 0x15B41, offset: 0x4441C, size: 0x8, addend: 0x0, symName: __ZNSt3__117__compressed_pairIPNS_6threadENS_9allocatorIS1_EEEC2B8ue170006IDnNS_18__default_init_tagEEEOT_OT0_, symObjAddr: 0x67C8, symBinAddr: 0x100022A58, symSize: 0x40 }
  - { offsetInCU: 0x15B98, offset: 0x44473, size: 0x8, addend: 0x0, symName: __ZNSt3__122__compressed_pair_elemIPNS_6threadELi0ELb0EEC2B8ue170006IDnvEEOT_, symObjAddr: 0x6808, symBinAddr: 0x100022A98, symSize: 0x1C }
  - { offsetInCU: 0x15BD9, offset: 0x444B4, size: 0x8, addend: 0x0, symName: __ZNSt3__122__compressed_pair_elemINS_9allocatorINS_6threadEEELi1ELb1EEC2B8ue170006ENS_18__default_init_tagE, symObjAddr: 0x6824, symBinAddr: 0x100022AB4, symSize: 0x2C }
  - { offsetInCU: 0x15C0D, offset: 0x444E8, size: 0x8, addend: 0x0, symName: __ZNSt3__19allocatorINS_6threadEEC2B8ue170006Ev, symObjAddr: 0x6850, symBinAddr: 0x100022AE0, symSize: 0x2C }
  - { offsetInCU: 0x15C36, offset: 0x44511, size: 0x8, addend: 0x0, symName: __ZNSt3__116__non_trivial_ifILb1ENS_9allocatorINS_6threadEEEEC2B8ue170006Ev, symObjAddr: 0x687C, symBinAddr: 0x100022B0C, symSize: 0x14 }
  - { offsetInCU: 0x15C5F, offset: 0x4453A, size: 0x8, addend: 0x0, symName: __ZNSt3__113unordered_mapIiP14BulkTaskLaunchNS_4hashIiEENS_8equal_toIiEENS_9allocatorINS_4pairIKiS2_EEEEEC2B8ue170006Ev, symObjAddr: 0x6890, symBinAddr: 0x100022B20, symSize: 0x2C }
  - { offsetInCU: 0x15C88, offset: 0x44563, size: 0x8, addend: 0x0, symName: __ZNSt3__112__hash_tableINS_17__hash_value_typeIiP14BulkTaskLaunchEENS_22__unordered_map_hasherIiS4_NS_4hashIiEENS_8equal_toIiEELb1EEENS_21__unordered_map_equalIiS4_S9_S7_Lb1EEENS_9allocatorIS4_EEEC1Ev, symObjAddr: 0x68BC, symBinAddr: 0x100022B4C, symSize: 0x2C }
  - { offsetInCU: 0x15CB3, offset: 0x4458E, size: 0x8, addend: 0x0, symName: __ZNSt3__112__hash_tableINS_17__hash_value_typeIiP14BulkTaskLaunchEENS_22__unordered_map_hasherIiS4_NS_4hashIiEENS_8equal_toIiEELb1EEENS_21__unordered_map_equalIiS4_S9_S7_Lb1EEENS_9allocatorIS4_EEEC2Ev, symObjAddr: 0x68E8, symBinAddr: 0x100022B78, symSize: 0x7C }
  - { offsetInCU: 0x15CDE, offset: 0x445B9, size: 0x8, addend: 0x0, symName: __ZNSt3__110unique_ptrIA_PNS_16__hash_node_baseIPNS_11__hash_nodeINS_17__hash_value_typeIiP14BulkTaskLaunchEEPvEEEENS_25__bucket_list_deallocatorINS_9allocatorISB_EEEEEC1B8ue170006ILb1EvEEv, symObjAddr: 0x6964, symBinAddr: 0x100022BF4, symSize: 0x2C }
  - { offsetInCU: 0x15D12, offset: 0x445ED, size: 0x8, addend: 0x0, symName: __ZNSt3__117__compressed_pairINS_16__hash_node_baseIPNS_11__hash_nodeINS_17__hash_value_typeIiP14BulkTaskLaunchEEPvEEEENS_9allocatorIS8_EEEC1B8ue170006ILb1EvEEv, symObjAddr: 0x6990, symBinAddr: 0x100022C20, symSize: 0x2C }
  - { offsetInCU: 0x15D4B, offset: 0x44626, size: 0x8, addend: 0x0, symName: __ZNSt3__117__compressed_pairImNS_22__unordered_map_hasherIiNS_17__hash_value_typeIiP14BulkTaskLaunchEENS_4hashIiEENS_8equal_toIiEELb1EEEEC1B8ue170006IiNS_18__default_init_tagEEEOT_OT0_, symObjAddr: 0x69BC, symBinAddr: 0x100022C4C, symSize: 0x3C }
  - { offsetInCU: 0x15DA7, offset: 0x44682, size: 0x8, addend: 0x0, symName: __ZNSt3__117__compressed_pairIfNS_21__unordered_map_equalIiNS_17__hash_value_typeIiP14BulkTaskLaunchEENS_8equal_toIiEENS_4hashIiEELb1EEEEC1B8ue170006IfNS_18__default_init_tagEEEOT_OT0_, symObjAddr: 0x69F8, symBinAddr: 0x100022C88, symSize: 0x3C }
  - { offsetInCU: 0x15DFE, offset: 0x446D9, size: 0x8, addend: 0x0, symName: __ZNSt3__110unique_ptrIA_PNS_16__hash_node_baseIPNS_11__hash_nodeINS_17__hash_value_typeIiP14BulkTaskLaunchEEPvEEEENS_25__bucket_list_deallocatorINS_9allocatorISB_EEEEEC2B8ue170006ILb1EvEEv, symObjAddr: 0x6A34, symBinAddr: 0x100022CC4, symSize: 0x3C }
  - { offsetInCU: 0x15E37, offset: 0x44712, size: 0x8, addend: 0x0, symName: __ZNSt3__117__compressed_pairIPPNS_16__hash_node_baseIPNS_11__hash_nodeINS_17__hash_value_typeIiP14BulkTaskLaunchEEPvEEEENS_25__bucket_list_deallocatorINS_9allocatorISB_EEEEEC1B8ue170006INS_16__value_init_tagESJ_EEOT_OT0_, symObjAddr: 0x6A70, symBinAddr: 0x100022D00, symSize: 0x3C }
  - { offsetInCU: 0x15E8E, offset: 0x44769, size: 0x8, addend: 0x0, symName: __ZNSt3__117__compressed_pairIPPNS_16__hash_node_baseIPNS_11__hash_nodeINS_17__hash_value_typeIiP14BulkTaskLaunchEEPvEEEENS_25__bucket_list_deallocatorINS_9allocatorISB_EEEEEC2B8ue170006INS_16__value_init_tagESJ_EEOT_OT0_, symObjAddr: 0x6AAC, symBinAddr: 0x100022D3C, symSize: 0x40 }
  - { offsetInCU: 0x15EE5, offset: 0x447C0, size: 0x8, addend: 0x0, symName: __ZNSt3__122__compressed_pair_elemIPPNS_16__hash_node_baseIPNS_11__hash_nodeINS_17__hash_value_typeIiP14BulkTaskLaunchEEPvEEEELi0ELb0EEC2B8ue170006ENS_16__value_init_tagE, symObjAddr: 0x6AEC, symBinAddr: 0x100022D7C, symSize: 0x18 }
  - { offsetInCU: 0x15F19, offset: 0x447F4, size: 0x8, addend: 0x0, symName: __ZNSt3__122__compressed_pair_elemINS_25__bucket_list_deallocatorINS_9allocatorIPNS_16__hash_node_baseIPNS_11__hash_nodeINS_17__hash_value_typeIiP14BulkTaskLaunchEEPvEEEEEEEELi1ELb0EEC2B8ue170006ENS_16__value_init_tagE, symObjAddr: 0x6B04, symBinAddr: 0x100022D94, symSize: 0x2C }
  - { offsetInCU: 0x15F4D, offset: 0x44828, size: 0x8, addend: 0x0, symName: __ZNSt3__125__bucket_list_deallocatorINS_9allocatorIPNS_16__hash_node_baseIPNS_11__hash_nodeINS_17__hash_value_typeIiP14BulkTaskLaunchEEPvEEEEEEEC1B8ue170006Ev, symObjAddr: 0x6B30, symBinAddr: 0x100022DC0, symSize: 0x2C }
  - { offsetInCU: 0x15F76, offset: 0x44851, size: 0x8, addend: 0x0, symName: __ZNSt3__125__bucket_list_deallocatorINS_9allocatorIPNS_16__hash_node_baseIPNS_11__hash_nodeINS_17__hash_value_typeIiP14BulkTaskLaunchEEPvEEEEEEEC2B8ue170006Ev, symObjAddr: 0x6B5C, symBinAddr: 0x100022DEC, symSize: 0x40 }
  - { offsetInCU: 0x15F9F, offset: 0x4487A, size: 0x8, addend: 0x0, symName: __ZNSt3__117__compressed_pairImNS_9allocatorIPNS_16__hash_node_baseIPNS_11__hash_nodeINS_17__hash_value_typeIiP14BulkTaskLaunchEEPvEEEEEEEC1B8ue170006IiNS_18__default_init_tagEEEOT_OT0_, symObjAddr: 0x6B9C, symBinAddr: 0x100022E2C, symSize: 0x3C }
  - { offsetInCU: 0x15FF6, offset: 0x448D1, size: 0x8, addend: 0x0, symName: __ZNSt3__117__compressed_pairImNS_9allocatorIPNS_16__hash_node_baseIPNS_11__hash_nodeINS_17__hash_value_typeIiP14BulkTaskLaunchEEPvEEEEEEEC2B8ue170006IiNS_18__default_init_tagEEEOT_OT0_, symObjAddr: 0x6BD8, symBinAddr: 0x100022E68, symSize: 0x40 }
  - { offsetInCU: 0x1604D, offset: 0x44928, size: 0x8, addend: 0x0, symName: __ZNSt3__122__compressed_pair_elemINS_9allocatorIPNS_16__hash_node_baseIPNS_11__hash_nodeINS_17__hash_value_typeIiP14BulkTaskLaunchEEPvEEEEEELi1ELb1EEC2B8ue170006ENS_18__default_init_tagE, symObjAddr: 0x6C3C, symBinAddr: 0x100022EA8, symSize: 0x2C }
  - { offsetInCU: 0x16081, offset: 0x4495C, size: 0x8, addend: 0x0, symName: __ZNSt3__19allocatorIPNS_16__hash_node_baseIPNS_11__hash_nodeINS_17__hash_value_typeIiP14BulkTaskLaunchEEPvEEEEEC2B8ue170006Ev, symObjAddr: 0x6C68, symBinAddr: 0x100022ED4, symSize: 0x2C }
  - { offsetInCU: 0x160AA, offset: 0x44985, size: 0x8, addend: 0x0, symName: __ZNSt3__116__non_trivial_ifILb1ENS_9allocatorIPNS_16__hash_node_baseIPNS_11__hash_nodeINS_17__hash_value_typeIiP14BulkTaskLaunchEEPvEEEEEEEC2B8ue170006Ev, symObjAddr: 0x6C94, symBinAddr: 0x100022F00, symSize: 0x14 }
  - { offsetInCU: 0x160D3, offset: 0x449AE, size: 0x8, addend: 0x0, symName: __ZNSt3__117__compressed_pairINS_16__hash_node_baseIPNS_11__hash_nodeINS_17__hash_value_typeIiP14BulkTaskLaunchEEPvEEEENS_9allocatorIS8_EEEC2B8ue170006ILb1EvEEv, symObjAddr: 0x6CA8, symBinAddr: 0x100022F14, symSize: 0x34 }
  - { offsetInCU: 0x16107, offset: 0x449E2, size: 0x8, addend: 0x0, symName: __ZNSt3__122__compressed_pair_elemINS_16__hash_node_baseIPNS_11__hash_nodeINS_17__hash_value_typeIiP14BulkTaskLaunchEEPvEEEELi0ELb0EEC2B8ue170006ENS_16__value_init_tagE, symObjAddr: 0x6CDC, symBinAddr: 0x100022F48, symSize: 0x2C }
  - { offsetInCU: 0x1613B, offset: 0x44A16, size: 0x8, addend: 0x0, symName: __ZNSt3__122__compressed_pair_elemINS_9allocatorINS_11__hash_nodeINS_17__hash_value_typeIiP14BulkTaskLaunchEEPvEEEELi1ELb1EEC2B8ue170006ENS_16__value_init_tagE, symObjAddr: 0x6D08, symBinAddr: 0x100022F74, symSize: 0x2C }
  - { offsetInCU: 0x1616F, offset: 0x44A4A, size: 0x8, addend: 0x0, symName: __ZNSt3__116__hash_node_baseIPNS_11__hash_nodeINS_17__hash_value_typeIiP14BulkTaskLaunchEEPvEEEC1B8ue170006Ev, symObjAddr: 0x6D34, symBinAddr: 0x100022FA0, symSize: 0x2C }
  - { offsetInCU: 0x16198, offset: 0x44A73, size: 0x8, addend: 0x0, symName: __ZNSt3__116__hash_node_baseIPNS_11__hash_nodeINS_17__hash_value_typeIiP14BulkTaskLaunchEEPvEEEC2B8ue170006Ev, symObjAddr: 0x6D60, symBinAddr: 0x100022FCC, symSize: 0x18 }
  - { offsetInCU: 0x161C1, offset: 0x44A9C, size: 0x8, addend: 0x0, symName: __ZNSt3__19allocatorINS_11__hash_nodeINS_17__hash_value_typeIiP14BulkTaskLaunchEEPvEEEC2B8ue170006Ev, symObjAddr: 0x6D78, symBinAddr: 0x100022FE4, symSize: 0x2C }
  - { offsetInCU: 0x161EA, offset: 0x44AC5, size: 0x8, addend: 0x0, symName: __ZNSt3__116__non_trivial_ifILb1ENS_9allocatorINS_11__hash_nodeINS_17__hash_value_typeIiP14BulkTaskLaunchEEPvEEEEEC2B8ue170006Ev, symObjAddr: 0x6DA4, symBinAddr: 0x100023010, symSize: 0x14 }
  - { offsetInCU: 0x16213, offset: 0x44AEE, size: 0x8, addend: 0x0, symName: __ZNSt3__117__compressed_pairImNS_22__unordered_map_hasherIiNS_17__hash_value_typeIiP14BulkTaskLaunchEENS_4hashIiEENS_8equal_toIiEELb1EEEEC2B8ue170006IiNS_18__default_init_tagEEEOT_OT0_, symObjAddr: 0x6DB8, symBinAddr: 0x100023024, symSize: 0x40 }
  - { offsetInCU: 0x1626A, offset: 0x44B45, size: 0x8, addend: 0x0, symName: __ZNSt3__122__compressed_pair_elemINS_22__unordered_map_hasherIiNS_17__hash_value_typeIiP14BulkTaskLaunchEENS_4hashIiEENS_8equal_toIiEELb1EEELi1ELb1EEC2B8ue170006ENS_18__default_init_tagE, symObjAddr: 0x6DF8, symBinAddr: 0x100023064, symSize: 0x2C }
  - { offsetInCU: 0x1629E, offset: 0x44B79, size: 0x8, addend: 0x0, symName: __ZNSt3__122__unordered_map_hasherIiNS_17__hash_value_typeIiP14BulkTaskLaunchEENS_4hashIiEENS_8equal_toIiEELb1EEC2B8ue170006Ev, symObjAddr: 0x6E24, symBinAddr: 0x100023090, symSize: 0x14 }
  - { offsetInCU: 0x162C7, offset: 0x44BA2, size: 0x8, addend: 0x0, symName: __ZNSt3__117__compressed_pairIfNS_21__unordered_map_equalIiNS_17__hash_value_typeIiP14BulkTaskLaunchEENS_8equal_toIiEENS_4hashIiEELb1EEEEC2B8ue170006IfNS_18__default_init_tagEEEOT_OT0_, symObjAddr: 0x6E38, symBinAddr: 0x1000230A4, symSize: 0x40 }
  - { offsetInCU: 0x1631E, offset: 0x44BF9, size: 0x8, addend: 0x0, symName: __ZNSt3__122__compressed_pair_elemIfLi0ELb0EEC2B8ue170006IfvEEOT_, symObjAddr: 0x6E78, symBinAddr: 0x1000230E4, symSize: 0x24 }
  - { offsetInCU: 0x1635F, offset: 0x44C3A, size: 0x8, addend: 0x0, symName: __ZNSt3__122__compressed_pair_elemINS_21__unordered_map_equalIiNS_17__hash_value_typeIiP14BulkTaskLaunchEENS_8equal_toIiEENS_4hashIiEELb1EEELi1ELb1EEC2B8ue170006ENS_18__default_init_tagE, symObjAddr: 0x6E9C, symBinAddr: 0x100023108, symSize: 0x2C }
  - { offsetInCU: 0x16393, offset: 0x44C6E, size: 0x8, addend: 0x0, symName: __ZNSt3__121__unordered_map_equalIiNS_17__hash_value_typeIiP14BulkTaskLaunchEENS_8equal_toIiEENS_4hashIiEELb1EEC2B8ue170006Ev, symObjAddr: 0x6EC8, symBinAddr: 0x100023134, symSize: 0x14 }
  - { offsetInCU: 0x163BC, offset: 0x44C97, size: 0x8, addend: 0x0, symName: __ZNSt3__15queueIP14BulkTaskLaunchNS_5dequeIS2_NS_9allocatorIS2_EEEEEC2B8ue170006Ev, symObjAddr: 0x6EDC, symBinAddr: 0x100023148, symSize: 0x2C }
  - { offsetInCU: 0x163E5, offset: 0x44CC0, size: 0x8, addend: 0x0, symName: __ZNSt3__15dequeIP14BulkTaskLaunchNS_9allocatorIS2_EEEC1B8ue170006Ev, symObjAddr: 0x6F08, symBinAddr: 0x100023174, symSize: 0x2C }
  - { offsetInCU: 0x1640E, offset: 0x44CE9, size: 0x8, addend: 0x0, symName: __ZNSt3__15dequeIP14BulkTaskLaunchNS_9allocatorIS2_EEEC2B8ue170006Ev, symObjAddr: 0x6F34, symBinAddr: 0x1000231A0, symSize: 0x5C }
  - { offsetInCU: 0x16437, offset: 0x44D12, size: 0x8, addend: 0x0, symName: __ZNSt3__114__split_bufferIPP14BulkTaskLaunchNS_9allocatorIS3_EEEC1B8ue170006Ev, symObjAddr: 0x6F90, symBinAddr: 0x1000231FC, symSize: 0x2C }
  - { offsetInCU: 0x16460, offset: 0x44D3B, size: 0x8, addend: 0x0, symName: __ZNSt3__117__compressed_pairImNS_9allocatorIP14BulkTaskLaunchEEEC1B8ue170006IiNS_18__default_init_tagEEEOT_OT0_, symObjAddr: 0x6FBC, symBinAddr: 0x100023228, symSize: 0x3C }
  - { offsetInCU: 0x164B7, offset: 0x44D92, size: 0x8, addend: 0x0, symName: __ZNSt3__114__split_bufferIPP14BulkTaskLaunchNS_9allocatorIS3_EEEC2B8ue170006Ev, symObjAddr: 0x6FF8, symBinAddr: 0x100023264, symSize: 0x50 }
  - { offsetInCU: 0x164E0, offset: 0x44DBB, size: 0x8, addend: 0x0, symName: __ZNSt3__117__compressed_pairIPPP14BulkTaskLaunchNS_9allocatorIS3_EEEC1B8ue170006IDnNS_18__default_init_tagEEEOT_OT0_, symObjAddr: 0x7048, symBinAddr: 0x1000232B4, symSize: 0x3C }
  - { offsetInCU: 0x16537, offset: 0x44E12, size: 0x8, addend: 0x0, symName: __ZNSt3__117__compressed_pairIPPP14BulkTaskLaunchNS_9allocatorIS3_EEEC2B8ue170006IDnNS_18__default_init_tagEEEOT_OT0_, symObjAddr: 0x7084, symBinAddr: 0x1000232F0, symSize: 0x40 }
  - { offsetInCU: 0x1658E, offset: 0x44E69, size: 0x8, addend: 0x0, symName: __ZNSt3__122__compressed_pair_elemIPPP14BulkTaskLaunchLi0ELb0EEC2B8ue170006IDnvEEOT_, symObjAddr: 0x70C4, symBinAddr: 0x100023330, symSize: 0x1C }
  - { offsetInCU: 0x165CF, offset: 0x44EAA, size: 0x8, addend: 0x0, symName: __ZNSt3__122__compressed_pair_elemINS_9allocatorIPP14BulkTaskLaunchEELi1ELb1EEC2B8ue170006ENS_18__default_init_tagE, symObjAddr: 0x70E0, symBinAddr: 0x10002334C, symSize: 0x2C }
  - { offsetInCU: 0x16603, offset: 0x44EDE, size: 0x8, addend: 0x0, symName: __ZNSt3__19allocatorIPP14BulkTaskLaunchEC2B8ue170006Ev, symObjAddr: 0x710C, symBinAddr: 0x100023378, symSize: 0x2C }
  - { offsetInCU: 0x1662C, offset: 0x44F07, size: 0x8, addend: 0x0, symName: __ZNSt3__116__non_trivial_ifILb1ENS_9allocatorIPP14BulkTaskLaunchEEEC2B8ue170006Ev, symObjAddr: 0x7138, symBinAddr: 0x1000233A4, symSize: 0x14 }
  - { offsetInCU: 0x16655, offset: 0x44F30, size: 0x8, addend: 0x0, symName: __ZNSt3__117__compressed_pairImNS_9allocatorIP14BulkTaskLaunchEEEC2B8ue170006IiNS_18__default_init_tagEEEOT_OT0_, symObjAddr: 0x714C, symBinAddr: 0x1000233B8, symSize: 0x40 }
  - { offsetInCU: 0x166AC, offset: 0x44F87, size: 0x8, addend: 0x0, symName: __ZNSt3__122__compressed_pair_elemINS_9allocatorIP14BulkTaskLaunchEELi1ELb1EEC2B8ue170006ENS_18__default_init_tagE, symObjAddr: 0x718C, symBinAddr: 0x1000233F8, symSize: 0x2C }
  - { offsetInCU: 0x166E0, offset: 0x44FBB, size: 0x8, addend: 0x0, symName: __ZNSt3__19allocatorIP14BulkTaskLaunchEC2B8ue170006Ev, symObjAddr: 0x71B8, symBinAddr: 0x100023424, symSize: 0x2C }
  - { offsetInCU: 0x16709, offset: 0x44FE4, size: 0x8, addend: 0x0, symName: __ZNSt3__116__non_trivial_ifILb1ENS_9allocatorIP14BulkTaskLaunchEEEC2B8ue170006Ev, symObjAddr: 0x71E4, symBinAddr: 0x100023450, symSize: 0x14 }
  - { offsetInCU: 0x16732, offset: 0x4500D, size: 0x8, addend: 0x0, symName: __ZNSt3__13setIiNS_4lessIiEENS_9allocatorIiEEEC2B8ue170006Ev, symObjAddr: 0x71F8, symBinAddr: 0x100023464, symSize: 0x30 }
  - { offsetInCU: 0x1675B, offset: 0x45036, size: 0x8, addend: 0x0, symName: __ZNSt3__16__treeIiNS_4lessIiEENS_9allocatorIiEEEC1ERKS2_, symObjAddr: 0x7228, symBinAddr: 0x100023494, symSize: 0x34 }
  - { offsetInCU: 0x16795, offset: 0x45070, size: 0x8, addend: 0x0, symName: __ZNSt3__16__treeIiNS_4lessIiEENS_9allocatorIiEEEC2ERKS2_, symObjAddr: 0x725C, symBinAddr: 0x1000234C8, symSize: 0x7C }
  - { offsetInCU: 0x167CF, offset: 0x450AA, size: 0x8, addend: 0x0, symName: __ZNSt3__117__compressed_pairINS_15__tree_end_nodeIPNS_16__tree_node_baseIPvEEEENS_9allocatorINS_11__tree_nodeIiS3_EEEEEC1B8ue170006ILb1EvEEv, symObjAddr: 0x72D8, symBinAddr: 0x100023544, symSize: 0x2C }
  - { offsetInCU: 0x16803, offset: 0x450DE, size: 0x8, addend: 0x0, symName: __ZNSt3__117__compressed_pairImNS_4lessIiEEEC1B8ue170006IiRKS2_EEOT_OT0_, symObjAddr: 0x7304, symBinAddr: 0x100023570, symSize: 0x3C }
  - { offsetInCU: 0x1685A, offset: 0x45135, size: 0x8, addend: 0x0, symName: __ZNSt3__16__treeIiNS_4lessIiEENS_9allocatorIiEEE10__end_nodeB8ue170006Ev, symObjAddr: 0x7340, symBinAddr: 0x1000235AC, symSize: 0x2C }
  - { offsetInCU: 0x1687E, offset: 0x45159, size: 0x8, addend: 0x0, symName: __ZNSt3__16__treeIiNS_4lessIiEENS_9allocatorIiEEE12__begin_nodeB8ue170006Ev, symObjAddr: 0x736C, symBinAddr: 0x1000235D8, symSize: 0x14 }
  - { offsetInCU: 0x168A3, offset: 0x4517E, size: 0x8, addend: 0x0, symName: __ZNSt3__117__compressed_pairINS_15__tree_end_nodeIPNS_16__tree_node_baseIPvEEEENS_9allocatorINS_11__tree_nodeIiS3_EEEEEC2B8ue170006ILb1EvEEv, symObjAddr: 0x7380, symBinAddr: 0x1000235EC, symSize: 0x34 }
  - { offsetInCU: 0x168D7, offset: 0x451B2, size: 0x8, addend: 0x0, symName: __ZNSt3__122__compressed_pair_elemINS_9allocatorINS_11__tree_nodeIiPvEEEELi1ELb1EEC2B8ue170006ENS_16__value_init_tagE, symObjAddr: 0x73E0, symBinAddr: 0x100023620, symSize: 0x2C }
  - { offsetInCU: 0x1690B, offset: 0x451E6, size: 0x8, addend: 0x0, symName: __ZNSt3__19allocatorINS_11__tree_nodeIiPvEEEC2B8ue170006Ev, symObjAddr: 0x7450, symBinAddr: 0x10002364C, symSize: 0x2C }
  - { offsetInCU: 0x16934, offset: 0x4520F, size: 0x8, addend: 0x0, symName: __ZNSt3__116__non_trivial_ifILb1ENS_9allocatorINS_11__tree_nodeIiPvEEEEEC2B8ue170006Ev, symObjAddr: 0x747C, symBinAddr: 0x100023678, symSize: 0x14 }
  - { offsetInCU: 0x1695D, offset: 0x45238, size: 0x8, addend: 0x0, symName: __ZNSt3__117__compressed_pairImNS_4lessIiEEEC2B8ue170006IiRKS2_EEOT_OT0_, symObjAddr: 0x7490, symBinAddr: 0x10002368C, symSize: 0x44 }
  - { offsetInCU: 0x169B4, offset: 0x4528F, size: 0x8, addend: 0x0, symName: __ZNSt3__122__compressed_pair_elemINS_4lessIiEELi1ELb1EEC2B8ue170006IRKS2_vEEOT_, symObjAddr: 0x74D4, symBinAddr: 0x1000236D0, symSize: 0x18 }
  - { offsetInCU: 0x169F5, offset: 0x452D0, size: 0x8, addend: 0x0, symName: __ZNSt3__117__compressed_pairINS_15__tree_end_nodeIPNS_16__tree_node_baseIPvEEEENS_9allocatorINS_11__tree_nodeIiS3_EEEEE5firstB8ue170006Ev, symObjAddr: 0x7500, symBinAddr: 0x1000236E8, symSize: 0x24 }
  - { offsetInCU: 0x16A19, offset: 0x452F4, size: 0x8, addend: 0x0, symName: __ZNSt3__16vectorINS_6threadENS_9allocatorIS1_EEED2B8ue170006Ev, symObjAddr: 0x7538, symBinAddr: 0x10002370C, symSize: 0x44 }
  - { offsetInCU: 0x16A42, offset: 0x4531D, size: 0x8, addend: 0x0, symName: __ZNSt3__16vectorINS_6threadENS_9allocatorIS1_EEE16__destroy_vectorC1B8ue170006ERS4_, symObjAddr: 0x757C, symBinAddr: 0x100023750, symSize: 0x34 }
  - { offsetInCU: 0x16A7A, offset: 0x45355, size: 0x8, addend: 0x0, symName: __ZNSt3__16vectorINS_6threadENS_9allocatorIS1_EEE16__destroy_vectorclB8ue170006Ev, symObjAddr: 0x75B0, symBinAddr: 0x100023784, symSize: 0x90 }
  - { offsetInCU: 0x16A9E, offset: 0x45379, size: 0x8, addend: 0x0, symName: __ZNSt3__16vectorINS_6threadENS_9allocatorIS1_EEE16__destroy_vectorC2B8ue170006ERS4_, symObjAddr: 0x7640, symBinAddr: 0x100023814, symSize: 0x20 }
  - { offsetInCU: 0x16AD6, offset: 0x453B1, size: 0x8, addend: 0x0, symName: __ZNSt3__16vectorINS_6threadENS_9allocatorIS1_EEE7__clearB8ue170006Ev, symObjAddr: 0x7660, symBinAddr: 0x100023834, symSize: 0x28 }
  - { offsetInCU: 0x16AFA, offset: 0x453D5, size: 0x8, addend: 0x0, symName: __ZNKSt3__16vectorINS_6threadENS_9allocatorIS1_EEE17__annotate_deleteB8ue170006Ev, symObjAddr: 0x7688, symBinAddr: 0x10002385C, symSize: 0xB8 }
  - { offsetInCU: 0x16B1E, offset: 0x453F9, size: 0x8, addend: 0x0, symName: __ZNSt3__116allocator_traitsINS_9allocatorINS_6threadEEEE10deallocateB8ue170006ERS3_PS2_m, symObjAddr: 0x7740, symBinAddr: 0x100023914, symSize: 0x34 }
  - { offsetInCU: 0x16B5F, offset: 0x4543A, size: 0x8, addend: 0x0, symName: __ZNSt3__16vectorINS_6threadENS_9allocatorIS1_EEE7__allocB8ue170006Ev, symObjAddr: 0x7774, symBinAddr: 0x100023948, symSize: 0x28 }
  - { offsetInCU: 0x16B83, offset: 0x4545E, size: 0x8, addend: 0x0, symName: __ZNKSt3__16vectorINS_6threadENS_9allocatorIS1_EEE8capacityB8ue170006Ev, symObjAddr: 0x779C, symBinAddr: 0x100023970, symSize: 0x40 }
  - { offsetInCU: 0x16BA7, offset: 0x45482, size: 0x8, addend: 0x0, symName: __ZNSt3__16vectorINS_6threadENS_9allocatorIS1_EEE22__base_destruct_at_endB8ue170006EPS1_, symObjAddr: 0x77DC, symBinAddr: 0x1000239B0, symSize: 0x8C }
  - { offsetInCU: 0x16BE9, offset: 0x454C4, size: 0x8, addend: 0x0, symName: __ZNSt3__116allocator_traitsINS_9allocatorINS_6threadEEEE7destroyB8ue170006IS2_vEEvRS3_PT_, symObjAddr: 0x7868, symBinAddr: 0x100023A3C, symSize: 0x2C }
  - { offsetInCU: 0x16C25, offset: 0x45500, size: 0x8, addend: 0x0, symName: __ZNSt3__19allocatorINS_6threadEE7destroyB8ue170006EPS1_, symObjAddr: 0x78A8, symBinAddr: 0x100023A7C, symSize: 0x28 }
  - { offsetInCU: 0x16C57, offset: 0x45532, size: 0x8, addend: 0x0, symName: __ZNKSt3__16vectorINS_6threadENS_9allocatorIS1_EEE31__annotate_contiguous_containerB8ue170006EPKvS6_S6_S6_, symObjAddr: 0x78D0, symBinAddr: 0x100023AA4, symSize: 0x20 }
  - { offsetInCU: 0x16CA8, offset: 0x45583, size: 0x8, addend: 0x0, symName: __ZNKSt3__16vectorINS_6threadENS_9allocatorIS1_EEE4dataB8ue170006Ev, symObjAddr: 0x78F0, symBinAddr: 0x100023AC4, symSize: 0x28 }
  - { offsetInCU: 0x16CCC, offset: 0x455A7, size: 0x8, addend: 0x0, symName: __ZNKSt3__16vectorINS_6threadENS_9allocatorIS1_EEE4sizeB8ue170006Ev, symObjAddr: 0x7918, symBinAddr: 0x100023AEC, symSize: 0x28 }
  - { offsetInCU: 0x16CF1, offset: 0x455CC, size: 0x8, addend: 0x0, symName: __ZNSt3__19allocatorINS_6threadEE10deallocateB8ue170006EPS1_m, symObjAddr: 0x7940, symBinAddr: 0x100023B14, symSize: 0x40 }
  - { offsetInCU: 0x16D31, offset: 0x4560C, size: 0x8, addend: 0x0, symName: __ZNSt3__117__compressed_pairIPNS_6threadENS_9allocatorIS1_EEE6secondB8ue170006Ev, symObjAddr: 0x7980, symBinAddr: 0x100023B54, symSize: 0x24 }
  - { offsetInCU: 0x16D55, offset: 0x45630, size: 0x8, addend: 0x0, symName: __ZNSt3__122__compressed_pair_elemINS_9allocatorINS_6threadEEELi1ELb1EE5__getB8ue170006Ev, symObjAddr: 0x79A4, symBinAddr: 0x100023B78, symSize: 0x14 }
  - { offsetInCU: 0x16D7A, offset: 0x45655, size: 0x8, addend: 0x0, symName: __ZNKSt3__16vectorINS_6threadENS_9allocatorIS1_EEE9__end_capB8ue170006Ev, symObjAddr: 0x79B8, symBinAddr: 0x100023B8C, symSize: 0x28 }
  - { offsetInCU: 0x16D9E, offset: 0x45679, size: 0x8, addend: 0x0, symName: __ZNKSt3__117__compressed_pairIPNS_6threadENS_9allocatorIS1_EEE5firstB8ue170006Ev, symObjAddr: 0x79E0, symBinAddr: 0x100023BB4, symSize: 0x24 }
  - { offsetInCU: 0x16DC2, offset: 0x4569D, size: 0x8, addend: 0x0, symName: __ZNKSt3__122__compressed_pair_elemIPNS_6threadELi0ELb0EE5__getB8ue170006Ev, symObjAddr: 0x7A04, symBinAddr: 0x100023BD8, symSize: 0x14 }
  - { offsetInCU: 0x16DE7, offset: 0x456C2, size: 0x8, addend: 0x0, symName: __ZNSt3__113unordered_mapIiP14BulkTaskLaunchNS_4hashIiEENS_8equal_toIiEENS_9allocatorINS_4pairIKiS2_EEEEED2B8ue170006Ev, symObjAddr: 0x7A18, symBinAddr: 0x100023BEC, symSize: 0x2C }
  - { offsetInCU: 0x16E10, offset: 0x456EB, size: 0x8, addend: 0x0, symName: __ZNSt3__112__hash_tableINS_17__hash_value_typeIiP14BulkTaskLaunchEENS_22__unordered_map_hasherIiS4_NS_4hashIiEENS_8equal_toIiEELb1EEENS_21__unordered_map_equalIiS4_S9_S7_Lb1EEENS_9allocatorIS4_EEED1Ev, symObjAddr: 0x7A44, symBinAddr: 0x100023C18, symSize: 0x2C }
  - { offsetInCU: 0x16E3B, offset: 0x45716, size: 0x8, addend: 0x0, symName: __ZNSt3__112__hash_tableINS_17__hash_value_typeIiP14BulkTaskLaunchEENS_22__unordered_map_hasherIiS4_NS_4hashIiEENS_8equal_toIiEELb1EEENS_21__unordered_map_equalIiS4_S9_S7_Lb1EEENS_9allocatorIS4_EEED2Ev, symObjAddr: 0x7A70, symBinAddr: 0x100023C44, symSize: 0x48 }
  - { offsetInCU: 0x16E66, offset: 0x45741, size: 0x8, addend: 0x0, symName: __ZNSt3__112__hash_tableINS_17__hash_value_typeIiP14BulkTaskLaunchEENS_22__unordered_map_hasherIiS4_NS_4hashIiEENS_8equal_toIiEELb1EEENS_21__unordered_map_equalIiS4_S9_S7_Lb1EEENS_9allocatorIS4_EEE17__deallocate_nodeEPNS_16__hash_node_baseIPNS_11__hash_nodeIS4_PvEEEE, symObjAddr: 0x7AB8, symBinAddr: 0x100023C8C, symSize: 0xA8 }
  - { offsetInCU: 0x16ECE, offset: 0x457A9, size: 0x8, addend: 0x0, symName: __ZNSt3__117__compressed_pairINS_16__hash_node_baseIPNS_11__hash_nodeINS_17__hash_value_typeIiP14BulkTaskLaunchEEPvEEEENS_9allocatorIS8_EEE5firstB8ue170006Ev, symObjAddr: 0x7B60, symBinAddr: 0x100023D34, symSize: 0x24 }
  - { offsetInCU: 0x16EF2, offset: 0x457CD, size: 0x8, addend: 0x0, symName: __ZNSt3__110unique_ptrIA_PNS_16__hash_node_baseIPNS_11__hash_nodeINS_17__hash_value_typeIiP14BulkTaskLaunchEEPvEEEENS_25__bucket_list_deallocatorINS_9allocatorISB_EEEEED1B8ue170006Ev, symObjAddr: 0x7B84, symBinAddr: 0x100023D58, symSize: 0x2C }
  - { offsetInCU: 0x16F1B, offset: 0x457F6, size: 0x8, addend: 0x0, symName: __ZNSt3__112__hash_tableINS_17__hash_value_typeIiP14BulkTaskLaunchEENS_22__unordered_map_hasherIiS4_NS_4hashIiEENS_8equal_toIiEELb1EEENS_21__unordered_map_equalIiS4_S9_S7_Lb1EEENS_9allocatorIS4_EEE12__node_allocB8ue170006Ev, symObjAddr: 0x7BB0, symBinAddr: 0x100023D84, symSize: 0x28 }
  - { offsetInCU: 0x16F3F, offset: 0x4581A, size: 0x8, addend: 0x0, symName: __ZNSt3__116__hash_node_baseIPNS_11__hash_nodeINS_17__hash_value_typeIiP14BulkTaskLaunchEEPvEEE8__upcastB8ue170006Ev, symObjAddr: 0x7BD8, symBinAddr: 0x100023DAC, symSize: 0x24 }
  - { offsetInCU: 0x16F63, offset: 0x4583E, size: 0x8, addend: 0x0, symName: __ZNSt3__116allocator_traitsINS_9allocatorINS_11__hash_nodeINS_17__hash_value_typeIiP14BulkTaskLaunchEEPvEEEEE7destroyB8ue170006INS_4pairIKiS5_EEvvEEvRS9_PT_, symObjAddr: 0x7BFC, symBinAddr: 0x100023DD0, symSize: 0x14 }
  - { offsetInCU: 0x16F9D, offset: 0x45878, size: 0x8, addend: 0x0, symName: __ZNSt3__122__hash_key_value_typesINS_17__hash_value_typeIiP14BulkTaskLaunchEEE9__get_ptrB8ue170006ERS4_, symObjAddr: 0x7C10, symBinAddr: 0x100023DE4, symSize: 0x24 }
  - { offsetInCU: 0x16FBF, offset: 0x4589A, size: 0x8, addend: 0x0, symName: __ZNSt3__116allocator_traitsINS_9allocatorINS_11__hash_nodeINS_17__hash_value_typeIiP14BulkTaskLaunchEEPvEEEEE10deallocateB8ue170006ERS9_PS8_m, symObjAddr: 0x7C34, symBinAddr: 0x100023E08, symSize: 0x34 }
  - { offsetInCU: 0x17000, offset: 0x458DB, size: 0x8, addend: 0x0, symName: __ZNSt3__117__compressed_pairINS_16__hash_node_baseIPNS_11__hash_nodeINS_17__hash_value_typeIiP14BulkTaskLaunchEEPvEEEENS_9allocatorIS8_EEE6secondB8ue170006Ev, symObjAddr: 0x7C68, symBinAddr: 0x100023E3C, symSize: 0x24 }
  - { offsetInCU: 0x17024, offset: 0x458FF, size: 0x8, addend: 0x0, symName: __ZNSt3__122__compressed_pair_elemINS_9allocatorINS_11__hash_nodeINS_17__hash_value_typeIiP14BulkTaskLaunchEEPvEEEELi1ELb1EE5__getB8ue170006Ev, symObjAddr: 0x7C8C, symBinAddr: 0x100023E60, symSize: 0x14 }
  - { offsetInCU: 0x17049, offset: 0x45924, size: 0x8, addend: 0x0, symName: __ZNSt3__114pointer_traitsIPNS_16__hash_node_baseIPNS_11__hash_nodeINS_17__hash_value_typeIiP14BulkTaskLaunchEEPvEEEEE10pointer_toB8ue170006ERSA_, symObjAddr: 0x7CA0, symBinAddr: 0x100023E74, symSize: 0x14 }
  - { offsetInCU: 0x1706C, offset: 0x45947, size: 0x8, addend: 0x0, symName: __ZNSt3__117__hash_value_typeIiP14BulkTaskLaunchE11__get_valueB8ue170006Ev, symObjAddr: 0x7CB4, symBinAddr: 0x100023E88, symSize: 0x14 }
  - { offsetInCU: 0x17091, offset: 0x4596C, size: 0x8, addend: 0x0, symName: __ZNSt3__19allocatorINS_11__hash_nodeINS_17__hash_value_typeIiP14BulkTaskLaunchEEPvEEE10deallocateB8ue170006EPS7_m, symObjAddr: 0x7CC8, symBinAddr: 0x100023E9C, symSize: 0x40 }
  - { offsetInCU: 0x170D1, offset: 0x459AC, size: 0x8, addend: 0x0, symName: __ZNSt3__122__compressed_pair_elemINS_16__hash_node_baseIPNS_11__hash_nodeINS_17__hash_value_typeIiP14BulkTaskLaunchEEPvEEEELi0ELb0EE5__getB8ue170006Ev, symObjAddr: 0x7D08, symBinAddr: 0x100023EDC, symSize: 0x14 }
  - { offsetInCU: 0x170F6, offset: 0x459D1, size: 0x8, addend: 0x0, symName: __ZNSt3__110unique_ptrIA_PNS_16__hash_node_baseIPNS_11__hash_nodeINS_17__hash_value_typeIiP14BulkTaskLaunchEEPvEEEENS_25__bucket_list_deallocatorINS_9allocatorISB_EEEEED2B8ue170006Ev, symObjAddr: 0x7D1C, symBinAddr: 0x100023EF0, symSize: 0x30 }
  - { offsetInCU: 0x1711F, offset: 0x459FA, size: 0x8, addend: 0x0, symName: __ZNSt3__110unique_ptrIA_PNS_16__hash_node_baseIPNS_11__hash_nodeINS_17__hash_value_typeIiP14BulkTaskLaunchEEPvEEEENS_25__bucket_list_deallocatorINS_9allocatorISB_EEEEE5resetB8ue170006EDn, symObjAddr: 0x7D4C, symBinAddr: 0x100023F20, symSize: 0x6C }
  - { offsetInCU: 0x1715D, offset: 0x45A38, size: 0x8, addend: 0x0, symName: __ZNSt3__117__compressed_pairIPPNS_16__hash_node_baseIPNS_11__hash_nodeINS_17__hash_value_typeIiP14BulkTaskLaunchEEPvEEEENS_25__bucket_list_deallocatorINS_9allocatorISB_EEEEE5firstB8ue170006Ev, symObjAddr: 0x7DB8, symBinAddr: 0x100023F8C, symSize: 0x24 }
  - { offsetInCU: 0x17181, offset: 0x45A5C, size: 0x8, addend: 0x0, symName: __ZNSt3__117__compressed_pairIPPNS_16__hash_node_baseIPNS_11__hash_nodeINS_17__hash_value_typeIiP14BulkTaskLaunchEEPvEEEENS_25__bucket_list_deallocatorINS_9allocatorISB_EEEEE6secondB8ue170006Ev, symObjAddr: 0x7DDC, symBinAddr: 0x100023FB0, symSize: 0x28 }
  - { offsetInCU: 0x171A5, offset: 0x45A80, size: 0x8, addend: 0x0, symName: __ZNSt3__125__bucket_list_deallocatorINS_9allocatorIPNS_16__hash_node_baseIPNS_11__hash_nodeINS_17__hash_value_typeIiP14BulkTaskLaunchEEPvEEEEEEEclB8ue170006EPSC_, symObjAddr: 0x7E04, symBinAddr: 0x100023FD8, symSize: 0x58 }
  - { offsetInCU: 0x171D8, offset: 0x45AB3, size: 0x8, addend: 0x0, symName: __ZNSt3__122__compressed_pair_elemIPPNS_16__hash_node_baseIPNS_11__hash_nodeINS_17__hash_value_typeIiP14BulkTaskLaunchEEPvEEEELi0ELb0EE5__getB8ue170006Ev, symObjAddr: 0x7E5C, symBinAddr: 0x100024030, symSize: 0x14 }
  - { offsetInCU: 0x171FD, offset: 0x45AD8, size: 0x8, addend: 0x0, symName: __ZNSt3__122__compressed_pair_elemINS_25__bucket_list_deallocatorINS_9allocatorIPNS_16__hash_node_baseIPNS_11__hash_nodeINS_17__hash_value_typeIiP14BulkTaskLaunchEEPvEEEEEEEELi1ELb0EE5__getB8ue170006Ev, symObjAddr: 0x7E70, symBinAddr: 0x100024044, symSize: 0x14 }
  - { offsetInCU: 0x17222, offset: 0x45AFD, size: 0x8, addend: 0x0, symName: __ZNSt3__116allocator_traitsINS_9allocatorIPNS_16__hash_node_baseIPNS_11__hash_nodeINS_17__hash_value_typeIiP14BulkTaskLaunchEEPvEEEEEEE10deallocateB8ue170006ERSD_PSC_m, symObjAddr: 0x7E84, symBinAddr: 0x100024058, symSize: 0x34 }
  - { offsetInCU: 0x17263, offset: 0x45B3E, size: 0x8, addend: 0x0, symName: __ZNSt3__125__bucket_list_deallocatorINS_9allocatorIPNS_16__hash_node_baseIPNS_11__hash_nodeINS_17__hash_value_typeIiP14BulkTaskLaunchEEPvEEEEEEE7__allocB8ue170006Ev, symObjAddr: 0x7EB8, symBinAddr: 0x10002408C, symSize: 0x24 }
  - { offsetInCU: 0x17287, offset: 0x45B62, size: 0x8, addend: 0x0, symName: __ZNSt3__125__bucket_list_deallocatorINS_9allocatorIPNS_16__hash_node_baseIPNS_11__hash_nodeINS_17__hash_value_typeIiP14BulkTaskLaunchEEPvEEEEEEE4sizeB8ue170006Ev, symObjAddr: 0x7EDC, symBinAddr: 0x1000240B0, symSize: 0x24 }
  - { offsetInCU: 0x172AB, offset: 0x45B86, size: 0x8, addend: 0x0, symName: __ZNSt3__19allocatorIPNS_16__hash_node_baseIPNS_11__hash_nodeINS_17__hash_value_typeIiP14BulkTaskLaunchEEPvEEEEE10deallocateB8ue170006EPSB_m, symObjAddr: 0x7F00, symBinAddr: 0x1000240D4, symSize: 0x40 }
  - { offsetInCU: 0x172EB, offset: 0x45BC6, size: 0x8, addend: 0x0, symName: __ZNSt3__117__compressed_pairImNS_9allocatorIPNS_16__hash_node_baseIPNS_11__hash_nodeINS_17__hash_value_typeIiP14BulkTaskLaunchEEPvEEEEEEE6secondB8ue170006Ev, symObjAddr: 0x7F40, symBinAddr: 0x100024114, symSize: 0x24 }
  - { offsetInCU: 0x1730F, offset: 0x45BEA, size: 0x8, addend: 0x0, symName: __ZNSt3__122__compressed_pair_elemINS_9allocatorIPNS_16__hash_node_baseIPNS_11__hash_nodeINS_17__hash_value_typeIiP14BulkTaskLaunchEEPvEEEEEELi1ELb1EE5__getB8ue170006Ev, symObjAddr: 0x7F64, symBinAddr: 0x100024138, symSize: 0x14 }
  - { offsetInCU: 0x17334, offset: 0x45C0F, size: 0x8, addend: 0x0, symName: __ZNSt3__117__compressed_pairImNS_9allocatorIPNS_16__hash_node_baseIPNS_11__hash_nodeINS_17__hash_value_typeIiP14BulkTaskLaunchEEPvEEEEEEE5firstB8ue170006Ev, symObjAddr: 0x7F78, symBinAddr: 0x10002414C, symSize: 0x24 }
  - { offsetInCU: 0x17358, offset: 0x45C33, size: 0x8, addend: 0x0, symName: __ZNSt3__13setIiNS_4lessIiEENS_9allocatorIiEEED2B8ue170006Ev, symObjAddr: 0x7F9C, symBinAddr: 0x100024170, symSize: 0x2C }
  - { offsetInCU: 0x17381, offset: 0x45C5C, size: 0x8, addend: 0x0, symName: __ZNSt3__16__treeIiNS_4lessIiEENS_9allocatorIiEEED1Ev, symObjAddr: 0x7FC8, symBinAddr: 0x10002419C, symSize: 0x2C }
  - { offsetInCU: 0x173AC, offset: 0x45C87, size: 0x8, addend: 0x0, symName: __ZNSt3__16__treeIiNS_4lessIiEENS_9allocatorIiEEED2Ev, symObjAddr: 0x7FF4, symBinAddr: 0x1000241C8, symSize: 0x38 }
  - { offsetInCU: 0x173D7, offset: 0x45CB2, size: 0x8, addend: 0x0, symName: __ZNSt3__16__treeIiNS_4lessIiEENS_9allocatorIiEEE7destroyEPNS_11__tree_nodeIiPvEE, symObjAddr: 0x802C, symBinAddr: 0x100024200, symSize: 0xAC }
  - { offsetInCU: 0x17421, offset: 0x45CFC, size: 0x8, addend: 0x0, symName: __ZNKSt3__16__treeIiNS_4lessIiEENS_9allocatorIiEEE6__rootB8ue170006Ev, symObjAddr: 0x80D8, symBinAddr: 0x1000242AC, symSize: 0x28 }
  - { offsetInCU: 0x17445, offset: 0x45D20, size: 0x8, addend: 0x0, symName: __ZNSt3__16__treeIiNS_4lessIiEENS_9allocatorIiEEE12__node_allocB8ue170006Ev, symObjAddr: 0x8100, symBinAddr: 0x1000242D4, symSize: 0x28 }
  - { offsetInCU: 0x17469, offset: 0x45D44, size: 0x8, addend: 0x0, symName: __ZNSt3__116allocator_traitsINS_9allocatorINS_11__tree_nodeIiPvEEEEE7destroyB8ue170006IivvEEvRS5_PT_, symObjAddr: 0x8128, symBinAddr: 0x1000242FC, symSize: 0x14 }
  - { offsetInCU: 0x174A3, offset: 0x45D7E, size: 0x8, addend: 0x0, symName: __ZNSt3__122__tree_key_value_typesIiE9__get_ptrB8ue170006ERi, symObjAddr: 0x813C, symBinAddr: 0x100024310, symSize: 0x14 }
  - { offsetInCU: 0x174C7, offset: 0x45DA2, size: 0x8, addend: 0x0, symName: __ZNSt3__116allocator_traitsINS_9allocatorINS_11__tree_nodeIiPvEEEEE10deallocateB8ue170006ERS5_PS4_m, symObjAddr: 0x8150, symBinAddr: 0x100024324, symSize: 0x34 }
  - { offsetInCU: 0x17508, offset: 0x45DE3, size: 0x8, addend: 0x0, symName: __ZNSt3__117__compressed_pairINS_15__tree_end_nodeIPNS_16__tree_node_baseIPvEEEENS_9allocatorINS_11__tree_nodeIiS3_EEEEE6secondB8ue170006Ev, symObjAddr: 0x8184, symBinAddr: 0x100024358, symSize: 0x24 }
  - { offsetInCU: 0x1752C, offset: 0x45E07, size: 0x8, addend: 0x0, symName: __ZNSt3__122__compressed_pair_elemINS_9allocatorINS_11__tree_nodeIiPvEEEELi1ELb1EE5__getB8ue170006Ev, symObjAddr: 0x81A8, symBinAddr: 0x10002437C, symSize: 0x14 }
  - { offsetInCU: 0x17551, offset: 0x45E2C, size: 0x8, addend: 0x0, symName: __ZNSt3__19allocatorINS_11__tree_nodeIiPvEEE10deallocateB8ue170006EPS3_m, symObjAddr: 0x81BC, symBinAddr: 0x100024390, symSize: 0x40 }
  - { offsetInCU: 0x17591, offset: 0x45E6C, size: 0x8, addend: 0x0, symName: __ZNKSt3__16__treeIiNS_4lessIiEENS_9allocatorIiEEE10__end_nodeB8ue170006Ev, symObjAddr: 0x81FC, symBinAddr: 0x1000243D0, symSize: 0x2C }
  - { offsetInCU: 0x175B5, offset: 0x45E90, size: 0x8, addend: 0x0, symName: __ZNKSt3__117__compressed_pairINS_15__tree_end_nodeIPNS_16__tree_node_baseIPvEEEENS_9allocatorINS_11__tree_nodeIiS3_EEEEE5firstB8ue170006Ev, symObjAddr: 0x8228, symBinAddr: 0x1000243FC, symSize: 0x24 }
  - { offsetInCU: 0x175D9, offset: 0x45EB4, size: 0x8, addend: 0x0, symName: __ZNSt3__113__atomic_baseIbLb0EE5storeB8ue170006EbNS_12memory_orderE, symObjAddr: 0x8260, symBinAddr: 0x100024420, symSize: 0x40 }
  - { offsetInCU: 0x17619, offset: 0x45EF4, size: 0x8, addend: 0x0, symName: __ZNSt3__16threadC2IM36TaskSystemParallelThreadPoolSleepingFviEJPS2_RiEvEEOT_DpOT0_, symObjAddr: 0x83B8, symBinAddr: 0x1000244F0, symSize: 0x158 }
  - { offsetInCU: 0x176B6, offset: 0x45F91, size: 0x8, addend: 0x0, symName: __ZNSt3__110unique_ptrINS_15__thread_structENS_14default_deleteIS1_EEEC1B8ue170006ILb1EvEEPS1_, symObjAddr: 0x8510, symBinAddr: 0x100024648, symSize: 0x34 }
  - { offsetInCU: 0x176F8, offset: 0x45FD3, size: 0x8, addend: 0x0, symName: __ZNSt3__15tupleIJNS_10unique_ptrINS_15__thread_structENS_14default_deleteIS2_EEEEM36TaskSystemParallelThreadPoolSleepingFviEPS6_iEEC1B8ue170006IJS5_S8_S9_RiELi0EEEDpOT_, symObjAddr: 0x8544, symBinAddr: 0x10002467C, symSize: 0x4C }
  - { offsetInCU: 0x1780E, offset: 0x460E9, size: 0x8, addend: 0x0, symName: __ZNSt3__110unique_ptrINS_5tupleIJNS0_INS_15__thread_structENS_14default_deleteIS2_EEEEM36TaskSystemParallelThreadPoolSleepingFviEPS6_iEEENS3_ISA_EEEC1B8ue170006ILb1EvEEPSA_, symObjAddr: 0x8590, symBinAddr: 0x1000246C8, symSize: 0x34 }
  - { offsetInCU: 0x17850, offset: 0x4612B, size: 0x8, addend: 0x0, symName: __ZNKSt3__110unique_ptrINS_5tupleIJNS0_INS_15__thread_structENS_14default_deleteIS2_EEEEM36TaskSystemParallelThreadPoolSleepingFviEPS6_iEEENS3_ISA_EEE3getB8ue170006Ev, symObjAddr: 0x868C, symBinAddr: 0x1000247C4, symSize: 0x28 }
  - { offsetInCU: 0x17874, offset: 0x4614F, size: 0x8, addend: 0x0, symName: __ZNSt3__110unique_ptrINS_5tupleIJNS0_INS_15__thread_structENS_14default_deleteIS2_EEEEM36TaskSystemParallelThreadPoolSleepingFviEPS6_iEEENS3_ISA_EEE7releaseB8ue170006Ev, symObjAddr: 0x86B4, symBinAddr: 0x1000247EC, symSize: 0x44 }
  - { offsetInCU: 0x178A7, offset: 0x46182, size: 0x8, addend: 0x0, symName: __ZNSt3__110unique_ptrINS_5tupleIJNS0_INS_15__thread_structENS_14default_deleteIS2_EEEEM36TaskSystemParallelThreadPoolSleepingFviEPS6_iEEENS3_ISA_EEED1B8ue170006Ev, symObjAddr: 0x86F8, symBinAddr: 0x100024830, symSize: 0x2C }
  - { offsetInCU: 0x178D0, offset: 0x461AB, size: 0x8, addend: 0x0, symName: __ZNSt3__110unique_ptrINS_15__thread_structENS_14default_deleteIS1_EEED1B8ue170006Ev, symObjAddr: 0x8724, symBinAddr: 0x10002485C, symSize: 0x2C }
  - { offsetInCU: 0x178F9, offset: 0x461D4, size: 0x8, addend: 0x0, symName: __ZNSt3__110unique_ptrINS_15__thread_structENS_14default_deleteIS1_EEEC2B8ue170006ILb1EvEEPS1_, symObjAddr: 0x8750, symBinAddr: 0x100024888, symSize: 0x44 }
  - { offsetInCU: 0x1793B, offset: 0x46216, size: 0x8, addend: 0x0, symName: __ZNSt3__117__compressed_pairIPNS_15__thread_structENS_14default_deleteIS1_EEEC1B8ue170006IRS2_NS_16__value_init_tagEEEOT_OT0_, symObjAddr: 0x8794, symBinAddr: 0x1000248CC, symSize: 0x3C }
  - { offsetInCU: 0x17992, offset: 0x4626D, size: 0x8, addend: 0x0, symName: __ZNSt3__117__compressed_pairIPNS_15__thread_structENS_14default_deleteIS1_EEEC2B8ue170006IRS2_NS_16__value_init_tagEEEOT_OT0_, symObjAddr: 0x87D0, symBinAddr: 0x100024908, symSize: 0x40 }
  - { offsetInCU: 0x179E9, offset: 0x462C4, size: 0x8, addend: 0x0, symName: __ZNSt3__122__compressed_pair_elemIPNS_15__thread_structELi0ELb0EEC2B8ue170006IRS2_vEEOT_, symObjAddr: 0x8810, symBinAddr: 0x100024948, symSize: 0x24 }
  - { offsetInCU: 0x17A2A, offset: 0x46305, size: 0x8, addend: 0x0, symName: __ZNSt3__122__compressed_pair_elemINS_14default_deleteINS_15__thread_structEEELi1ELb1EEC2B8ue170006ENS_16__value_init_tagE, symObjAddr: 0x8834, symBinAddr: 0x10002496C, symSize: 0x14 }
  - { offsetInCU: 0x17A5E, offset: 0x46339, size: 0x8, addend: 0x0, symName: __ZNSt3__15tupleIJNS_10unique_ptrINS_15__thread_structENS_14default_deleteIS2_EEEEM36TaskSystemParallelThreadPoolSleepingFviEPS6_iEEC2B8ue170006IJS5_S8_S9_RiELi0EEEDpOT_, symObjAddr: 0x8848, symBinAddr: 0x100024980, symSize: 0x4C }
  - { offsetInCU: 0x17AE3, offset: 0x463BE, size: 0x8, addend: 0x0, symName: __ZNSt3__112__tuple_implINS_15__tuple_indicesIJLm0ELm1ELm2ELm3EEEEJNS_10unique_ptrINS_15__thread_structENS_14default_deleteIS4_EEEEM36TaskSystemParallelThreadPoolSleepingFviEPS8_iEEC1B8ue170006IJLm0ELm1ELm2ELm3EEJS7_SA_SB_iEJEJEJS7_SA_SB_RiEEENS1_IJXspT_EEEENS_13__tuple_typesIJDpT0_EEENS1_IJXspT1_EEEENSG_IJDpT2_EEEDpOT3_, symObjAddr: 0x8894, symBinAddr: 0x1000249CC, symSize: 0x4C }
  - { offsetInCU: 0x17BD0, offset: 0x464AB, size: 0x8, addend: 0x0, symName: __ZNSt3__112__tuple_implINS_15__tuple_indicesIJLm0ELm1ELm2ELm3EEEEJNS_10unique_ptrINS_15__thread_structENS_14default_deleteIS4_EEEEM36TaskSystemParallelThreadPoolSleepingFviEPS8_iEEC2B8ue170006IJLm0ELm1ELm2ELm3EEJS7_SA_SB_iEJEJEJS7_SA_SB_RiEEENS1_IJXspT_EEEENS_13__tuple_typesIJDpT0_EEENS1_IJXspT1_EEEENSG_IJDpT2_EEEDpOT3_, symObjAddr: 0x88E0, symBinAddr: 0x100024A18, symSize: 0x70 }
  - { offsetInCU: 0x17CBD, offset: 0x46598, size: 0x8, addend: 0x0, symName: __ZNSt3__112__tuple_leafILm0ENS_10unique_ptrINS_15__thread_structENS_14default_deleteIS2_EEEELb0EEC2B8ue170006IS5_vEEOT_, symObjAddr: 0x8950, symBinAddr: 0x100024A88, symSize: 0x34 }
  - { offsetInCU: 0x17CFF, offset: 0x465DA, size: 0x8, addend: 0x0, symName: __ZNSt3__112__tuple_leafILm1EM36TaskSystemParallelThreadPoolSleepingFviELb0EEC2B8ue170006IS3_vEEOT_, symObjAddr: 0x8984, symBinAddr: 0x100024ABC, symSize: 0x2C }
  - { offsetInCU: 0x17D41, offset: 0x4661C, size: 0x8, addend: 0x0, symName: __ZNSt3__112__tuple_leafILm2EP36TaskSystemParallelThreadPoolSleepingLb0EEC2B8ue170006IS2_vEEOT_, symObjAddr: 0x89B0, symBinAddr: 0x100024AE8, symSize: 0x24 }
  - { offsetInCU: 0x17D83, offset: 0x4665E, size: 0x8, addend: 0x0, symName: __ZNSt3__112__tuple_leafILm3EiLb0EEC2B8ue170006IRivEEOT_, symObjAddr: 0x89D4, symBinAddr: 0x100024B0C, symSize: 0x24 }
  - { offsetInCU: 0x17DC5, offset: 0x466A0, size: 0x8, addend: 0x0, symName: __ZNSt3__110unique_ptrINS_15__thread_structENS_14default_deleteIS1_EEEC1B8ue170006EOS4_, symObjAddr: 0x89F8, symBinAddr: 0x100024B30, symSize: 0x34 }
  - { offsetInCU: 0x17DFC, offset: 0x466D7, size: 0x8, addend: 0x0, symName: __ZNSt3__110unique_ptrINS_15__thread_structENS_14default_deleteIS1_EEEC2B8ue170006EOS4_, symObjAddr: 0x8A2C, symBinAddr: 0x100024B64, symSize: 0x60 }
  - { offsetInCU: 0x17E33, offset: 0x4670E, size: 0x8, addend: 0x0, symName: __ZNSt3__110unique_ptrINS_15__thread_structENS_14default_deleteIS1_EEE7releaseB8ue170006Ev, symObjAddr: 0x8A8C, symBinAddr: 0x100024BC4, symSize: 0x44 }
  - { offsetInCU: 0x17E66, offset: 0x46741, size: 0x8, addend: 0x0, symName: __ZNSt3__110unique_ptrINS_15__thread_structENS_14default_deleteIS1_EEE11get_deleterB8ue170006Ev, symObjAddr: 0x8AD0, symBinAddr: 0x100024C08, symSize: 0x24 }
  - { offsetInCU: 0x17E94, offset: 0x4676F, size: 0x8, addend: 0x0, symName: __ZNSt3__117__compressed_pairIPNS_15__thread_structENS_14default_deleteIS1_EEEC1B8ue170006IS2_S4_EEOT_OT0_, symObjAddr: 0x8AF4, symBinAddr: 0x100024C2C, symSize: 0x3C }
  - { offsetInCU: 0x17EEB, offset: 0x467C6, size: 0x8, addend: 0x0, symName: __ZNSt3__117__compressed_pairIPNS_15__thread_structENS_14default_deleteIS1_EEE5firstB8ue170006Ev, symObjAddr: 0x8B30, symBinAddr: 0x100024C68, symSize: 0x24 }
  - { offsetInCU: 0x17F0F, offset: 0x467EA, size: 0x8, addend: 0x0, symName: __ZNSt3__122__compressed_pair_elemIPNS_15__thread_structELi0ELb0EE5__getB8ue170006Ev, symObjAddr: 0x8B54, symBinAddr: 0x100024C8C, symSize: 0x14 }
  - { offsetInCU: 0x17F34, offset: 0x4680F, size: 0x8, addend: 0x0, symName: __ZNSt3__117__compressed_pairIPNS_15__thread_structENS_14default_deleteIS1_EEE6secondB8ue170006Ev, symObjAddr: 0x8B68, symBinAddr: 0x100024CA0, symSize: 0x24 }
  - { offsetInCU: 0x17F58, offset: 0x46833, size: 0x8, addend: 0x0, symName: __ZNSt3__122__compressed_pair_elemINS_14default_deleteINS_15__thread_structEEELi1ELb1EE5__getB8ue170006Ev, symObjAddr: 0x8B8C, symBinAddr: 0x100024CC4, symSize: 0x14 }
  - { offsetInCU: 0x17F7D, offset: 0x46858, size: 0x8, addend: 0x0, symName: __ZNSt3__117__compressed_pairIPNS_15__thread_structENS_14default_deleteIS1_EEEC2B8ue170006IS2_S4_EEOT_OT0_, symObjAddr: 0x8BA0, symBinAddr: 0x100024CD8, symSize: 0x44 }
  - { offsetInCU: 0x17FD4, offset: 0x468AF, size: 0x8, addend: 0x0, symName: __ZNSt3__122__compressed_pair_elemIPNS_15__thread_structELi0ELb0EEC2B8ue170006IS2_vEEOT_, symObjAddr: 0x8BE4, symBinAddr: 0x100024D1C, symSize: 0x24 }
  - { offsetInCU: 0x18015, offset: 0x468F0, size: 0x8, addend: 0x0, symName: __ZNSt3__122__compressed_pair_elemINS_14default_deleteINS_15__thread_structEEELi1ELb1EEC2B8ue170006IS3_vEEOT_, symObjAddr: 0x8C08, symBinAddr: 0x100024D40, symSize: 0x18 }
  - { offsetInCU: 0x18056, offset: 0x46931, size: 0x8, addend: 0x0, symName: __ZNSt3__110unique_ptrINS_5tupleIJNS0_INS_15__thread_structENS_14default_deleteIS2_EEEEM36TaskSystemParallelThreadPoolSleepingFviEPS6_iEEENS3_ISA_EEEC2B8ue170006ILb1EvEEPSA_, symObjAddr: 0x8C20, symBinAddr: 0x100024D58, symSize: 0x44 }
  - { offsetInCU: 0x18098, offset: 0x46973, size: 0x8, addend: 0x0, symName: __ZNSt3__117__compressed_pairIPNS_5tupleIJNS_10unique_ptrINS_15__thread_structENS_14default_deleteIS3_EEEEM36TaskSystemParallelThreadPoolSleepingFviEPS7_iEEENS4_ISB_EEEC1B8ue170006IRSC_NS_16__value_init_tagEEEOT_OT0_, symObjAddr: 0x8C64, symBinAddr: 0x100024D9C, symSize: 0x3C }
  - { offsetInCU: 0x180EF, offset: 0x469CA, size: 0x8, addend: 0x0, symName: __ZNSt3__117__compressed_pairIPNS_5tupleIJNS_10unique_ptrINS_15__thread_structENS_14default_deleteIS3_EEEEM36TaskSystemParallelThreadPoolSleepingFviEPS7_iEEENS4_ISB_EEEC2B8ue170006IRSC_NS_16__value_init_tagEEEOT_OT0_, symObjAddr: 0x8CA0, symBinAddr: 0x100024DD8, symSize: 0x40 }
  - { offsetInCU: 0x18146, offset: 0x46A21, size: 0x8, addend: 0x0, symName: __ZNSt3__122__compressed_pair_elemIPNS_5tupleIJNS_10unique_ptrINS_15__thread_structENS_14default_deleteIS3_EEEEM36TaskSystemParallelThreadPoolSleepingFviEPS7_iEEELi0ELb0EEC2B8ue170006IRSC_vEEOT_, symObjAddr: 0x8CE0, symBinAddr: 0x100024E18, symSize: 0x24 }
  - { offsetInCU: 0x18187, offset: 0x46A62, size: 0x8, addend: 0x0, symName: __ZNSt3__122__compressed_pair_elemINS_14default_deleteINS_5tupleIJNS_10unique_ptrINS_15__thread_structENS1_IS4_EEEEM36TaskSystemParallelThreadPoolSleepingFviEPS7_iEEEEELi1ELb1EEC2B8ue170006ENS_16__value_init_tagE, symObjAddr: 0x8D04, symBinAddr: 0x100024E3C, symSize: 0x14 }
  - { offsetInCU: 0x181EA, offset: 0x46AC5, size: 0x8, addend: 0x0, symName: __ZNSt3__121__thread_specific_ptrINS_15__thread_structEE11set_pointerEPS1_, symObjAddr: 0x8D18, symBinAddr: 0x100024E50, symSize: 0x30 }
  - { offsetInCU: 0x1821E, offset: 0x46AF9, size: 0x8, addend: 0x0, symName: __ZNSt3__112__tuple_leafILm0ENS_10unique_ptrINS_15__thread_structENS_14default_deleteIS2_EEEELb0EE3getB8ue170006Ev, symObjAddr: 0x8DE4, symBinAddr: 0x100024F1C, symSize: 0x14 }
  - { offsetInCU: 0x18243, offset: 0x46B1E, size: 0x8, addend: 0x0, symName: __ZNSt3__112__tuple_leafILm1EM36TaskSystemParallelThreadPoolSleepingFviELb0EE3getB8ue170006Ev, symObjAddr: 0x8EFC, symBinAddr: 0x100025034, symSize: 0x14 }
  - { offsetInCU: 0x18268, offset: 0x46B43, size: 0x8, addend: 0x0, symName: __ZNSt3__112__tuple_leafILm2EP36TaskSystemParallelThreadPoolSleepingLb0EE3getB8ue170006Ev, symObjAddr: 0x8F10, symBinAddr: 0x100025048, symSize: 0x14 }
  - { offsetInCU: 0x1828D, offset: 0x46B68, size: 0x8, addend: 0x0, symName: __ZNSt3__112__tuple_leafILm3EiLb0EE3getB8ue170006Ev, symObjAddr: 0x8F24, symBinAddr: 0x10002505C, symSize: 0x14 }
  - { offsetInCU: 0x182B2, offset: 0x46B8D, size: 0x8, addend: 0x0, symName: __ZNKSt3__117__compressed_pairIPNS_5tupleIJNS_10unique_ptrINS_15__thread_structENS_14default_deleteIS3_EEEEM36TaskSystemParallelThreadPoolSleepingFviEPS7_iEEENS4_ISB_EEE5firstB8ue170006Ev, symObjAddr: 0x8F38, symBinAddr: 0x100025070, symSize: 0x24 }
  - { offsetInCU: 0x182D6, offset: 0x46BB1, size: 0x8, addend: 0x0, symName: __ZNKSt3__122__compressed_pair_elemIPNS_5tupleIJNS_10unique_ptrINS_15__thread_structENS_14default_deleteIS3_EEEEM36TaskSystemParallelThreadPoolSleepingFviEPS7_iEEELi0ELb0EE5__getB8ue170006Ev, symObjAddr: 0x8F5C, symBinAddr: 0x100025094, symSize: 0x14 }
  - { offsetInCU: 0x182FB, offset: 0x46BD6, size: 0x8, addend: 0x0, symName: __ZNSt3__117__compressed_pairIPNS_5tupleIJNS_10unique_ptrINS_15__thread_structENS_14default_deleteIS3_EEEEM36TaskSystemParallelThreadPoolSleepingFviEPS7_iEEENS4_ISB_EEE5firstB8ue170006Ev, symObjAddr: 0x8F70, symBinAddr: 0x1000250A8, symSize: 0x24 }
  - { offsetInCU: 0x1831F, offset: 0x46BFA, size: 0x8, addend: 0x0, symName: __ZNSt3__122__compressed_pair_elemIPNS_5tupleIJNS_10unique_ptrINS_15__thread_structENS_14default_deleteIS3_EEEEM36TaskSystemParallelThreadPoolSleepingFviEPS7_iEEELi0ELb0EE5__getB8ue170006Ev, symObjAddr: 0x8F94, symBinAddr: 0x1000250CC, symSize: 0x14 }
  - { offsetInCU: 0x18344, offset: 0x46C1F, size: 0x8, addend: 0x0, symName: __ZNSt3__110unique_ptrINS_5tupleIJNS0_INS_15__thread_structENS_14default_deleteIS2_EEEEM36TaskSystemParallelThreadPoolSleepingFviEPS6_iEEENS3_ISA_EEED2B8ue170006Ev, symObjAddr: 0x8FA8, symBinAddr: 0x1000250E0, symSize: 0x30 }
  - { offsetInCU: 0x1836D, offset: 0x46C48, size: 0x8, addend: 0x0, symName: __ZNSt3__110unique_ptrINS_5tupleIJNS0_INS_15__thread_structENS_14default_deleteIS2_EEEEM36TaskSystemParallelThreadPoolSleepingFviEPS6_iEEENS3_ISA_EEE5resetB8ue170006EPSA_, symObjAddr: 0x8FD8, symBinAddr: 0x100025110, symSize: 0x78 }
  - { offsetInCU: 0x183AF, offset: 0x46C8A, size: 0x8, addend: 0x0, symName: __ZNSt3__117__compressed_pairIPNS_5tupleIJNS_10unique_ptrINS_15__thread_structENS_14default_deleteIS3_EEEEM36TaskSystemParallelThreadPoolSleepingFviEPS7_iEEENS4_ISB_EEE6secondB8ue170006Ev, symObjAddr: 0x9050, symBinAddr: 0x100025188, symSize: 0x24 }
  - { offsetInCU: 0x183D3, offset: 0x46CAE, size: 0x8, addend: 0x0, symName: __ZNKSt3__114default_deleteINS_5tupleIJNS_10unique_ptrINS_15__thread_structENS0_IS3_EEEEM36TaskSystemParallelThreadPoolSleepingFviEPS6_iEEEEclB8ue170006EPSA_, symObjAddr: 0x9074, symBinAddr: 0x1000251AC, symSize: 0x4C }
  - { offsetInCU: 0x18405, offset: 0x46CE0, size: 0x8, addend: 0x0, symName: __ZNSt3__122__compressed_pair_elemINS_14default_deleteINS_5tupleIJNS_10unique_ptrINS_15__thread_structENS1_IS4_EEEEM36TaskSystemParallelThreadPoolSleepingFviEPS7_iEEEEELi1ELb1EE5__getB8ue170006Ev, symObjAddr: 0x90C0, symBinAddr: 0x1000251F8, symSize: 0x14 }
  - { offsetInCU: 0x1842A, offset: 0x46D05, size: 0x8, addend: 0x0, symName: __ZNSt3__15tupleIJNS_10unique_ptrINS_15__thread_structENS_14default_deleteIS2_EEEEM36TaskSystemParallelThreadPoolSleepingFviEPS6_iEED1Ev, symObjAddr: 0x90D4, symBinAddr: 0x10002520C, symSize: 0x2C }
  - { offsetInCU: 0x18456, offset: 0x46D31, size: 0x8, addend: 0x0, symName: __ZNSt3__15tupleIJNS_10unique_ptrINS_15__thread_structENS_14default_deleteIS2_EEEEM36TaskSystemParallelThreadPoolSleepingFviEPS6_iEED2Ev, symObjAddr: 0x9100, symBinAddr: 0x100025238, symSize: 0x2C }
  - { offsetInCU: 0x18482, offset: 0x46D5D, size: 0x8, addend: 0x0, symName: __ZNSt3__112__tuple_implINS_15__tuple_indicesIJLm0ELm1ELm2ELm3EEEEJNS_10unique_ptrINS_15__thread_structENS_14default_deleteIS4_EEEEM36TaskSystemParallelThreadPoolSleepingFviEPS8_iEED1Ev, symObjAddr: 0x912C, symBinAddr: 0x100025264, symSize: 0x2C }
  - { offsetInCU: 0x184AE, offset: 0x46D89, size: 0x8, addend: 0x0, symName: __ZNSt3__112__tuple_implINS_15__tuple_indicesIJLm0ELm1ELm2ELm3EEEEJNS_10unique_ptrINS_15__thread_structENS_14default_deleteIS4_EEEEM36TaskSystemParallelThreadPoolSleepingFviEPS8_iEED2Ev, symObjAddr: 0x9158, symBinAddr: 0x100025290, symSize: 0x2C }
  - { offsetInCU: 0x184DA, offset: 0x46DB5, size: 0x8, addend: 0x0, symName: __ZNSt3__112__tuple_leafILm0ENS_10unique_ptrINS_15__thread_structENS_14default_deleteIS2_EEEELb0EED2Ev, symObjAddr: 0x9184, symBinAddr: 0x1000252BC, symSize: 0x2C }
  - { offsetInCU: 0x18506, offset: 0x46DE1, size: 0x8, addend: 0x0, symName: __ZNSt3__110unique_ptrINS_15__thread_structENS_14default_deleteIS1_EEED2B8ue170006Ev, symObjAddr: 0x91B0, symBinAddr: 0x1000252E8, symSize: 0x30 }
  - { offsetInCU: 0x1852F, offset: 0x46E0A, size: 0x8, addend: 0x0, symName: __ZNSt3__110unique_ptrINS_15__thread_structENS_14default_deleteIS1_EEE5resetB8ue170006EPS1_, symObjAddr: 0x91E0, symBinAddr: 0x100025318, symSize: 0x78 }
  - { offsetInCU: 0x18571, offset: 0x46E4C, size: 0x8, addend: 0x0, symName: __ZNKSt3__114default_deleteINS_15__thread_structEEclB8ue170006EPS1_, symObjAddr: 0x9258, symBinAddr: 0x100025390, symSize: 0x4C }
  - { offsetInCU: 0x185A3, offset: 0x46E7E, size: 0x8, addend: 0x0, symName: __ZNSt3__16vectorINS_6threadENS_9allocatorIS1_EEE9__end_capB8ue170006Ev, symObjAddr: 0x92A4, symBinAddr: 0x1000253DC, symSize: 0x28 }
  - { offsetInCU: 0x185C7, offset: 0x46EA2, size: 0x8, addend: 0x0, symName: __ZNSt3__16vectorINS_6threadENS_9allocatorIS1_EEE22__construct_one_at_endB8ue170006IJS1_EEEvDpOT_, symObjAddr: 0x92CC, symBinAddr: 0x100025404, symSize: 0x90 }
  - { offsetInCU: 0x18614, offset: 0x46EEF, size: 0x8, addend: 0x0, symName: __ZNSt3__16vectorINS_6threadENS_9allocatorIS1_EEE24__emplace_back_slow_pathIJS1_EEEvDpOT_, symObjAddr: 0x935C, symBinAddr: 0x100025494, symSize: 0xD8 }
  - { offsetInCU: 0x18672, offset: 0x46F4D, size: 0x8, addend: 0x0, symName: __ZNSt3__117__compressed_pairIPNS_6threadENS_9allocatorIS1_EEE5firstB8ue170006Ev, symObjAddr: 0x9434, symBinAddr: 0x10002556C, symSize: 0x24 }
  - { offsetInCU: 0x18696, offset: 0x46F71, size: 0x8, addend: 0x0, symName: __ZNSt3__122__compressed_pair_elemIPNS_6threadELi0ELb0EE5__getB8ue170006Ev, symObjAddr: 0x9458, symBinAddr: 0x100025590, symSize: 0x14 }
  - { offsetInCU: 0x186D4, offset: 0x46FAF, size: 0x8, addend: 0x0, symName: __ZNSt3__16vectorINS_6threadENS_9allocatorIS1_EEE21_ConstructTransactionC1B8ue170006ERS4_m, symObjAddr: 0x946C, symBinAddr: 0x1000255A4, symSize: 0x3C }
  - { offsetInCU: 0x1871B, offset: 0x46FF6, size: 0x8, addend: 0x0, symName: __ZNSt3__116allocator_traitsINS_9allocatorINS_6threadEEEE9constructB8ue170006IS2_JS2_EvEEvRS3_PT_DpOT0_, symObjAddr: 0x94A8, symBinAddr: 0x1000255E0, symSize: 0x34 }
  - { offsetInCU: 0x18771, offset: 0x4704C, size: 0x8, addend: 0x0, symName: __ZNSt3__16vectorINS_6threadENS_9allocatorIS1_EEE21_ConstructTransactionD1B8ue170006Ev, symObjAddr: 0x94DC, symBinAddr: 0x100025614, symSize: 0x2C }
  - { offsetInCU: 0x1879A, offset: 0x47075, size: 0x8, addend: 0x0, symName: __ZNSt3__16vectorINS_6threadENS_9allocatorIS1_EEE21_ConstructTransactionC2B8ue170006ERS4_m, symObjAddr: 0x9508, symBinAddr: 0x100025640, symSize: 0x44 }
  - { offsetInCU: 0x187E1, offset: 0x470BC, size: 0x8, addend: 0x0, symName: __ZNSt3__19allocatorINS_6threadEE9constructB8ue170006IS1_JS1_EEEvPT_DpOT0_, symObjAddr: 0x954C, symBinAddr: 0x100025684, symSize: 0x30 }
  - { offsetInCU: 0x18835, offset: 0x47110, size: 0x8, addend: 0x0, symName: __ZNSt3__16threadC1B8ue170006EOS0_, symObjAddr: 0x957C, symBinAddr: 0x1000256B4, symSize: 0x34 }
  - { offsetInCU: 0x1886C, offset: 0x47147, size: 0x8, addend: 0x0, symName: __ZNSt3__16threadC2B8ue170006EOS0_, symObjAddr: 0x95B0, symBinAddr: 0x1000256E8, symSize: 0x2C }
  - { offsetInCU: 0x188A3, offset: 0x4717E, size: 0x8, addend: 0x0, symName: __ZNSt3__16vectorINS_6threadENS_9allocatorIS1_EEE21_ConstructTransactionD2B8ue170006Ev, symObjAddr: 0x95DC, symBinAddr: 0x100025714, symSize: 0x20 }
  - { offsetInCU: 0x188CC, offset: 0x471A7, size: 0x8, addend: 0x0, symName: __ZNKSt3__16vectorINS_6threadENS_9allocatorIS1_EEE11__recommendB8ue170006Em, symObjAddr: 0x95FC, symBinAddr: 0x100025734, symSize: 0xB4 }
  - { offsetInCU: 0x1891F, offset: 0x471FA, size: 0x8, addend: 0x0, symName: __ZNSt3__114__split_bufferINS_6threadERNS_9allocatorIS1_EEEC1EmmS4_, symObjAddr: 0x96B0, symBinAddr: 0x1000257E8, symSize: 0x44 }
  - { offsetInCU: 0x18974, offset: 0x4724F, size: 0x8, addend: 0x0, symName: __ZNSt3__114__split_bufferINS_6threadERNS_9allocatorIS1_EEED1Ev, symObjAddr: 0x9804, symBinAddr: 0x10002593C, symSize: 0x2C }
  - { offsetInCU: 0x1899F, offset: 0x4727A, size: 0x8, addend: 0x0, symName: __ZNKSt3__16vectorINS_6threadENS_9allocatorIS1_EEE8max_sizeEv, symObjAddr: 0x9830, symBinAddr: 0x100025968, symSize: 0x60 }
  - { offsetInCU: 0x189C5, offset: 0x472A0, size: 0x8, addend: 0x0, symName: __ZNKSt3__16vectorINS_6threadENS_9allocatorIS1_EEE20__throw_length_errorB8ue170006Ev, symObjAddr: 0x9890, symBinAddr: 0x1000259C8, symSize: 0x1C }
  - { offsetInCU: 0x189F3, offset: 0x472CE, size: 0x8, addend: 0x0, symName: __ZNSt3__116allocator_traitsINS_9allocatorINS_6threadEEEE8max_sizeB8ue170006IS3_vEEmRKS3_, symObjAddr: 0x98AC, symBinAddr: 0x1000259E4, symSize: 0x24 }
  - { offsetInCU: 0x18A20, offset: 0x472FB, size: 0x8, addend: 0x0, symName: __ZNKSt3__16vectorINS_6threadENS_9allocatorIS1_EEE7__allocB8ue170006Ev, symObjAddr: 0x98D0, symBinAddr: 0x100025A08, symSize: 0x28 }
  - { offsetInCU: 0x18A44, offset: 0x4731F, size: 0x8, addend: 0x0, symName: __ZNKSt3__19allocatorINS_6threadEE8max_sizeB8ue170006Ev, symObjAddr: 0x98F8, symBinAddr: 0x100025A30, symSize: 0x14 }
  - { offsetInCU: 0x18A69, offset: 0x47344, size: 0x8, addend: 0x0, symName: __ZNKSt3__117__compressed_pairIPNS_6threadENS_9allocatorIS1_EEE6secondB8ue170006Ev, symObjAddr: 0x990C, symBinAddr: 0x100025A44, symSize: 0x24 }
  - { offsetInCU: 0x18A8D, offset: 0x47368, size: 0x8, addend: 0x0, symName: __ZNKSt3__122__compressed_pair_elemINS_9allocatorINS_6threadEEELi1ELb1EE5__getB8ue170006Ev, symObjAddr: 0x9930, symBinAddr: 0x100025A68, symSize: 0x14 }
  - { offsetInCU: 0x18AB2, offset: 0x4738D, size: 0x8, addend: 0x0, symName: __ZNSt3__114__split_bufferINS_6threadERNS_9allocatorIS1_EEEC2EmmS4_, symObjAddr: 0x9944, symBinAddr: 0x100025A7C, symSize: 0xD4 }
  - { offsetInCU: 0x18B24, offset: 0x473FF, size: 0x8, addend: 0x0, symName: __ZNSt3__117__compressed_pairIPNS_6threadERNS_9allocatorIS1_EEEC1B8ue170006IDnS5_EEOT_OT0_, symObjAddr: 0x9A18, symBinAddr: 0x100025B50, symSize: 0x3C }
  - { offsetInCU: 0x18B7B, offset: 0x47456, size: 0x8, addend: 0x0, symName: __ZNSt3__114__split_bufferINS_6threadERNS_9allocatorIS1_EEE7__allocB8ue170006Ev, symObjAddr: 0x9A94, symBinAddr: 0x100025BCC, symSize: 0x28 }
  - { offsetInCU: 0x18B9F, offset: 0x4747A, size: 0x8, addend: 0x0, symName: __ZNSt3__114__split_bufferINS_6threadERNS_9allocatorIS1_EEE9__end_capB8ue170006Ev, symObjAddr: 0x9ABC, symBinAddr: 0x100025BF4, symSize: 0x28 }
  - { offsetInCU: 0x18BC3, offset: 0x4749E, size: 0x8, addend: 0x0, symName: __ZNSt3__117__compressed_pairIPNS_6threadERNS_9allocatorIS1_EEEC2B8ue170006IDnS5_EEOT_OT0_, symObjAddr: 0x9AE4, symBinAddr: 0x100025C1C, symSize: 0x48 }
  - { offsetInCU: 0x18C1A, offset: 0x474F5, size: 0x8, addend: 0x0, symName: __ZNSt3__122__compressed_pair_elemIRNS_9allocatorINS_6threadEEELi1ELb0EEC2B8ue170006IS4_vEEOT_, symObjAddr: 0x9B2C, symBinAddr: 0x100025C64, symSize: 0x20 }
  - { offsetInCU: 0x18C5B, offset: 0x47536, size: 0x8, addend: 0x0, symName: __ZNSt3__19allocatorINS_6threadEE8allocateB8ue170006Em, symObjAddr: 0x9B4C, symBinAddr: 0x100025C84, symSize: 0x58 }
  - { offsetInCU: 0x18C8D, offset: 0x47568, size: 0x8, addend: 0x0, symName: __ZNSt3__117__compressed_pairIPNS_6threadERNS_9allocatorIS1_EEE6secondB8ue170006Ev, symObjAddr: 0x9BA4, symBinAddr: 0x100025CDC, symSize: 0x28 }
  - { offsetInCU: 0x18CB1, offset: 0x4758C, size: 0x8, addend: 0x0, symName: __ZNSt3__122__compressed_pair_elemIRNS_9allocatorINS_6threadEEELi1ELb0EE5__getB8ue170006Ev, symObjAddr: 0x9BCC, symBinAddr: 0x100025D04, symSize: 0x18 }
  - { offsetInCU: 0x18CD6, offset: 0x475B1, size: 0x8, addend: 0x0, symName: __ZNSt3__117__compressed_pairIPNS_6threadERNS_9allocatorIS1_EEE5firstB8ue170006Ev, symObjAddr: 0x9BE4, symBinAddr: 0x100025D1C, symSize: 0x24 }
  - { offsetInCU: 0x18CFA, offset: 0x475D5, size: 0x8, addend: 0x0, symName: __ZNSt3__116reverse_iteratorIPNS_6threadEEC1B8ue170006ES2_, symObjAddr: 0x9D34, symBinAddr: 0x100025E6C, symSize: 0x34 }
  - { offsetInCU: 0x18D31, offset: 0x4760C, size: 0x8, addend: 0x0, symName: __ZNKSt3__116reverse_iteratorIPNS_6threadEE4baseB8ue170006Ev, symObjAddr: 0x9D68, symBinAddr: 0x100025EA0, symSize: 0x18 }
  - { offsetInCU: 0x18D56, offset: 0x47631, size: 0x8, addend: 0x0, symName: __ZNKSt3__16vectorINS_6threadENS_9allocatorIS1_EEE14__annotate_newB8ue170006Em, symObjAddr: 0x9DBC, symBinAddr: 0x100025EF4, symSize: 0xAC }
  - { offsetInCU: 0x18D89, offset: 0x47664, size: 0x8, addend: 0x0, symName: __ZNSt3__129_AllocatorDestroyRangeReverseINS_9allocatorINS_6threadEEENS_16reverse_iteratorIPS2_EEEC1B8ue170006ERS3_RS6_S9_, symObjAddr: 0x9EB4, symBinAddr: 0x100025FEC, symSize: 0x44 }
  - { offsetInCU: 0x18DDF, offset: 0x476BA, size: 0x8, addend: 0x0, symName: __ZNKSt3__116reverse_iteratorIPNS_6threadEEdeB8ue170006Ev, symObjAddr: 0x9F64, symBinAddr: 0x10002609C, symSize: 0x28 }
  - { offsetInCU: 0x18E12, offset: 0x476ED, size: 0x8, addend: 0x0, symName: __ZNSt3__116reverse_iteratorIPNS_6threadEEppB8ue170006Ev, symObjAddr: 0x9F8C, symBinAddr: 0x1000260C4, symSize: 0x20 }
  - { offsetInCU: 0x18E37, offset: 0x47712, size: 0x8, addend: 0x0, symName: __ZNSt3__128__exception_guard_exceptionsINS_29_AllocatorDestroyRangeReverseINS_9allocatorINS_6threadEEENS_16reverse_iteratorIPS3_EEEEE10__completeB8ue170006Ev, symObjAddr: 0x9FAC, symBinAddr: 0x1000260E4, symSize: 0x1C }
  - { offsetInCU: 0x18E5C, offset: 0x47737, size: 0x8, addend: 0x0, symName: __ZNSt3__128__exception_guard_exceptionsINS_29_AllocatorDestroyRangeReverseINS_9allocatorINS_6threadEEENS_16reverse_iteratorIPS3_EEEEED1B8ue170006Ev, symObjAddr: 0x9FC8, symBinAddr: 0x100026100, symSize: 0x2C }
  - { offsetInCU: 0x18E85, offset: 0x47760, size: 0x8, addend: 0x0, symName: __ZNSt3__128__exception_guard_exceptionsINS_29_AllocatorDestroyRangeReverseINS_9allocatorINS_6threadEEENS_16reverse_iteratorIPS3_EEEEEC1B8ue170006ES8_, symObjAddr: 0x9FF4, symBinAddr: 0x10002612C, symSize: 0x34 }
  - { offsetInCU: 0x18EBD, offset: 0x47798, size: 0x8, addend: 0x0, symName: __ZNSt3__128__exception_guard_exceptionsINS_29_AllocatorDestroyRangeReverseINS_9allocatorINS_6threadEEENS_16reverse_iteratorIPS3_EEEEEC2B8ue170006ES8_, symObjAddr: 0xA028, symBinAddr: 0x100026160, symSize: 0x30 }
  - { offsetInCU: 0x18EF5, offset: 0x477D0, size: 0x8, addend: 0x0, symName: __ZNSt3__129_AllocatorDestroyRangeReverseINS_9allocatorINS_6threadEEENS_16reverse_iteratorIPS2_EEEC2B8ue170006ERS3_RS6_S9_, symObjAddr: 0xA058, symBinAddr: 0x100026190, symSize: 0x38 }
  - { offsetInCU: 0x18F50, offset: 0x4782B, size: 0x8, addend: 0x0, symName: __ZNSt3__119__to_address_helperINS_16reverse_iteratorIPNS_6threadEEEvE6__callB8ue170006ERKS4_, symObjAddr: 0xA090, symBinAddr: 0x1000261C8, symSize: 0x38 }
  - { offsetInCU: 0x18F72, offset: 0x4784D, size: 0x8, addend: 0x0, symName: __ZNKSt3__116reverse_iteratorIPNS_6threadEEptB8ue170006Ev, symObjAddr: 0xA0C8, symBinAddr: 0x100026200, symSize: 0x24 }
  - { offsetInCU: 0x18F96, offset: 0x47871, size: 0x8, addend: 0x0, symName: __ZNSt3__128__exception_guard_exceptionsINS_29_AllocatorDestroyRangeReverseINS_9allocatorINS_6threadEEENS_16reverse_iteratorIPS3_EEEEED2B8ue170006Ev, symObjAddr: 0xA0EC, symBinAddr: 0x100026224, symSize: 0x50 }
  - { offsetInCU: 0x18FBF, offset: 0x4789A, size: 0x8, addend: 0x0, symName: __ZNKSt3__129_AllocatorDestroyRangeReverseINS_9allocatorINS_6threadEEENS_16reverse_iteratorIPS2_EEEclB8ue170006Ev, symObjAddr: 0xA13C, symBinAddr: 0x100026274, symSize: 0xB4 }
  - { offsetInCU: 0x18FE4, offset: 0x478BF, size: 0x8, addend: 0x0, symName: __ZNSt3__116reverse_iteratorINS0_IPNS_6threadEEEEC1B8ue170006ES3_, symObjAddr: 0xA260, symBinAddr: 0x100026398, symSize: 0x3C }
  - { offsetInCU: 0x1901B, offset: 0x478F6, size: 0x8, addend: 0x0, symName: __ZNSt3__116reverse_iteratorINS0_IPNS_6threadEEEEppB8ue170006Ev, symObjAddr: 0xA320, symBinAddr: 0x100026458, symSize: 0x30 }
  - { offsetInCU: 0x1903F, offset: 0x4791A, size: 0x8, addend: 0x0, symName: __ZNKSt3__116reverse_iteratorINS0_IPNS_6threadEEEE4baseB8ue170006Ev, symObjAddr: 0xA350, symBinAddr: 0x100026488, symSize: 0x24 }
  - { offsetInCU: 0x19069, offset: 0x47944, size: 0x8, addend: 0x0, symName: __ZNSt3__119__to_address_helperINS_16reverse_iteratorINS1_IPNS_6threadEEEEEvE6__callB8ue170006ERKS5_, symObjAddr: 0xA374, symBinAddr: 0x1000264AC, symSize: 0x38 }
  - { offsetInCU: 0x1908B, offset: 0x47966, size: 0x8, addend: 0x0, symName: __ZNKSt3__116reverse_iteratorINS0_IPNS_6threadEEEEptB8ue170006Ev, symObjAddr: 0xA3AC, symBinAddr: 0x1000264E4, symSize: 0x24 }
  - { offsetInCU: 0x190AF, offset: 0x4798A, size: 0x8, addend: 0x0, symName: __ZNKSt3__116reverse_iteratorINS0_IPNS_6threadEEEEdeB8ue170006Ev, symObjAddr: 0xA3D0, symBinAddr: 0x100026508, symSize: 0x34 }
  - { offsetInCU: 0x190E1, offset: 0x479BC, size: 0x8, addend: 0x0, symName: __ZNSt3__116reverse_iteratorIPNS_6threadEEmmB8ue170006Ev, symObjAddr: 0xA404, symBinAddr: 0x10002653C, symSize: 0x20 }
  - { offsetInCU: 0x19106, offset: 0x479E1, size: 0x8, addend: 0x0, symName: __ZNSt3__116reverse_iteratorINS0_IPNS_6threadEEEEC2B8ue170006ES3_, symObjAddr: 0xA424, symBinAddr: 0x10002655C, symSize: 0x2C }
  - { offsetInCU: 0x1913D, offset: 0x47A18, size: 0x8, addend: 0x0, symName: __ZNSt3__116reverse_iteratorIPNS_6threadEEC2B8ue170006ES2_, symObjAddr: 0xA450, symBinAddr: 0x100026588, symSize: 0x28 }
  - { offsetInCU: 0x19174, offset: 0x47A4F, size: 0x8, addend: 0x0, symName: __ZNSt3__114__split_bufferINS_6threadERNS_9allocatorIS1_EEED2Ev, symObjAddr: 0xA478, symBinAddr: 0x1000265B0, symSize: 0x8C }
  - { offsetInCU: 0x1919F, offset: 0x47A7A, size: 0x8, addend: 0x0, symName: __ZNSt3__114__split_bufferINS_6threadERNS_9allocatorIS1_EEE5clearB8ue170006Ev, symObjAddr: 0xA504, symBinAddr: 0x10002663C, symSize: 0x28 }
  - { offsetInCU: 0x191C3, offset: 0x47A9E, size: 0x8, addend: 0x0, symName: __ZNKSt3__114__split_bufferINS_6threadERNS_9allocatorIS1_EEE8capacityB8ue170006Ev, symObjAddr: 0xA52C, symBinAddr: 0x100026664, symSize: 0x40 }
  - { offsetInCU: 0x191E7, offset: 0x47AC2, size: 0x8, addend: 0x0, symName: __ZNSt3__114__split_bufferINS_6threadERNS_9allocatorIS1_EEE17__destruct_at_endB8ue170006EPS1_, symObjAddr: 0xA56C, symBinAddr: 0x1000266A4, symSize: 0x2C }
  - { offsetInCU: 0x19219, offset: 0x47AF4, size: 0x8, addend: 0x0, symName: __ZNSt3__114__split_bufferINS_6threadERNS_9allocatorIS1_EEE17__destruct_at_endB8ue170006EPS1_NS_17integral_constantIbLb0EEE, symObjAddr: 0xA598, symBinAddr: 0x1000266D0, symSize: 0x80 }
  - { offsetInCU: 0x19258, offset: 0x47B33, size: 0x8, addend: 0x0, symName: __ZNKSt3__114__split_bufferINS_6threadERNS_9allocatorIS1_EEE9__end_capB8ue170006Ev, symObjAddr: 0xA618, symBinAddr: 0x100026750, symSize: 0x28 }
  - { offsetInCU: 0x1927C, offset: 0x47B57, size: 0x8, addend: 0x0, symName: __ZNKSt3__117__compressed_pairIPNS_6threadERNS_9allocatorIS1_EEE5firstB8ue170006Ev, symObjAddr: 0xA640, symBinAddr: 0x100026778, symSize: 0x24 }
  - { offsetInCU: 0x192A0, offset: 0x47B7B, size: 0x8, addend: 0x0, symName: __ZNSt3__111unique_lockINS_5mutexEEC2B8ue170006ERS1_, symObjAddr: 0xA664, symBinAddr: 0x10002679C, symSize: 0x44 }
  - { offsetInCU: 0x192D7, offset: 0x47BB2, size: 0x8, addend: 0x0, symName: __ZNSt3__111unique_lockINS_5mutexEED2B8ue170006Ev, symObjAddr: 0xA6A8, symBinAddr: 0x1000267E0, symSize: 0x4C }
  - { offsetInCU: 0x19300, offset: 0x47BDB, size: 0x8, addend: 0x0, symName: __ZNSt3__16vectorINS_6threadENS_9allocatorIS1_EEE11__make_iterB8ue170006EPS1_, symObjAddr: 0xA6F4, symBinAddr: 0x10002682C, symSize: 0x30 }
  - { offsetInCU: 0x19333, offset: 0x47C0E, size: 0x8, addend: 0x0, symName: __ZNSt3__111__wrap_iterIPNS_6threadEEC1B8ue170006ES2_, symObjAddr: 0xA724, symBinAddr: 0x10002685C, symSize: 0x34 }
  - { offsetInCU: 0x1936A, offset: 0x47C45, size: 0x8, addend: 0x0, symName: __ZNSt3__111__wrap_iterIPNS_6threadEEC2B8ue170006ES2_, symObjAddr: 0xA758, symBinAddr: 0x100026890, symSize: 0x20 }
  - { offsetInCU: 0x193A1, offset: 0x47C7C, size: 0x8, addend: 0x0, symName: __ZNSt3__112__hash_tableINS_17__hash_value_typeIiP14BulkTaskLaunchEENS_22__unordered_map_hasherIiS4_NS_4hashIiEENS_8equal_toIiEELb1EEENS_21__unordered_map_equalIiS4_S9_S7_Lb1EEENS_9allocatorIS4_EEE5beginEv, symObjAddr: 0xA778, symBinAddr: 0x1000268B0, symSize: 0x38 }
  - { offsetInCU: 0x193C7, offset: 0x47CA2, size: 0x8, addend: 0x0, symName: __ZNSt3__119__hash_map_iteratorINS_15__hash_iteratorIPNS_11__hash_nodeINS_17__hash_value_typeIiP14BulkTaskLaunchEEPvEEEEEC1B8ue170006ESA_, symObjAddr: 0xA7B0, symBinAddr: 0x1000268E8, symSize: 0x34 }
  - { offsetInCU: 0x193FF, offset: 0x47CDA, size: 0x8, addend: 0x0, symName: __ZNSt3__115__hash_iteratorIPNS_11__hash_nodeINS_17__hash_value_typeIiP14BulkTaskLaunchEEPvEEEC1B8ue170006EPNS_16__hash_node_baseIS8_EE, symObjAddr: 0xA7E4, symBinAddr: 0x10002691C, symSize: 0x34 }
  - { offsetInCU: 0x19437, offset: 0x47D12, size: 0x8, addend: 0x0, symName: __ZNSt3__115__hash_iteratorIPNS_11__hash_nodeINS_17__hash_value_typeIiP14BulkTaskLaunchEEPvEEEC2B8ue170006EPNS_16__hash_node_baseIS8_EE, symObjAddr: 0xA818, symBinAddr: 0x100026950, symSize: 0x20 }
  - { offsetInCU: 0x1946F, offset: 0x47D4A, size: 0x8, addend: 0x0, symName: __ZNSt3__119__hash_map_iteratorINS_15__hash_iteratorIPNS_11__hash_nodeINS_17__hash_value_typeIiP14BulkTaskLaunchEEPvEEEEEC2B8ue170006ESA_, symObjAddr: 0xA838, symBinAddr: 0x100026970, symSize: 0x20 }
  - { offsetInCU: 0x194A7, offset: 0x47D82, size: 0x8, addend: 0x0, symName: __ZNSt3__112__hash_tableINS_17__hash_value_typeIiP14BulkTaskLaunchEENS_22__unordered_map_hasherIiS4_NS_4hashIiEENS_8equal_toIiEELb1EEENS_21__unordered_map_equalIiS4_S9_S7_Lb1EEENS_9allocatorIS4_EEE3endEv, symObjAddr: 0xA858, symBinAddr: 0x100026990, symSize: 0x2C }
  - { offsetInCU: 0x194CD, offset: 0x47DA8, size: 0x8, addend: 0x0, symName: __ZNSt3__115__hash_iteratorIPNS_11__hash_nodeINS_17__hash_value_typeIiP14BulkTaskLaunchEEPvEEEppB8ue170006Ev, symObjAddr: 0xA8E8, symBinAddr: 0x100026A20, symSize: 0x20 }
  - { offsetInCU: 0x194F2, offset: 0x47DCD, size: 0x8, addend: 0x0, symName: __ZNKSt3__115__hash_iteratorIPNS_11__hash_nodeINS_17__hash_value_typeIiP14BulkTaskLaunchEEPvEEEptB8ue170006Ev, symObjAddr: 0xA908, symBinAddr: 0x100026A40, symSize: 0x30 }
  - { offsetInCU: 0x19516, offset: 0x47DF1, size: 0x8, addend: 0x0, symName: __ZNSt3__114pointer_traitsIPNS_17__hash_value_typeIiP14BulkTaskLaunchEEE10pointer_toB8ue170006ERS4_, symObjAddr: 0xA938, symBinAddr: 0x100026A70, symSize: 0x14 }
  - { offsetInCU: 0x19539, offset: 0x47E14, size: 0x8, addend: 0x0, symName: __ZNKSt3__113__atomic_baseIbLb0EE4loadB8ue170006ENS_12memory_orderE, symObjAddr: 0xA94C, symBinAddr: 0x100026A84, symSize: 0x30 }
  - { offsetInCU: 0x1957F, offset: 0x47E5A, size: 0x8, addend: 0x0, symName: __ZNSt3__112__hash_tableINS_17__hash_value_typeIiP14BulkTaskLaunchEENS_22__unordered_map_hasherIiS4_NS_4hashIiEENS_8equal_toIiEELb1EEENS_21__unordered_map_equalIiS4_S9_S7_Lb1EEENS_9allocatorIS4_EEE25__emplace_unique_key_argsIiJRKNS_21piecewise_construct_tENS_5tupleIJRKiEEENSK_IJEEEEEENS_4pairINS_15__hash_iteratorIPNS_11__hash_nodeIS4_PvEEEEbEERKT_DpOT0_, symObjAddr: 0xAB5C, symBinAddr: 0x100026B4C, symSize: 0x4E8 }
  - { offsetInCU: 0x19687, offset: 0x47F62, size: 0x8, addend: 0x0, symName: __ZNSt3__112__hash_tableINS_17__hash_value_typeIiP14BulkTaskLaunchEENS_22__unordered_map_hasherIiS4_NS_4hashIiEENS_8equal_toIiEELb1EEENS_21__unordered_map_equalIiS4_S9_S7_Lb1EEENS_9allocatorIS4_EEE13hash_functionB8ue170006Ev, symObjAddr: 0xB074, symBinAddr: 0x100027064, symSize: 0x28 }
  - { offsetInCU: 0x196AB, offset: 0x47F86, size: 0x8, addend: 0x0, symName: __ZNKSt3__122__unordered_map_hasherIiNS_17__hash_value_typeIiP14BulkTaskLaunchEENS_4hashIiEENS_8equal_toIiEELb1EEclB8ue170006ERKi, symObjAddr: 0xB09C, symBinAddr: 0x10002708C, symSize: 0x30 }
  - { offsetInCU: 0x196DE, offset: 0x47FB9, size: 0x8, addend: 0x0, symName: __ZNKSt3__112__hash_tableINS_17__hash_value_typeIiP14BulkTaskLaunchEENS_22__unordered_map_hasherIiS4_NS_4hashIiEENS_8equal_toIiEELb1EEENS_21__unordered_map_equalIiS4_S9_S7_Lb1EEENS_9allocatorIS4_EEE12bucket_countB8ue170006Ev, symObjAddr: 0xB0CC, symBinAddr: 0x1000270BC, symSize: 0x28 }
  - { offsetInCU: 0x19702, offset: 0x47FDD, size: 0x8, addend: 0x0, symName: __ZNKSt3__110unique_ptrIA_PNS_16__hash_node_baseIPNS_11__hash_nodeINS_17__hash_value_typeIiP14BulkTaskLaunchEEPvEEEENS_25__bucket_list_deallocatorINS_9allocatorISB_EEEEEixB8ue170006Em, symObjAddr: 0xB18C, symBinAddr: 0x10002717C, symSize: 0x34 }
  - { offsetInCU: 0x19735, offset: 0x48010, size: 0x8, addend: 0x0, symName: __ZNKSt3__116__hash_node_baseIPNS_11__hash_nodeINS_17__hash_value_typeIiP14BulkTaskLaunchEEPvEEE6__hashB8ue170006Ev, symObjAddr: 0xB1C0, symBinAddr: 0x1000271B0, symSize: 0x18 }
  - { offsetInCU: 0x1975A, offset: 0x48035, size: 0x8, addend: 0x0, symName: __ZNSt3__112__hash_tableINS_17__hash_value_typeIiP14BulkTaskLaunchEENS_22__unordered_map_hasherIiS4_NS_4hashIiEENS_8equal_toIiEELb1EEENS_21__unordered_map_equalIiS4_S9_S7_Lb1EEENS_9allocatorIS4_EEE6key_eqB8ue170006Ev, symObjAddr: 0xB1D8, symBinAddr: 0x1000271C8, symSize: 0x28 }
  - { offsetInCU: 0x1977E, offset: 0x48059, size: 0x8, addend: 0x0, symName: __ZNKSt3__121__unordered_map_equalIiNS_17__hash_value_typeIiP14BulkTaskLaunchEENS_8equal_toIiEENS_4hashIiEELb1EEclB8ue170006ERKS4_RKi, symObjAddr: 0xB200, symBinAddr: 0x1000271F0, symSize: 0x48 }
  - { offsetInCU: 0x197C0, offset: 0x4809B, size: 0x8, addend: 0x0, symName: __ZNSt3__112__hash_tableINS_17__hash_value_typeIiP14BulkTaskLaunchEENS_22__unordered_map_hasherIiS4_NS_4hashIiEENS_8equal_toIiEELb1EEENS_21__unordered_map_equalIiS4_S9_S7_Lb1EEENS_9allocatorIS4_EEE21__construct_node_hashIRKNS_21piecewise_construct_tEJNS_5tupleIJRKiEEENSK_IJEEEEEENS_10unique_ptrINS_11__hash_nodeIS4_PvEENS_22__hash_node_destructorINSD_ISS_EEEEEEmOT_DpOT0_, symObjAddr: 0xB248, symBinAddr: 0x100027238, symSize: 0x150 }
  - { offsetInCU: 0x1985A, offset: 0x48135, size: 0x8, addend: 0x0, symName: __ZNSt3__112__hash_tableINS_17__hash_value_typeIiP14BulkTaskLaunchEENS_22__unordered_map_hasherIiS4_NS_4hashIiEENS_8equal_toIiEELb1EEENS_21__unordered_map_equalIiS4_S9_S7_Lb1EEENS_9allocatorIS4_EEE4sizeB8ue170006Ev, symObjAddr: 0xB398, symBinAddr: 0x100027388, symSize: 0x28 }
  - { offsetInCU: 0x1987E, offset: 0x48159, size: 0x8, addend: 0x0, symName: __ZNSt3__112__hash_tableINS_17__hash_value_typeIiP14BulkTaskLaunchEENS_22__unordered_map_hasherIiS4_NS_4hashIiEENS_8equal_toIiEELb1EEENS_21__unordered_map_equalIiS4_S9_S7_Lb1EEENS_9allocatorIS4_EEE15max_load_factorB8ue170006Ev, symObjAddr: 0xB3C0, symBinAddr: 0x1000273B0, symSize: 0x28 }
  - { offsetInCU: 0x198A2, offset: 0x4817D, size: 0x8, addend: 0x0, symName: __ZNSt3__112__hash_tableINS_17__hash_value_typeIiP14BulkTaskLaunchEENS_22__unordered_map_hasherIiS4_NS_4hashIiEENS_8equal_toIiEELb1EEENS_21__unordered_map_equalIiS4_S9_S7_Lb1EEENS_9allocatorIS4_EEE15__rehash_uniqueB8ue170006Em, symObjAddr: 0xB3E8, symBinAddr: 0x1000273D8, symSize: 0x2C }
  - { offsetInCU: 0x198D4, offset: 0x481AF, size: 0x8, addend: 0x0, symName: __Z4ceilB8ue170006f, symObjAddr: 0xB464, symBinAddr: 0x100027454, symSize: 0x18 }
  - { offsetInCU: 0x19903, offset: 0x481DE, size: 0x8, addend: 0x0, symName: __ZNSt3__116__hash_node_baseIPNS_11__hash_nodeINS_17__hash_value_typeIiP14BulkTaskLaunchEEPvEEE5__ptrB8ue170006Ev, symObjAddr: 0xB47C, symBinAddr: 0x10002746C, symSize: 0x24 }
  - { offsetInCU: 0x19927, offset: 0x48202, size: 0x8, addend: 0x0, symName: __ZNKSt3__110unique_ptrINS_11__hash_nodeINS_17__hash_value_typeIiP14BulkTaskLaunchEEPvEENS_22__hash_node_destructorINS_9allocatorIS7_EEEEEptB8ue170006Ev, symObjAddr: 0xB4A0, symBinAddr: 0x100027490, symSize: 0x28 }
  - { offsetInCU: 0x1994B, offset: 0x48226, size: 0x8, addend: 0x0, symName: __ZNKSt3__110unique_ptrINS_11__hash_nodeINS_17__hash_value_typeIiP14BulkTaskLaunchEEPvEENS_22__hash_node_destructorINS_9allocatorIS7_EEEEE3getB8ue170006Ev, symObjAddr: 0xB4C8, symBinAddr: 0x1000274B8, symSize: 0x28 }
  - { offsetInCU: 0x1996F, offset: 0x4824A, size: 0x8, addend: 0x0, symName: __ZNSt3__110unique_ptrINS_11__hash_nodeINS_17__hash_value_typeIiP14BulkTaskLaunchEEPvEENS_22__hash_node_destructorINS_9allocatorIS7_EEEEE7releaseB8ue170006Ev, symObjAddr: 0xB4F0, symBinAddr: 0x1000274E0, symSize: 0x44 }
  - { offsetInCU: 0x199A2, offset: 0x4827D, size: 0x8, addend: 0x0, symName: __ZNSt3__110unique_ptrINS_11__hash_nodeINS_17__hash_value_typeIiP14BulkTaskLaunchEEPvEENS_22__hash_node_destructorINS_9allocatorIS7_EEEEED1B8ue170006Ev, symObjAddr: 0xB534, symBinAddr: 0x100027524, symSize: 0x2C }
  - { offsetInCU: 0x199D0, offset: 0x482AB, size: 0x8, addend: 0x0, symName: __ZNSt3__14pairINS_15__hash_iteratorIPNS_11__hash_nodeINS_17__hash_value_typeIiP14BulkTaskLaunchEEPvEEEEbEC1B8ue170006ISA_RbLS7_0EEEOT_OT0_, symObjAddr: 0xB560, symBinAddr: 0x100027550, symSize: 0x3C }
  - { offsetInCU: 0x19A2D, offset: 0x48308, size: 0x8, addend: 0x0, symName: __ZNSt3__117__compressed_pairImNS_22__unordered_map_hasherIiNS_17__hash_value_typeIiP14BulkTaskLaunchEENS_4hashIiEENS_8equal_toIiEELb1EEEE6secondB8ue170006Ev, symObjAddr: 0xB59C, symBinAddr: 0x10002758C, symSize: 0x24 }
  - { offsetInCU: 0x19A51, offset: 0x4832C, size: 0x8, addend: 0x0, symName: __ZNSt3__122__compressed_pair_elemINS_22__unordered_map_hasherIiNS_17__hash_value_typeIiP14BulkTaskLaunchEENS_4hashIiEENS_8equal_toIiEELb1EEELi1ELb1EE5__getB8ue170006Ev, symObjAddr: 0xB5C0, symBinAddr: 0x1000275B0, symSize: 0x14 }
  - { offsetInCU: 0x19A76, offset: 0x48351, size: 0x8, addend: 0x0, symName: __ZNKSt3__14hashIiEclB8ue170006Ei, symObjAddr: 0xB5D4, symBinAddr: 0x1000275C4, symSize: 0x18 }
  - { offsetInCU: 0x19AAA, offset: 0x48385, size: 0x8, addend: 0x0, symName: __ZNKSt3__110unique_ptrIA_PNS_16__hash_node_baseIPNS_11__hash_nodeINS_17__hash_value_typeIiP14BulkTaskLaunchEEPvEEEENS_25__bucket_list_deallocatorINS_9allocatorISB_EEEEE11get_deleterB8ue170006Ev, symObjAddr: 0xB5EC, symBinAddr: 0x1000275DC, symSize: 0x24 }
  - { offsetInCU: 0x19ACE, offset: 0x483A9, size: 0x8, addend: 0x0, symName: __ZNKSt3__125__bucket_list_deallocatorINS_9allocatorIPNS_16__hash_node_baseIPNS_11__hash_nodeINS_17__hash_value_typeIiP14BulkTaskLaunchEEPvEEEEEEE4sizeB8ue170006Ev, symObjAddr: 0xB610, symBinAddr: 0x100027600, symSize: 0x28 }
  - { offsetInCU: 0x19AF2, offset: 0x483CD, size: 0x8, addend: 0x0, symName: __ZNKSt3__117__compressed_pairIPPNS_16__hash_node_baseIPNS_11__hash_nodeINS_17__hash_value_typeIiP14BulkTaskLaunchEEPvEEEENS_25__bucket_list_deallocatorINS_9allocatorISB_EEEEE6secondB8ue170006Ev, symObjAddr: 0xB638, symBinAddr: 0x100027628, symSize: 0x28 }
  - { offsetInCU: 0x19B16, offset: 0x483F1, size: 0x8, addend: 0x0, symName: __ZNKSt3__122__compressed_pair_elemINS_25__bucket_list_deallocatorINS_9allocatorIPNS_16__hash_node_baseIPNS_11__hash_nodeINS_17__hash_value_typeIiP14BulkTaskLaunchEEPvEEEEEEEELi1ELb0EE5__getB8ue170006Ev, symObjAddr: 0xB660, symBinAddr: 0x100027650, symSize: 0x14 }
  - { offsetInCU: 0x19B3B, offset: 0x48416, size: 0x8, addend: 0x0, symName: __ZNKSt3__117__compressed_pairImNS_9allocatorIPNS_16__hash_node_baseIPNS_11__hash_nodeINS_17__hash_value_typeIiP14BulkTaskLaunchEEPvEEEEEEE5firstB8ue170006Ev, symObjAddr: 0xB674, symBinAddr: 0x100027664, symSize: 0x24 }
  - { offsetInCU: 0x19B5F, offset: 0x4843A, size: 0x8, addend: 0x0, symName: __ZNKSt3__117__compressed_pairIPPNS_16__hash_node_baseIPNS_11__hash_nodeINS_17__hash_value_typeIiP14BulkTaskLaunchEEPvEEEENS_25__bucket_list_deallocatorINS_9allocatorISB_EEEEE5firstB8ue170006Ev, symObjAddr: 0xB698, symBinAddr: 0x100027688, symSize: 0x24 }
  - { offsetInCU: 0x19B83, offset: 0x4845E, size: 0x8, addend: 0x0, symName: __ZNKSt3__122__compressed_pair_elemIPPNS_16__hash_node_baseIPNS_11__hash_nodeINS_17__hash_value_typeIiP14BulkTaskLaunchEEPvEEEELi0ELb0EE5__getB8ue170006Ev, symObjAddr: 0xB6BC, symBinAddr: 0x1000276AC, symSize: 0x14 }
  - { offsetInCU: 0x19BA8, offset: 0x48483, size: 0x8, addend: 0x0, symName: __ZNSt3__117__compressed_pairIfNS_21__unordered_map_equalIiNS_17__hash_value_typeIiP14BulkTaskLaunchEENS_8equal_toIiEENS_4hashIiEELb1EEEE6secondB8ue170006Ev, symObjAddr: 0xB6D0, symBinAddr: 0x1000276C0, symSize: 0x24 }
  - { offsetInCU: 0x19BCC, offset: 0x484A7, size: 0x8, addend: 0x0, symName: __ZNSt3__122__compressed_pair_elemINS_21__unordered_map_equalIiNS_17__hash_value_typeIiP14BulkTaskLaunchEENS_8equal_toIiEENS_4hashIiEELb1EEELi1ELb1EE5__getB8ue170006Ev, symObjAddr: 0xB6F4, symBinAddr: 0x1000276E4, symSize: 0x14 }
  - { offsetInCU: 0x19BF1, offset: 0x484CC, size: 0x8, addend: 0x0, symName: __ZNKSt3__18equal_toIiEclB8ue170006ERKiS3_, symObjAddr: 0xB708, symBinAddr: 0x1000276F8, symSize: 0x34 }
  - { offsetInCU: 0x19C34, offset: 0x4850F, size: 0x8, addend: 0x0, symName: __ZNKSt3__117__hash_value_typeIiP14BulkTaskLaunchE11__get_valueB8ue170006Ev, symObjAddr: 0xB73C, symBinAddr: 0x10002772C, symSize: 0x14 }
  - { offsetInCU: 0x19C59, offset: 0x48534, size: 0x8, addend: 0x0, symName: __ZNSt3__116allocator_traitsINS_9allocatorINS_11__hash_nodeINS_17__hash_value_typeIiP14BulkTaskLaunchEEPvEEEEE8allocateB8ue170006ERS9_m, symObjAddr: 0xB750, symBinAddr: 0x100027740, symSize: 0x2C }
  - { offsetInCU: 0x19C8B, offset: 0x48566, size: 0x8, addend: 0x0, symName: __ZNSt3__122__hash_node_destructorINS_9allocatorINS_11__hash_nodeINS_17__hash_value_typeIiP14BulkTaskLaunchEEPvEEEEEC1B8ue170006ERS9_b, symObjAddr: 0xB77C, symBinAddr: 0x10002776C, symSize: 0x48 }
  - { offsetInCU: 0x19CD7, offset: 0x485B2, size: 0x8, addend: 0x0, symName: __ZNSt3__110unique_ptrINS_11__hash_nodeINS_17__hash_value_typeIiP14BulkTaskLaunchEEPvEENS_22__hash_node_destructorINS_9allocatorIS7_EEEEEC1B8ue170006ILb1EvEEPS7_NS_16__dependent_typeINS_27__unique_ptr_deleter_sfinaeISB_EEXT_EE20__good_rval_ref_typeE, symObjAddr: 0xB7C4, symBinAddr: 0x1000277B4, symSize: 0x3C }
  - { offsetInCU: 0x19D27, offset: 0x48602, size: 0x8, addend: 0x0, symName: __ZNSt3__116allocator_traitsINS_9allocatorINS_11__hash_nodeINS_17__hash_value_typeIiP14BulkTaskLaunchEEPvEEEEE9constructB8ue170006INS_4pairIKiS5_EEJRKNS_21piecewise_construct_tENS_5tupleIJRSD_EEENSI_IJEEEEvEEvRS9_PT_DpOT0_, symObjAddr: 0xB800, symBinAddr: 0x1000277F0, symSize: 0x44 }
  - { offsetInCU: 0x19DA5, offset: 0x48680, size: 0x8, addend: 0x0, symName: __ZNSt3__110unique_ptrINS_11__hash_nodeINS_17__hash_value_typeIiP14BulkTaskLaunchEEPvEENS_22__hash_node_destructorINS_9allocatorIS7_EEEEE11get_deleterB8ue170006Ev, symObjAddr: 0xB844, symBinAddr: 0x100027834, symSize: 0x24 }
  - { offsetInCU: 0x19DC9, offset: 0x486A4, size: 0x8, addend: 0x0, symName: __ZNSt3__19allocatorINS_11__hash_nodeINS_17__hash_value_typeIiP14BulkTaskLaunchEEPvEEE8allocateB8ue170006Em, symObjAddr: 0xB868, symBinAddr: 0x100027858, symSize: 0x58 }
  - { offsetInCU: 0x19E05, offset: 0x486E0, size: 0x8, addend: 0x0, symName: __ZNSt3__116allocator_traitsINS_9allocatorINS_11__hash_nodeINS_17__hash_value_typeIiP14BulkTaskLaunchEEPvEEEEE8max_sizeB8ue170006IS9_vEEmRKS9_, symObjAddr: 0xB8C0, symBinAddr: 0x1000278B0, symSize: 0x24 }
  - { offsetInCU: 0x19E32, offset: 0x4870D, size: 0x8, addend: 0x0, symName: __ZNKSt3__19allocatorINS_11__hash_nodeINS_17__hash_value_typeIiP14BulkTaskLaunchEEPvEEE8max_sizeB8ue170006Ev, symObjAddr: 0xB8E4, symBinAddr: 0x1000278D4, symSize: 0x14 }
  - { offsetInCU: 0x19E57, offset: 0x48732, size: 0x8, addend: 0x0, symName: __ZNSt3__122__hash_node_destructorINS_9allocatorINS_11__hash_nodeINS_17__hash_value_typeIiP14BulkTaskLaunchEEPvEEEEEC2B8ue170006ERS9_b, symObjAddr: 0xB8F8, symBinAddr: 0x1000278E8, symSize: 0x38 }
  - { offsetInCU: 0x19E9E, offset: 0x48779, size: 0x8, addend: 0x0, symName: __ZNSt3__110unique_ptrINS_11__hash_nodeINS_17__hash_value_typeIiP14BulkTaskLaunchEEPvEENS_22__hash_node_destructorINS_9allocatorIS7_EEEEEC2B8ue170006ILb1EvEEPS7_NS_16__dependent_typeINS_27__unique_ptr_deleter_sfinaeISB_EEXT_EE20__good_rval_ref_typeE, symObjAddr: 0xB930, symBinAddr: 0x100027920, symSize: 0x48 }
  - { offsetInCU: 0x19EEE, offset: 0x487C9, size: 0x8, addend: 0x0, symName: __ZNSt3__117__compressed_pairIPNS_11__hash_nodeINS_17__hash_value_typeIiP14BulkTaskLaunchEEPvEENS_22__hash_node_destructorINS_9allocatorIS7_EEEEEC1B8ue170006IRS8_SC_EEOT_OT0_, symObjAddr: 0xB978, symBinAddr: 0x100027968, symSize: 0x3C }
  - { offsetInCU: 0x19F45, offset: 0x48820, size: 0x8, addend: 0x0, symName: __ZNSt3__117__compressed_pairIPNS_11__hash_nodeINS_17__hash_value_typeIiP14BulkTaskLaunchEEPvEENS_22__hash_node_destructorINS_9allocatorIS7_EEEEEC2B8ue170006IRS8_SC_EEOT_OT0_, symObjAddr: 0xB9B4, symBinAddr: 0x1000279A4, symSize: 0x48 }
  - { offsetInCU: 0x19F9C, offset: 0x48877, size: 0x8, addend: 0x0, symName: __ZNSt3__122__compressed_pair_elemIPNS_11__hash_nodeINS_17__hash_value_typeIiP14BulkTaskLaunchEEPvEELi0ELb0EEC2B8ue170006IRS8_vEEOT_, symObjAddr: 0xB9FC, symBinAddr: 0x1000279EC, symSize: 0x24 }
  - { offsetInCU: 0x19FDD, offset: 0x488B8, size: 0x8, addend: 0x0, symName: __ZNSt3__122__compressed_pair_elemINS_22__hash_node_destructorINS_9allocatorINS_11__hash_nodeINS_17__hash_value_typeIiP14BulkTaskLaunchEEPvEEEEEELi1ELb0EEC2B8ue170006ISB_vEEOT_, symObjAddr: 0xBA20, symBinAddr: 0x100027A10, symSize: 0x24 }
  - { offsetInCU: 0x1A01E, offset: 0x488F9, size: 0x8, addend: 0x0, symName: __ZNSt3__19allocatorINS_11__hash_nodeINS_17__hash_value_typeIiP14BulkTaskLaunchEEPvEEE9constructB8ue170006INS_4pairIKiS4_EEJRKNS_21piecewise_construct_tENS_5tupleIJRSB_EEENSG_IJEEEEEEvPT_DpOT0_, symObjAddr: 0xBA44, symBinAddr: 0x100027A34, symSize: 0x44 }
  - { offsetInCU: 0x1A098, offset: 0x48973, size: 0x8, addend: 0x0, symName: __ZNSt3__14pairIKiP14BulkTaskLaunchEC1B8ue170006IJRS1_EJEEENS_21piecewise_construct_tENS_5tupleIJDpT_EEENS8_IJDpT0_EEE, symObjAddr: 0xBA88, symBinAddr: 0x100027A78, symSize: 0x44 }
  - { offsetInCU: 0x1A0FE, offset: 0x489D9, size: 0x8, addend: 0x0, symName: __ZNSt3__14pairIKiP14BulkTaskLaunchEC1B8ue170006IJRS1_EJEJLm0EEJEEENS_21piecewise_construct_tERNS_5tupleIJDpT_EEERNS8_IJDpT0_EEENS_15__tuple_indicesIJXspT1_EEEENSH_IJXspT2_EEEE, symObjAddr: 0xBACC, symBinAddr: 0x100027ABC, symSize: 0x3C }
  - { offsetInCU: 0x1A18A, offset: 0x48A65, size: 0x8, addend: 0x0, symName: __ZNSt3__14pairIKiP14BulkTaskLaunchEC2B8ue170006IJRS1_EJEJLm0EEJEEENS_21piecewise_construct_tERNS_5tupleIJDpT_EEERNS8_IJDpT0_EEENS_15__tuple_indicesIJXspT1_EEEENSH_IJXspT2_EEEE, symObjAddr: 0xBB08, symBinAddr: 0x100027AF8, symSize: 0x48 }
  - { offsetInCU: 0x1A216, offset: 0x48AF1, size: 0x8, addend: 0x0, symName: __ZNSt3__112__tuple_leafILm0ERKiLb0EE3getB8ue170006Ev, symObjAddr: 0xBB74, symBinAddr: 0x100027B64, symSize: 0x18 }
  - { offsetInCU: 0x1A23B, offset: 0x48B16, size: 0x8, addend: 0x0, symName: __ZNSt3__117__compressed_pairIPNS_11__hash_nodeINS_17__hash_value_typeIiP14BulkTaskLaunchEEPvEENS_22__hash_node_destructorINS_9allocatorIS7_EEEEE6secondB8ue170006Ev, symObjAddr: 0xBB8C, symBinAddr: 0x100027B7C, symSize: 0x28 }
  - { offsetInCU: 0x1A25F, offset: 0x48B3A, size: 0x8, addend: 0x0, symName: __ZNSt3__122__compressed_pair_elemINS_22__hash_node_destructorINS_9allocatorINS_11__hash_nodeINS_17__hash_value_typeIiP14BulkTaskLaunchEEPvEEEEEELi1ELb0EE5__getB8ue170006Ev, symObjAddr: 0xBBB4, symBinAddr: 0x100027BA4, symSize: 0x14 }
  - { offsetInCU: 0x1A284, offset: 0x48B5F, size: 0x8, addend: 0x0, symName: __ZNSt3__117__compressed_pairImNS_22__unordered_map_hasherIiNS_17__hash_value_typeIiP14BulkTaskLaunchEENS_4hashIiEENS_8equal_toIiEELb1EEEE5firstB8ue170006Ev, symObjAddr: 0xBBC8, symBinAddr: 0x100027BB8, symSize: 0x24 }
  - { offsetInCU: 0x1A2A8, offset: 0x48B83, size: 0x8, addend: 0x0, symName: __ZNSt3__117__compressed_pairIfNS_21__unordered_map_equalIiNS_17__hash_value_typeIiP14BulkTaskLaunchEENS_8equal_toIiEENS_4hashIiEELb1EEEE5firstB8ue170006Ev, symObjAddr: 0xBBEC, symBinAddr: 0x100027BDC, symSize: 0x24 }
  - { offsetInCU: 0x1A2CC, offset: 0x48BA7, size: 0x8, addend: 0x0, symName: __ZNSt3__122__compressed_pair_elemIfLi0ELb0EE5__getB8ue170006Ev, symObjAddr: 0xBC10, symBinAddr: 0x100027C00, symSize: 0x14 }
  - { offsetInCU: 0x1A2F1, offset: 0x48BCC, size: 0x8, addend: 0x0, symName: __ZNSt3__112__hash_tableINS_17__hash_value_typeIiP14BulkTaskLaunchEENS_22__unordered_map_hasherIiS4_NS_4hashIiEENS_8equal_toIiEELb1EEENS_21__unordered_map_equalIiS4_S9_S7_Lb1EEENS_9allocatorIS4_EEE8__rehashILb1EEEvm, symObjAddr: 0xBC24, symBinAddr: 0x100027C14, symSize: 0x1A8 }
  - { offsetInCU: 0x1A33F, offset: 0x48C1A, size: 0x8, addend: 0x0, symName: __ZNSt3__112__hash_tableINS_17__hash_value_typeIiP14BulkTaskLaunchEENS_22__unordered_map_hasherIiS4_NS_4hashIiEENS_8equal_toIiEELb1EEENS_21__unordered_map_equalIiS4_S9_S7_Lb1EEENS_9allocatorIS4_EEE11__do_rehashILb1EEEvm, symObjAddr: 0xBDCC, symBinAddr: 0x100027DBC, symSize: 0x288 }
  - { offsetInCU: 0x1A420, offset: 0x48CFB, size: 0x8, addend: 0x0, symName: __ZNSt3__110unique_ptrIA_PNS_16__hash_node_baseIPNS_11__hash_nodeINS_17__hash_value_typeIiP14BulkTaskLaunchEEPvEEEENS_25__bucket_list_deallocatorINS_9allocatorISB_EEEEE11get_deleterB8ue170006Ev, symObjAddr: 0xC0C0, symBinAddr: 0x1000280B0, symSize: 0x24 }
  - { offsetInCU: 0x1A444, offset: 0x48D1F, size: 0x8, addend: 0x0, symName: __ZNSt3__110unique_ptrIA_PNS_16__hash_node_baseIPNS_11__hash_nodeINS_17__hash_value_typeIiP14BulkTaskLaunchEEPvEEEENS_25__bucket_list_deallocatorINS_9allocatorISB_EEEEE5resetB8ue170006IPSB_EENS_9enable_ifIXsr28_CheckArrayPointerConversionIT_EE5valueEvE4typeESL_, symObjAddr: 0xC0E4, symBinAddr: 0x1000280D4, symSize: 0x78 }
  - { offsetInCU: 0x1A48F, offset: 0x48D6A, size: 0x8, addend: 0x0, symName: __ZNSt3__116allocator_traitsINS_9allocatorIPNS_16__hash_node_baseIPNS_11__hash_nodeINS_17__hash_value_typeIiP14BulkTaskLaunchEEPvEEEEEEE8allocateB8ue170006ERSD_m, symObjAddr: 0xC15C, symBinAddr: 0x10002814C, symSize: 0x2C }
  - { offsetInCU: 0x1A4C1, offset: 0x48D9C, size: 0x8, addend: 0x0, symName: __ZNSt3__19allocatorIPNS_16__hash_node_baseIPNS_11__hash_nodeINS_17__hash_value_typeIiP14BulkTaskLaunchEEPvEEEEE8allocateB8ue170006Em, symObjAddr: 0xC188, symBinAddr: 0x100028178, symSize: 0x58 }
  - { offsetInCU: 0x1A4FD, offset: 0x48DD8, size: 0x8, addend: 0x0, symName: __ZNSt3__116allocator_traitsINS_9allocatorIPNS_16__hash_node_baseIPNS_11__hash_nodeINS_17__hash_value_typeIiP14BulkTaskLaunchEEPvEEEEEEE8max_sizeB8ue170006ISD_vEEmRKSD_, symObjAddr: 0xC1E0, symBinAddr: 0x1000281D0, symSize: 0x24 }
  - { offsetInCU: 0x1A52A, offset: 0x48E05, size: 0x8, addend: 0x0, symName: __ZNKSt3__19allocatorIPNS_16__hash_node_baseIPNS_11__hash_nodeINS_17__hash_value_typeIiP14BulkTaskLaunchEEPvEEEEE8max_sizeB8ue170006Ev, symObjAddr: 0xC204, symBinAddr: 0x1000281F4, symSize: 0x14 }
  - { offsetInCU: 0x1A54F, offset: 0x48E2A, size: 0x8, addend: 0x0, symName: __ZNKSt3__117__compressed_pairIPNS_11__hash_nodeINS_17__hash_value_typeIiP14BulkTaskLaunchEEPvEENS_22__hash_node_destructorINS_9allocatorIS7_EEEEE5firstB8ue170006Ev, symObjAddr: 0xC234, symBinAddr: 0x100028224, symSize: 0x24 }
  - { offsetInCU: 0x1A573, offset: 0x48E4E, size: 0x8, addend: 0x0, symName: __ZNKSt3__122__compressed_pair_elemIPNS_11__hash_nodeINS_17__hash_value_typeIiP14BulkTaskLaunchEEPvEELi0ELb0EE5__getB8ue170006Ev, symObjAddr: 0xC258, symBinAddr: 0x100028248, symSize: 0x14 }
  - { offsetInCU: 0x1A598, offset: 0x48E73, size: 0x8, addend: 0x0, symName: __ZNSt3__117__compressed_pairIPNS_11__hash_nodeINS_17__hash_value_typeIiP14BulkTaskLaunchEEPvEENS_22__hash_node_destructorINS_9allocatorIS7_EEEEE5firstB8ue170006Ev, symObjAddr: 0xC26C, symBinAddr: 0x10002825C, symSize: 0x24 }
  - { offsetInCU: 0x1A5BC, offset: 0x48E97, size: 0x8, addend: 0x0, symName: __ZNSt3__122__compressed_pair_elemIPNS_11__hash_nodeINS_17__hash_value_typeIiP14BulkTaskLaunchEEPvEELi0ELb0EE5__getB8ue170006Ev, symObjAddr: 0xC290, symBinAddr: 0x100028280, symSize: 0x14 }
  - { offsetInCU: 0x1A5E1, offset: 0x48EBC, size: 0x8, addend: 0x0, symName: __ZNSt3__110unique_ptrINS_11__hash_nodeINS_17__hash_value_typeIiP14BulkTaskLaunchEEPvEENS_22__hash_node_destructorINS_9allocatorIS7_EEEEED2B8ue170006Ev, symObjAddr: 0xC2A4, symBinAddr: 0x100028294, symSize: 0x30 }
  - { offsetInCU: 0x1A60A, offset: 0x48EE5, size: 0x8, addend: 0x0, symName: __ZNSt3__110unique_ptrINS_11__hash_nodeINS_17__hash_value_typeIiP14BulkTaskLaunchEEPvEENS_22__hash_node_destructorINS_9allocatorIS7_EEEEE5resetB8ue170006EPS7_, symObjAddr: 0xC2D4, symBinAddr: 0x1000282C4, symSize: 0x78 }
  - { offsetInCU: 0x1A64C, offset: 0x48F27, size: 0x8, addend: 0x0, symName: __ZNSt3__122__hash_node_destructorINS_9allocatorINS_11__hash_nodeINS_17__hash_value_typeIiP14BulkTaskLaunchEEPvEEEEEclB8ue170006EPS8_, symObjAddr: 0xC34C, symBinAddr: 0x10002833C, symSize: 0x94 }
  - { offsetInCU: 0x1A67F, offset: 0x48F5A, size: 0x8, addend: 0x0, symName: __ZNSt3__14pairINS_15__hash_iteratorIPNS_11__hash_nodeINS_17__hash_value_typeIiP14BulkTaskLaunchEEPvEEEEbEC2B8ue170006ISA_RbLS7_0EEEOT_OT0_, symObjAddr: 0xC3E0, symBinAddr: 0x1000283D0, symSize: 0x38 }
  - { offsetInCU: 0x1A6DC, offset: 0x48FB7, size: 0x8, addend: 0x0, symName: __ZNSt3__15tupleIJRKiEEC1B8ue170006INS_4_AndELi0EEES2_, symObjAddr: 0xC418, symBinAddr: 0x100028408, symSize: 0x34 }
  - { offsetInCU: 0x1A724, offset: 0x48FFF, size: 0x8, addend: 0x0, symName: __ZNSt3__15tupleIJRKiEEC2B8ue170006INS_4_AndELi0EEES2_, symObjAddr: 0xC44C, symBinAddr: 0x10002843C, symSize: 0x34 }
  - { offsetInCU: 0x1A76C, offset: 0x49047, size: 0x8, addend: 0x0, symName: __ZNSt3__112__tuple_implINS_15__tuple_indicesIJLm0EEEEJRKiEEC1B8ue170006IJLm0EEJS4_EJEJEJS4_EEENS1_IJXspT_EEEENS_13__tuple_typesIJDpT0_EEENS1_IJXspT1_EEEENS8_IJDpT2_EEEDpOT3_, symObjAddr: 0xC480, symBinAddr: 0x100028470, symSize: 0x34 }
  - { offsetInCU: 0x1A7FC, offset: 0x490D7, size: 0x8, addend: 0x0, symName: __ZNSt3__112__tuple_implINS_15__tuple_indicesIJLm0EEEEJRKiEEC2B8ue170006IJLm0EEJS4_EJEJEJS4_EEENS1_IJXspT_EEEENS_13__tuple_typesIJDpT0_EEENS1_IJXspT1_EEEENS8_IJDpT2_EEEDpOT3_, symObjAddr: 0xC4B4, symBinAddr: 0x1000284A4, symSize: 0x34 }
  - { offsetInCU: 0x1A88C, offset: 0x49167, size: 0x8, addend: 0x0, symName: __ZNSt3__112__tuple_leafILm0ERKiLb0EEC2B8ue170006IS2_vEEOT_, symObjAddr: 0xC4E8, symBinAddr: 0x1000284D8, symSize: 0x20 }
  - { offsetInCU: 0x1A8CE, offset: 0x491A9, size: 0x8, addend: 0x0, symName: __ZNSt3__113__atomic_baseIiLb1EE9fetch_subB8ue170006EiNS_12memory_orderE, symObjAddr: 0xC508, symBinAddr: 0x1000284F8, symSize: 0x34 }
  - { offsetInCU: 0x1A90E, offset: 0x491E9, size: 0x8, addend: 0x0, symName: __ZNSt3__112__hash_tableINS_17__hash_value_typeIiP14BulkTaskLaunchEENS_22__unordered_map_hasherIiS4_NS_4hashIiEENS_8equal_toIiEELb1EEENS_21__unordered_map_equalIiS4_S9_S7_Lb1EEENS_9allocatorIS4_EEE14__erase_uniqueIiEEmRKT_, symObjAddr: 0xC628, symBinAddr: 0x100028618, symSize: 0x98 }
  - { offsetInCU: 0x1A95B, offset: 0x49236, size: 0x8, addend: 0x0, symName: __ZNSt3__112__hash_tableINS_17__hash_value_typeIiP14BulkTaskLaunchEENS_22__unordered_map_hasherIiS4_NS_4hashIiEENS_8equal_toIiEELb1EEENS_21__unordered_map_equalIiS4_S9_S7_Lb1EEENS_9allocatorIS4_EEE4findIiEENS_15__hash_iteratorIPNS_11__hash_nodeIS4_PvEEEERKT_, symObjAddr: 0xC6C0, symBinAddr: 0x1000286B0, symSize: 0x1B0 }
  - { offsetInCU: 0x1A9E3, offset: 0x492BE, size: 0x8, addend: 0x0, symName: __ZNSt3__112__hash_tableINS_17__hash_value_typeIiP14BulkTaskLaunchEENS_22__unordered_map_hasherIiS4_NS_4hashIiEENS_8equal_toIiEELb1EEENS_21__unordered_map_equalIiS4_S9_S7_Lb1EEENS_9allocatorIS4_EEE5eraseENS_21__hash_const_iteratorIPNS_11__hash_nodeIS4_PvEEEE, symObjAddr: 0xC870, symBinAddr: 0x100028860, symSize: 0x70 }
  - { offsetInCU: 0x1AA36, offset: 0x49311, size: 0x8, addend: 0x0, symName: __ZNSt3__121__hash_const_iteratorIPNS_11__hash_nodeINS_17__hash_value_typeIiP14BulkTaskLaunchEEPvEEEC1B8ue170006ERKNS_15__hash_iteratorIS8_EE, symObjAddr: 0xC8E0, symBinAddr: 0x1000288D0, symSize: 0x34 }
  - { offsetInCU: 0x1AA6E, offset: 0x49349, size: 0x8, addend: 0x0, symName: __ZNSt3__112__hash_tableINS_17__hash_value_typeIiP14BulkTaskLaunchEENS_22__unordered_map_hasherIiS4_NS_4hashIiEENS_8equal_toIiEELb1EEENS_21__unordered_map_equalIiS4_S9_S7_Lb1EEENS_9allocatorIS4_EEE6removeENS_21__hash_const_iteratorIPNS_11__hash_nodeIS4_PvEEEE, symObjAddr: 0xC914, symBinAddr: 0x100028904, symSize: 0x220 }
  - { offsetInCU: 0x1AAFD, offset: 0x493D8, size: 0x8, addend: 0x0, symName: __ZNSt3__121__hash_const_iteratorIPNS_11__hash_nodeINS_17__hash_value_typeIiP14BulkTaskLaunchEEPvEEEC2B8ue170006ERKNS_15__hash_iteratorIS8_EE, symObjAddr: 0xCB34, symBinAddr: 0x100028B24, symSize: 0x24 }
  - { offsetInCU: 0x1AB35, offset: 0x49410, size: 0x8, addend: 0x0, symName: __ZNSt3__15dequeIP14BulkTaskLaunchNS_9allocatorIS2_EEE9push_backERKS2_, symObjAddr: 0xCB58, symBinAddr: 0x100028B48, symSize: 0xAC }
  - { offsetInCU: 0x1AB79, offset: 0x49454, size: 0x8, addend: 0x0, symName: __ZNKSt3__15dequeIP14BulkTaskLaunchNS_9allocatorIS2_EEE12__back_spareB8ue170006Ev, symObjAddr: 0xCC04, symBinAddr: 0x100028BF4, symSize: 0x54 }
  - { offsetInCU: 0x1AB9D, offset: 0x49478, size: 0x8, addend: 0x0, symName: __ZNSt3__15dequeIP14BulkTaskLaunchNS_9allocatorIS2_EEE19__add_back_capacityEv, symObjAddr: 0xCC58, symBinAddr: 0x100028C48, symSize: 0x34C }
  - { offsetInCU: 0x1AC50, offset: 0x4952B, size: 0x8, addend: 0x0, symName: __ZNKSt3__15dequeIP14BulkTaskLaunchNS_9allocatorIS2_EEE24__annotate_increase_backB8ue170006Em, symObjAddr: 0xCFA4, symBinAddr: 0x100028F94, symSize: 0x7C }
  - { offsetInCU: 0x1AC83, offset: 0x4955E, size: 0x8, addend: 0x0, symName: __ZNSt3__116allocator_traitsINS_9allocatorIP14BulkTaskLaunchEEE9constructB8ue170006IS3_JRKS3_EvEEvRS4_PT_DpOT0_, symObjAddr: 0xD020, symBinAddr: 0x100029010, symSize: 0x34 }
  - { offsetInCU: 0x1ACD9, offset: 0x495B4, size: 0x8, addend: 0x0, symName: __ZNKSt3__15dequeIP14BulkTaskLaunchNS_9allocatorIS2_EEE10__capacityB8ue170006Ev, symObjAddr: 0xD054, symBinAddr: 0x100029044, symSize: 0x60 }
  - { offsetInCU: 0x1ACFD, offset: 0x495D8, size: 0x8, addend: 0x0, symName: __ZNKSt3__15dequeIP14BulkTaskLaunchNS_9allocatorIS2_EEE13__front_spareB8ue170006Ev, symObjAddr: 0xD0B4, symBinAddr: 0x1000290A4, symSize: 0x18 }
  - { offsetInCU: 0x1AD22, offset: 0x495FD, size: 0x8, addend: 0x0, symName: __ZNSt3__114__split_bufferIPP14BulkTaskLaunchNS_9allocatorIS3_EEE9push_backB8ue170006ERKS3_, symObjAddr: 0xD0CC, symBinAddr: 0x1000290BC, symSize: 0x260 }
  - { offsetInCU: 0x1AD98, offset: 0x49673, size: 0x8, addend: 0x0, symName: __ZNKSt3__114__split_bufferIPP14BulkTaskLaunchNS_9allocatorIS3_EEE12__back_spareB8ue170006Ev, symObjAddr: 0xD32C, symBinAddr: 0x10002931C, symSize: 0x40 }
  - { offsetInCU: 0x1ADBC, offset: 0x49697, size: 0x8, addend: 0x0, symName: __ZNSt3__114__split_bufferIPP14BulkTaskLaunchNS_9allocatorIS3_EEE9push_backEOS3_, symObjAddr: 0xD36C, symBinAddr: 0x10002935C, symSize: 0x260 }
  - { offsetInCU: 0x1AE32, offset: 0x4970D, size: 0x8, addend: 0x0, symName: __ZNSt3__116allocator_traitsINS_9allocatorIP14BulkTaskLaunchEEE8allocateB8ue170006ERS4_m, symObjAddr: 0xD5CC, symBinAddr: 0x1000295BC, symSize: 0x2C }
  - { offsetInCU: 0x1AE64, offset: 0x4973F, size: 0x8, addend: 0x0, symName: __ZNSt3__114__split_bufferIPP14BulkTaskLaunchNS_9allocatorIS3_EEE10push_frontEOS3_, symObjAddr: 0xD5F8, symBinAddr: 0x1000295E8, symSize: 0x25C }
  - { offsetInCU: 0x1AEDA, offset: 0x497B5, size: 0x8, addend: 0x0, symName: __ZNSt3__114__split_bufferIPP14BulkTaskLaunchRNS_9allocatorIS3_EEEC1EmmS6_, symObjAddr: 0xD854, symBinAddr: 0x100029844, symSize: 0x44 }
  - { offsetInCU: 0x1AF34, offset: 0x4980F, size: 0x8, addend: 0x0, symName: __ZNSt3__122__allocator_destructorINS_9allocatorIP14BulkTaskLaunchEEEC1B8ue170006ERS4_m, symObjAddr: 0xD898, symBinAddr: 0x100029888, symSize: 0x3C }
  - { offsetInCU: 0x1AFF6, offset: 0x498D1, size: 0x8, addend: 0x0, symName: __ZNSt3__110unique_ptrIPP14BulkTaskLaunchNS_22__allocator_destructorINS_9allocatorIS2_EEEEEC1B8ue170006ILb1EvEES3_NS_16__dependent_typeINS_27__unique_ptr_deleter_sfinaeIS7_EEXT_EE20__good_rval_ref_typeE, symObjAddr: 0xD8D4, symBinAddr: 0x1000298C4, symSize: 0x3C }
  - { offsetInCU: 0x1B046, offset: 0x49921, size: 0x8, addend: 0x0, symName: __ZNSt3__114__split_bufferIPP14BulkTaskLaunchRNS_9allocatorIS3_EEE9push_backEOS3_, symObjAddr: 0xD910, symBinAddr: 0x100029900, symSize: 0x260 }
  - { offsetInCU: 0x1B0BC, offset: 0x49997, size: 0x8, addend: 0x0, symName: __ZNKSt3__110unique_ptrIPP14BulkTaskLaunchNS_22__allocator_destructorINS_9allocatorIS2_EEEEE3getB8ue170006Ev, symObjAddr: 0xDB70, symBinAddr: 0x100029B60, symSize: 0x28 }
  - { offsetInCU: 0x1B0E0, offset: 0x499BB, size: 0x8, addend: 0x0, symName: __ZNSt3__110unique_ptrIPP14BulkTaskLaunchNS_22__allocator_destructorINS_9allocatorIS2_EEEEE7releaseB8ue170006Ev, symObjAddr: 0xDB98, symBinAddr: 0x100029B88, symSize: 0x44 }
  - { offsetInCU: 0x1B113, offset: 0x499EE, size: 0x8, addend: 0x0, symName: __ZNSt3__114__split_bufferIPP14BulkTaskLaunchRNS_9allocatorIS3_EEE10push_frontERKS3_, symObjAddr: 0xDBDC, symBinAddr: 0x100029BCC, symSize: 0x25C }
  - { offsetInCU: 0x1B189, offset: 0x49A64, size: 0x8, addend: 0x0, symName: __ZNSt3__114__split_bufferIPP14BulkTaskLaunchNS_9allocatorIS3_EEE9__end_capB8ue170006Ev, symObjAddr: 0xDE74, symBinAddr: 0x100029E64, symSize: 0x28 }
  - { offsetInCU: 0x1B1AD, offset: 0x49A88, size: 0x8, addend: 0x0, symName: __ZNSt3__114__split_bufferIPP14BulkTaskLaunchRNS_9allocatorIS3_EEE9__end_capB8ue170006Ev, symObjAddr: 0xDE9C, symBinAddr: 0x100029E8C, symSize: 0x28 }
  - { offsetInCU: 0x1B1D1, offset: 0x49AAC, size: 0x8, addend: 0x0, symName: __ZNSt3__110unique_ptrIPP14BulkTaskLaunchNS_22__allocator_destructorINS_9allocatorIS2_EEEEED1B8ue170006Ev, symObjAddr: 0xDEC4, symBinAddr: 0x100029EB4, symSize: 0x2C }
  - { offsetInCU: 0x1B1FA, offset: 0x49AD5, size: 0x8, addend: 0x0, symName: __ZNSt3__114__split_bufferIPP14BulkTaskLaunchRNS_9allocatorIS3_EEED1Ev, symObjAddr: 0xDEF0, symBinAddr: 0x100029EE0, symSize: 0x2C }
  - { offsetInCU: 0x1B225, offset: 0x49B00, size: 0x8, addend: 0x0, symName: __ZNSt3__114__split_bufferIPP14BulkTaskLaunchRNS_9allocatorIS3_EEE18__construct_at_endINS_13move_iteratorIPS3_EEEENS_9enable_ifIXsr31__has_forward_iterator_categoryIT_EE5valueEvE4typeESD_SD_, symObjAddr: 0xDF5C, symBinAddr: 0x100029F4C, symSize: 0x60 }
  - { offsetInCU: 0x1B270, offset: 0x49B4B, size: 0x8, addend: 0x0, symName: __ZNSt3__113move_iteratorIPPP14BulkTaskLaunchEC1B8ue170006ES4_, symObjAddr: 0xDFBC, symBinAddr: 0x100029FAC, symSize: 0x34 }
  - { offsetInCU: 0x1B2A7, offset: 0x49B82, size: 0x8, addend: 0x0, symName: __ZNSt3__116allocator_traitsINS_9allocatorIPP14BulkTaskLaunchEEE9constructB8ue170006IS4_JRKS4_EvEEvRS5_PT_DpOT0_, symObjAddr: 0xDFF0, symBinAddr: 0x100029FE0, symSize: 0x34 }
  - { offsetInCU: 0x1B320, offset: 0x49BFB, size: 0x8, addend: 0x0, symName: __ZNKSt3__114__move_trivialclB8ue170006IPP14BulkTaskLaunchS4_Li0EEENS_4pairIPT_PT0_EES7_S7_S9_, symObjAddr: 0xE1C0, symBinAddr: 0x10002A1B0, symSize: 0x48 }
  - { offsetInCU: 0x1B38B, offset: 0x49C66, size: 0x8, addend: 0x0, symName: __ZNSt3__14pairIPPP14BulkTaskLaunchS4_EC1B8ue170006IRS4_S4_LPv0EEEOT_OT0_, symObjAddr: 0xE3E8, symBinAddr: 0x10002A3D8, symSize: 0x3C }
  - { offsetInCU: 0x1B3E8, offset: 0x49CC3, size: 0x8, addend: 0x0, symName: __ZNSt3__14pairIPPP14BulkTaskLaunchS4_EC2B8ue170006IRS4_S4_LPv0EEEOT_OT0_, symObjAddr: 0xE424, symBinAddr: 0x10002A414, symSize: 0x34 }
  - { offsetInCU: 0x1B445, offset: 0x49D20, size: 0x8, addend: 0x0, symName: __ZNSt3__118__unwrap_iter_implIPPP14BulkTaskLaunchLb1EE8__unwrapB8ue170006ES4_, symObjAddr: 0xE458, symBinAddr: 0x10002A448, symSize: 0x24 }
  - { offsetInCU: 0x1B467, offset: 0x49D42, size: 0x8, addend: 0x0, symName: __ZNSt3__14pairIPPP14BulkTaskLaunchS4_EC1B8ue170006IS4_S4_LPv0EEEOT_OT0_, symObjAddr: 0xE47C, symBinAddr: 0x10002A46C, symSize: 0x3C }
  - { offsetInCU: 0x1B4C4, offset: 0x49D9F, size: 0x8, addend: 0x0, symName: __ZNSt3__14pairIPPP14BulkTaskLaunchS4_EC2B8ue170006IS4_S4_LPv0EEEOT_OT0_, symObjAddr: 0xE4B8, symBinAddr: 0x10002A4A8, symSize: 0x34 }
  - { offsetInCU: 0x1B521, offset: 0x49DFC, size: 0x8, addend: 0x0, symName: __ZNSt3__118__unwrap_iter_implIPPP14BulkTaskLaunchLb1EE8__rewrapB8ue170006ES4_S4_, symObjAddr: 0xE4EC, symBinAddr: 0x10002A4DC, symSize: 0x50 }
  - { offsetInCU: 0x1B551, offset: 0x49E2C, size: 0x8, addend: 0x0, symName: __ZNSt3__114__split_bufferIPP14BulkTaskLaunchRNS_9allocatorIS3_EEE28__construct_at_end_with_sizeINS_13move_iteratorIPS3_EEEEvT_m, symObjAddr: 0xE53C, symBinAddr: 0x10002A52C, symSize: 0xDC }
  - { offsetInCU: 0x1B5B5, offset: 0x49E90, size: 0x8, addend: 0x0, symName: __ZNSt3__114__split_bufferIPP14BulkTaskLaunchRNS_9allocatorIS3_EEE21_ConstructTransactionC1B8ue170006EPPS3_m, symObjAddr: 0xE654, symBinAddr: 0x10002A644, symSize: 0x3C }
  - { offsetInCU: 0x1B5FA, offset: 0x49ED5, size: 0x8, addend: 0x0, symName: __ZNSt3__116allocator_traitsINS_9allocatorIPP14BulkTaskLaunchEEE9constructB8ue170006IS4_JS4_EvEEvRS5_PT_DpOT0_, symObjAddr: 0xE690, symBinAddr: 0x10002A680, symSize: 0x34 }
  - { offsetInCU: 0x1B650, offset: 0x49F2B, size: 0x8, addend: 0x0, symName: __ZNSt3__114__split_bufferIPP14BulkTaskLaunchRNS_9allocatorIS3_EEE7__allocB8ue170006Ev, symObjAddr: 0xE6C4, symBinAddr: 0x10002A6B4, symSize: 0x28 }
  - { offsetInCU: 0x1B674, offset: 0x49F4F, size: 0x8, addend: 0x0, symName: __ZNKSt3__113move_iteratorIPPP14BulkTaskLaunchEdeB8ue170006Ev, symObjAddr: 0xE6EC, symBinAddr: 0x10002A6DC, symSize: 0x18 }
  - { offsetInCU: 0x1B699, offset: 0x49F74, size: 0x8, addend: 0x0, symName: __ZNSt3__113move_iteratorIPPP14BulkTaskLaunchEppB8ue170006Ev, symObjAddr: 0xE704, symBinAddr: 0x10002A6F4, symSize: 0x20 }
  - { offsetInCU: 0x1B6BE, offset: 0x49F99, size: 0x8, addend: 0x0, symName: __ZNSt3__114__split_bufferIPP14BulkTaskLaunchRNS_9allocatorIS3_EEE21_ConstructTransactionD1B8ue170006Ev, symObjAddr: 0xE724, symBinAddr: 0x10002A714, symSize: 0x2C }
  - { offsetInCU: 0x1B6E7, offset: 0x49FC2, size: 0x8, addend: 0x0, symName: __ZNSt3__114__split_bufferIPP14BulkTaskLaunchRNS_9allocatorIS3_EEE21_ConstructTransactionC2B8ue170006EPPS3_m, symObjAddr: 0xE750, symBinAddr: 0x10002A740, symSize: 0x44 }
  - { offsetInCU: 0x1B72C, offset: 0x4A007, size: 0x8, addend: 0x0, symName: __ZNSt3__19allocatorIPP14BulkTaskLaunchE9constructB8ue170006IS3_JS3_EEEvPT_DpOT0_, symObjAddr: 0xE794, symBinAddr: 0x10002A784, symSize: 0x28 }
  - { offsetInCU: 0x1B781, offset: 0x4A05C, size: 0x8, addend: 0x0, symName: __ZNSt3__117__compressed_pairIPPP14BulkTaskLaunchRNS_9allocatorIS3_EEE6secondB8ue170006Ev, symObjAddr: 0xE7BC, symBinAddr: 0x10002A7AC, symSize: 0x28 }
  - { offsetInCU: 0x1B7A5, offset: 0x4A080, size: 0x8, addend: 0x0, symName: __ZNSt3__122__compressed_pair_elemIRNS_9allocatorIPP14BulkTaskLaunchEELi1ELb0EE5__getB8ue170006Ev, symObjAddr: 0xE7E4, symBinAddr: 0x10002A7D4, symSize: 0x18 }
  - { offsetInCU: 0x1B7CA, offset: 0x4A0A5, size: 0x8, addend: 0x0, symName: __ZNSt3__114__split_bufferIPP14BulkTaskLaunchRNS_9allocatorIS3_EEE21_ConstructTransactionD2B8ue170006Ev, symObjAddr: 0xE7FC, symBinAddr: 0x10002A7EC, symSize: 0x20 }
  - { offsetInCU: 0x1B7F3, offset: 0x4A0CE, size: 0x8, addend: 0x0, symName: __ZNKSt3__113move_iteratorIPPP14BulkTaskLaunchE4baseB8ue170006Ev, symObjAddr: 0xE894, symBinAddr: 0x10002A884, symSize: 0x18 }
  - { offsetInCU: 0x1B818, offset: 0x4A0F3, size: 0x8, addend: 0x0, symName: __ZNSt3__113move_iteratorIPPP14BulkTaskLaunchEC2B8ue170006ES4_, symObjAddr: 0xE8AC, symBinAddr: 0x10002A89C, symSize: 0x20 }
  - { offsetInCU: 0x1B84F, offset: 0x4A12A, size: 0x8, addend: 0x0, symName: __ZNSt3__19allocatorIPP14BulkTaskLaunchE9constructB8ue170006IS3_JRKS3_EEEvPT_DpOT0_, symObjAddr: 0xE8CC, symBinAddr: 0x10002A8BC, symSize: 0x28 }
  - { offsetInCU: 0x1B8A4, offset: 0x4A17F, size: 0x8, addend: 0x0, symName: __ZNSt3__19allocatorIP14BulkTaskLaunchE8allocateB8ue170006Em, symObjAddr: 0xE8F4, symBinAddr: 0x10002A8E4, symSize: 0x58 }
  - { offsetInCU: 0x1B8E0, offset: 0x4A1BB, size: 0x8, addend: 0x0, symName: __ZNSt3__116allocator_traitsINS_9allocatorIP14BulkTaskLaunchEEE8max_sizeB8ue170006IS4_vEEmRKS4_, symObjAddr: 0xE94C, symBinAddr: 0x10002A93C, symSize: 0x24 }
  - { offsetInCU: 0x1B90D, offset: 0x4A1E8, size: 0x8, addend: 0x0, symName: __ZNKSt3__19allocatorIP14BulkTaskLaunchE8max_sizeB8ue170006Ev, symObjAddr: 0xE970, symBinAddr: 0x10002A960, symSize: 0x14 }
  - { offsetInCU: 0x1B93C, offset: 0x4A217, size: 0x8, addend: 0x0, symName: __ZNKSt3__123__move_backward_trivialclB8ue170006IPP14BulkTaskLaunchS4_Li0EEENS_4pairIPT_PT0_EES7_S7_S9_, symObjAddr: 0xEB00, symBinAddr: 0x10002AAF0, symSize: 0x48 }
  - { offsetInCU: 0x1B9A2, offset: 0x4A27D, size: 0x8, addend: 0x0, symName: __ZNSt3__14pairIPPP14BulkTaskLaunchS4_EC1B8ue170006IRS4_S7_LPv0EEEOT_OT0_, symObjAddr: 0xEC10, symBinAddr: 0x10002AC00, symSize: 0x3C }
  - { offsetInCU: 0x1B9FF, offset: 0x4A2DA, size: 0x8, addend: 0x0, symName: __ZNSt3__14pairIPPP14BulkTaskLaunchS4_EC2B8ue170006IRS4_S7_LPv0EEEOT_OT0_, symObjAddr: 0xEC4C, symBinAddr: 0x10002AC3C, symSize: 0x34 }
  - { offsetInCU: 0x1BA5C, offset: 0x4A337, size: 0x8, addend: 0x0, symName: __ZNSt3__114__split_bufferIPP14BulkTaskLaunchRNS_9allocatorIS3_EEEC2EmmS6_, symObjAddr: 0xEC80, symBinAddr: 0x10002AC70, symSize: 0xD4 }
  - { offsetInCU: 0x1BACE, offset: 0x4A3A9, size: 0x8, addend: 0x0, symName: __ZNSt3__117__compressed_pairIPPP14BulkTaskLaunchRNS_9allocatorIS3_EEEC1B8ue170006IDnS7_EEOT_OT0_, symObjAddr: 0xED54, symBinAddr: 0x10002AD44, symSize: 0x3C }
  - { offsetInCU: 0x1BB25, offset: 0x4A400, size: 0x8, addend: 0x0, symName: __ZNSt3__117__compressed_pairIPPP14BulkTaskLaunchRNS_9allocatorIS3_EEEC2B8ue170006IDnS7_EEOT_OT0_, symObjAddr: 0xEDD0, symBinAddr: 0x10002ADC0, symSize: 0x48 }
  - { offsetInCU: 0x1BB7C, offset: 0x4A457, size: 0x8, addend: 0x0, symName: __ZNSt3__122__compressed_pair_elemIRNS_9allocatorIPP14BulkTaskLaunchEELi1ELb0EEC2B8ue170006IS6_vEEOT_, symObjAddr: 0xEE18, symBinAddr: 0x10002AE08, symSize: 0x20 }
  - { offsetInCU: 0x1BBBD, offset: 0x4A498, size: 0x8, addend: 0x0, symName: __ZNSt3__19allocatorIPP14BulkTaskLaunchE8allocateB8ue170006Em, symObjAddr: 0xEE38, symBinAddr: 0x10002AE28, symSize: 0x58 }
  - { offsetInCU: 0x1BBF9, offset: 0x4A4D4, size: 0x8, addend: 0x0, symName: __ZNSt3__116allocator_traitsINS_9allocatorIPP14BulkTaskLaunchEEE8max_sizeB8ue170006IS5_vEEmRKS5_, symObjAddr: 0xEE90, symBinAddr: 0x10002AE80, symSize: 0x24 }
  - { offsetInCU: 0x1BC26, offset: 0x4A501, size: 0x8, addend: 0x0, symName: __ZNKSt3__19allocatorIPP14BulkTaskLaunchE8max_sizeB8ue170006Ev, symObjAddr: 0xEEB4, symBinAddr: 0x10002AEA4, symSize: 0x14 }
  - { offsetInCU: 0x1BC4B, offset: 0x4A526, size: 0x8, addend: 0x0, symName: __ZNSt3__122__allocator_destructorINS_9allocatorIP14BulkTaskLaunchEEEC2B8ue170006ERS4_m, symObjAddr: 0xEEC8, symBinAddr: 0x10002AEB8, symSize: 0x2C }
  - { offsetInCU: 0x1BC90, offset: 0x4A56B, size: 0x8, addend: 0x0, symName: __ZNSt3__110unique_ptrIPP14BulkTaskLaunchNS_22__allocator_destructorINS_9allocatorIS2_EEEEEC2B8ue170006ILb1EvEES3_NS_16__dependent_typeINS_27__unique_ptr_deleter_sfinaeIS7_EEXT_EE20__good_rval_ref_typeE, symObjAddr: 0xEEF4, symBinAddr: 0x10002AEE4, symSize: 0x48 }
  - { offsetInCU: 0x1BCE0, offset: 0x4A5BB, size: 0x8, addend: 0x0, symName: __ZNSt3__117__compressed_pairIPP14BulkTaskLaunchNS_22__allocator_destructorINS_9allocatorIS2_EEEEEC1B8ue170006IRS3_S7_EEOT_OT0_, symObjAddr: 0xEF3C, symBinAddr: 0x10002AF2C, symSize: 0x3C }
  - { offsetInCU: 0x1BD37, offset: 0x4A612, size: 0x8, addend: 0x0, symName: __ZNSt3__117__compressed_pairIPP14BulkTaskLaunchNS_22__allocator_destructorINS_9allocatorIS2_EEEEEC2B8ue170006IRS3_S7_EEOT_OT0_, symObjAddr: 0xEF78, symBinAddr: 0x10002AF68, symSize: 0x48 }
  - { offsetInCU: 0x1BD8E, offset: 0x4A669, size: 0x8, addend: 0x0, symName: __ZNSt3__122__compressed_pair_elemIPP14BulkTaskLaunchLi0ELb0EEC2B8ue170006IRS3_vEEOT_, symObjAddr: 0xEFC0, symBinAddr: 0x10002AFB0, symSize: 0x24 }
  - { offsetInCU: 0x1BDCF, offset: 0x4A6AA, size: 0x8, addend: 0x0, symName: __ZNSt3__122__compressed_pair_elemINS_22__allocator_destructorINS_9allocatorIP14BulkTaskLaunchEEEELi1ELb0EEC2B8ue170006IS6_vEEOT_, symObjAddr: 0xEFE4, symBinAddr: 0x10002AFD4, symSize: 0x24 }
  - { offsetInCU: 0x1BE10, offset: 0x4A6EB, size: 0x8, addend: 0x0, symName: __ZNKSt3__117__compressed_pairIPP14BulkTaskLaunchNS_22__allocator_destructorINS_9allocatorIS2_EEEEE5firstB8ue170006Ev, symObjAddr: 0xF008, symBinAddr: 0x10002AFF8, symSize: 0x24 }
  - { offsetInCU: 0x1BE34, offset: 0x4A70F, size: 0x8, addend: 0x0, symName: __ZNKSt3__122__compressed_pair_elemIPP14BulkTaskLaunchLi0ELb0EE5__getB8ue170006Ev, symObjAddr: 0xF02C, symBinAddr: 0x10002B01C, symSize: 0x14 }
  - { offsetInCU: 0x1BE59, offset: 0x4A734, size: 0x8, addend: 0x0, symName: __ZNSt3__117__compressed_pairIPP14BulkTaskLaunchNS_22__allocator_destructorINS_9allocatorIS2_EEEEE5firstB8ue170006Ev, symObjAddr: 0xF040, symBinAddr: 0x10002B030, symSize: 0x24 }
  - { offsetInCU: 0x1BE7D, offset: 0x4A758, size: 0x8, addend: 0x0, symName: __ZNSt3__122__compressed_pair_elemIPP14BulkTaskLaunchLi0ELb0EE5__getB8ue170006Ev, symObjAddr: 0xF064, symBinAddr: 0x10002B054, symSize: 0x14 }
  - { offsetInCU: 0x1BEA2, offset: 0x4A77D, size: 0x8, addend: 0x0, symName: __ZNSt3__117__compressed_pairIPPP14BulkTaskLaunchNS_9allocatorIS3_EEE5firstB8ue170006Ev, symObjAddr: 0xF078, symBinAddr: 0x10002B068, symSize: 0x24 }
  - { offsetInCU: 0x1BEC6, offset: 0x4A7A1, size: 0x8, addend: 0x0, symName: __ZNSt3__122__compressed_pair_elemIPPP14BulkTaskLaunchLi0ELb0EE5__getB8ue170006Ev, symObjAddr: 0xF09C, symBinAddr: 0x10002B08C, symSize: 0x14 }
  - { offsetInCU: 0x1BEEB, offset: 0x4A7C6, size: 0x8, addend: 0x0, symName: __ZNSt3__117__compressed_pairIPPP14BulkTaskLaunchRNS_9allocatorIS3_EEE5firstB8ue170006Ev, symObjAddr: 0xF0B0, symBinAddr: 0x10002B0A0, symSize: 0x24 }
  - { offsetInCU: 0x1BF0F, offset: 0x4A7EA, size: 0x8, addend: 0x0, symName: __ZNSt3__110unique_ptrIPP14BulkTaskLaunchNS_22__allocator_destructorINS_9allocatorIS2_EEEEED2B8ue170006Ev, symObjAddr: 0xF0D4, symBinAddr: 0x10002B0C4, symSize: 0x30 }
  - { offsetInCU: 0x1BF38, offset: 0x4A813, size: 0x8, addend: 0x0, symName: __ZNSt3__110unique_ptrIPP14BulkTaskLaunchNS_22__allocator_destructorINS_9allocatorIS2_EEEEE5resetB8ue170006ES3_, symObjAddr: 0xF104, symBinAddr: 0x10002B0F4, symSize: 0x78 }
  - { offsetInCU: 0x1BF7A, offset: 0x4A855, size: 0x8, addend: 0x0, symName: __ZNSt3__117__compressed_pairIPP14BulkTaskLaunchNS_22__allocator_destructorINS_9allocatorIS2_EEEEE6secondB8ue170006Ev, symObjAddr: 0xF17C, symBinAddr: 0x10002B16C, symSize: 0x28 }
  - { offsetInCU: 0x1BF9E, offset: 0x4A879, size: 0x8, addend: 0x0, symName: __ZNSt3__122__allocator_destructorINS_9allocatorIP14BulkTaskLaunchEEEclB8ue170006EPS3_, symObjAddr: 0xF1A4, symBinAddr: 0x10002B194, symSize: 0x34 }
  - { offsetInCU: 0x1BFD0, offset: 0x4A8AB, size: 0x8, addend: 0x0, symName: __ZNSt3__122__compressed_pair_elemINS_22__allocator_destructorINS_9allocatorIP14BulkTaskLaunchEEEELi1ELb0EE5__getB8ue170006Ev, symObjAddr: 0xF1D8, symBinAddr: 0x10002B1C8, symSize: 0x14 }
  - { offsetInCU: 0x1BFF5, offset: 0x4A8D0, size: 0x8, addend: 0x0, symName: __ZNSt3__114__split_bufferIPP14BulkTaskLaunchRNS_9allocatorIS3_EEED2Ev, symObjAddr: 0xF1EC, symBinAddr: 0x10002B1DC, symSize: 0x8C }
  - { offsetInCU: 0x1C020, offset: 0x4A8FB, size: 0x8, addend: 0x0, symName: __ZNSt3__114__split_bufferIPP14BulkTaskLaunchRNS_9allocatorIS3_EEE5clearB8ue170006Ev, symObjAddr: 0xF278, symBinAddr: 0x10002B268, symSize: 0x28 }
  - { offsetInCU: 0x1C044, offset: 0x4A91F, size: 0x8, addend: 0x0, symName: __ZNKSt3__114__split_bufferIPP14BulkTaskLaunchRNS_9allocatorIS3_EEE8capacityB8ue170006Ev, symObjAddr: 0xF2A0, symBinAddr: 0x10002B290, symSize: 0x40 }
  - { offsetInCU: 0x1C068, offset: 0x4A943, size: 0x8, addend: 0x0, symName: __ZNSt3__114__split_bufferIPP14BulkTaskLaunchRNS_9allocatorIS3_EEE17__destruct_at_endB8ue170006EPS3_, symObjAddr: 0xF2E0, symBinAddr: 0x10002B2D0, symSize: 0x2C }
  - { offsetInCU: 0x1C09A, offset: 0x4A975, size: 0x8, addend: 0x0, symName: __ZNSt3__114__split_bufferIPP14BulkTaskLaunchRNS_9allocatorIS3_EEE17__destruct_at_endB8ue170006EPS3_NS_17integral_constantIbLb0EEE, symObjAddr: 0xF30C, symBinAddr: 0x10002B2FC, symSize: 0x80 }
  - { offsetInCU: 0x1C0D9, offset: 0x4A9B4, size: 0x8, addend: 0x0, symName: __ZNKSt3__114__split_bufferIPP14BulkTaskLaunchRNS_9allocatorIS3_EEE9__end_capB8ue170006Ev, symObjAddr: 0xF38C, symBinAddr: 0x10002B37C, symSize: 0x28 }
  - { offsetInCU: 0x1C0FD, offset: 0x4A9D8, size: 0x8, addend: 0x0, symName: __ZNKSt3__117__compressed_pairIPPP14BulkTaskLaunchRNS_9allocatorIS3_EEE5firstB8ue170006Ev, symObjAddr: 0xF3B4, symBinAddr: 0x10002B3A4, symSize: 0x24 }
  - { offsetInCU: 0x1C121, offset: 0x4A9FC, size: 0x8, addend: 0x0, symName: __ZNSt3__19allocatorIP14BulkTaskLaunchE9constructB8ue170006IS2_JRKS2_EEEvPT_DpOT0_, symObjAddr: 0xF3D8, symBinAddr: 0x10002B3C8, symSize: 0x28 }
  - { offsetInCU: 0x1C176, offset: 0x4AA51, size: 0x8, addend: 0x0, symName: __ZNSt3__15dequeIP14BulkTaskLaunchNS_9allocatorIS2_EEE5frontEv, symObjAddr: 0xF400, symBinAddr: 0x10002B3F0, symSize: 0x50 }
  - { offsetInCU: 0x1C19C, offset: 0x4AA77, size: 0x8, addend: 0x0, symName: __ZNSt3__15dequeIP14BulkTaskLaunchNS_9allocatorIS2_EEE9pop_frontEv, symObjAddr: 0xF450, symBinAddr: 0x10002B440, symSize: 0xD4 }
  - { offsetInCU: 0x1C1EF, offset: 0x4AACA, size: 0x8, addend: 0x0, symName: __ZNKSt3__15dequeIP14BulkTaskLaunchNS_9allocatorIS2_EEE23__annotate_shrink_frontB8ue170006Emm, symObjAddr: 0xF524, symBinAddr: 0x10002B514, symSize: 0x70 }
  - { offsetInCU: 0x1C231, offset: 0x4AB0C, size: 0x8, addend: 0x0, symName: __ZNSt3__15dequeIP14BulkTaskLaunchNS_9allocatorIS2_EEE26__maybe_remove_front_spareB8ue170006Eb, symObjAddr: 0xF594, symBinAddr: 0x10002B584, symSize: 0xEC }
  - { offsetInCU: 0x1C264, offset: 0x4AB3F, size: 0x8, addend: 0x0, symName: __ZNKSt3__15dequeIP14BulkTaskLaunchNS_9allocatorIS2_EEE20__front_spare_blocksB8ue170006Ev, symObjAddr: 0xF680, symBinAddr: 0x10002B670, symSize: 0x2C }
  - { offsetInCU: 0x1C288, offset: 0x4AB63, size: 0x8, addend: 0x0, symName: __ZNSt3__16__treeIiNS_4lessIiEENS_9allocatorIiEEE15__insert_uniqueB8ue170006ERKi, symObjAddr: 0xF6AC, symBinAddr: 0x10002B69C, symSize: 0x50 }
  - { offsetInCU: 0x1C2BB, offset: 0x4AB96, size: 0x8, addend: 0x0, symName: __ZNSt3__14pairINS_21__tree_const_iteratorIiPNS_11__tree_nodeIiPvEElEEbEC1B8ue170006INS_15__tree_iteratorIiS5_lEEbLS3_0EEEONS0_IT_T0_EE, symObjAddr: 0xF6FC, symBinAddr: 0x10002B6EC, symSize: 0x34 }
  - { offsetInCU: 0x1C30B, offset: 0x4ABE6, size: 0x8, addend: 0x0, symName: __ZNSt3__16__treeIiNS_4lessIiEENS_9allocatorIiEEE25__emplace_unique_key_argsIiJRKiEEENS_4pairINS_15__tree_iteratorIiPNS_11__tree_nodeIiPvEElEEbEERKT_DpOT0_, symObjAddr: 0xF730, symBinAddr: 0x10002B720, symSize: 0xF0 }
  - { offsetInCU: 0x1C3B5, offset: 0x4AC90, size: 0x8, addend: 0x0, symName: __ZNSt3__122__tree_key_value_typesIiE9__get_keyB8ue170006ERKi, symObjAddr: 0xF820, symBinAddr: 0x10002B810, symSize: 0x14 }
  - { offsetInCU: 0x1C3D9, offset: 0x4ACB4, size: 0x8, addend: 0x0, symName: __ZNSt3__16__treeIiNS_4lessIiEENS_9allocatorIiEEE12__find_equalIiEERPNS_16__tree_node_baseIPvEERPNS_15__tree_end_nodeISA_EERKT_, symObjAddr: 0xF834, symBinAddr: 0x10002B824, symSize: 0x184 }
  - { offsetInCU: 0x1C444, offset: 0x4AD1F, size: 0x8, addend: 0x0, symName: __ZNSt3__16__treeIiNS_4lessIiEENS_9allocatorIiEEE16__construct_nodeIJRKiEEENS_10unique_ptrINS_11__tree_nodeIiPvEENS_22__tree_node_destructorINS3_ISC_EEEEEEDpOT_, symObjAddr: 0xF9B8, symBinAddr: 0x10002B9A8, symSize: 0x108 }
  - { offsetInCU: 0x1C4A3, offset: 0x4AD7E, size: 0x8, addend: 0x0, symName: __ZNSt3__16__treeIiNS_4lessIiEENS_9allocatorIiEEE16__insert_node_atEPNS_15__tree_end_nodeIPNS_16__tree_node_baseIPvEEEERSA_SA_, symObjAddr: 0xFAC0, symBinAddr: 0x10002BAB0, symSize: 0xCC }
  - { offsetInCU: 0x1C4F6, offset: 0x4ADD1, size: 0x8, addend: 0x0, symName: __ZNKSt3__110unique_ptrINS_11__tree_nodeIiPvEENS_22__tree_node_destructorINS_9allocatorIS3_EEEEE3getB8ue170006Ev, symObjAddr: 0xFB8C, symBinAddr: 0x10002BB7C, symSize: 0x28 }
  - { offsetInCU: 0x1C51A, offset: 0x4ADF5, size: 0x8, addend: 0x0, symName: __ZNSt3__110unique_ptrINS_11__tree_nodeIiPvEENS_22__tree_node_destructorINS_9allocatorIS3_EEEEE7releaseB8ue170006Ev, symObjAddr: 0xFBB4, symBinAddr: 0x10002BBA4, symSize: 0x44 }
  - { offsetInCU: 0x1C54D, offset: 0x4AE28, size: 0x8, addend: 0x0, symName: __ZNSt3__110unique_ptrINS_11__tree_nodeIiPvEENS_22__tree_node_destructorINS_9allocatorIS3_EEEEED1B8ue170006Ev, symObjAddr: 0xFBF8, symBinAddr: 0x10002BBE8, symSize: 0x2C }
  - { offsetInCU: 0x1C576, offset: 0x4AE51, size: 0x8, addend: 0x0, symName: __ZNSt3__115__tree_iteratorIiPNS_11__tree_nodeIiPvEElEC1B8ue170006ES4_, symObjAddr: 0xFC24, symBinAddr: 0x10002BC14, symSize: 0x34 }
  - { offsetInCU: 0x1C5B3, offset: 0x4AE8E, size: 0x8, addend: 0x0, symName: __ZNSt3__14pairINS_15__tree_iteratorIiPNS_11__tree_nodeIiPvEElEEbEC1B8ue170006IS6_RbLS3_0EEEOT_OT0_, symObjAddr: 0xFC58, symBinAddr: 0x10002BC48, symSize: 0x3C }
  - { offsetInCU: 0x1C610, offset: 0x4AEEB, size: 0x8, addend: 0x0, symName: __ZNKSt3__16__treeIiNS_4lessIiEENS_9allocatorIiEEE10__root_ptrB8ue170006Ev, symObjAddr: 0xFC94, symBinAddr: 0x10002BC84, symSize: 0x24 }
  - { offsetInCU: 0x1C634, offset: 0x4AF0F, size: 0x8, addend: 0x0, symName: __ZNSt3__16__treeIiNS_4lessIiEENS_9allocatorIiEEE10value_compB8ue170006Ev, symObjAddr: 0xFCB8, symBinAddr: 0x10002BCA8, symSize: 0x28 }
  - { offsetInCU: 0x1C658, offset: 0x4AF33, size: 0x8, addend: 0x0, symName: __ZNKSt3__14lessIiEclB8ue170006ERKiS3_, symObjAddr: 0xFCE0, symBinAddr: 0x10002BCD0, symSize: 0x34 }
  - { offsetInCU: 0x1C69B, offset: 0x4AF76, size: 0x8, addend: 0x0, symName: __ZNSt3__117__compressed_pairImNS_4lessIiEEE6secondB8ue170006Ev, symObjAddr: 0xFD14, symBinAddr: 0x10002BD04, symSize: 0x24 }
  - { offsetInCU: 0x1C6BF, offset: 0x4AF9A, size: 0x8, addend: 0x0, symName: __ZNSt3__122__compressed_pair_elemINS_4lessIiEELi1ELb1EE5__getB8ue170006Ev, symObjAddr: 0xFD38, symBinAddr: 0x10002BD28, symSize: 0x14 }
  - { offsetInCU: 0x1C6E4, offset: 0x4AFBF, size: 0x8, addend: 0x0, symName: __ZNSt3__116allocator_traitsINS_9allocatorINS_11__tree_nodeIiPvEEEEE8allocateB8ue170006ERS5_m, symObjAddr: 0xFD4C, symBinAddr: 0x10002BD3C, symSize: 0x2C }
  - { offsetInCU: 0x1C716, offset: 0x4AFF1, size: 0x8, addend: 0x0, symName: __ZNSt3__122__tree_node_destructorINS_9allocatorINS_11__tree_nodeIiPvEEEEEC1B8ue170006ERS5_b, symObjAddr: 0xFD78, symBinAddr: 0x10002BD68, symSize: 0x48 }
  - { offsetInCU: 0x1C762, offset: 0x4B03D, size: 0x8, addend: 0x0, symName: __ZNSt3__110unique_ptrINS_11__tree_nodeIiPvEENS_22__tree_node_destructorINS_9allocatorIS3_EEEEEC1B8ue170006ILb1EvEEPS3_NS_16__dependent_typeINS_27__unique_ptr_deleter_sfinaeIS7_EEXT_EE20__good_rval_ref_typeE, symObjAddr: 0xFDC0, symBinAddr: 0x10002BDB0, symSize: 0x3C }
  - { offsetInCU: 0x1C7B2, offset: 0x4B08D, size: 0x8, addend: 0x0, symName: __ZNSt3__116allocator_traitsINS_9allocatorINS_11__tree_nodeIiPvEEEEE9constructB8ue170006IiJRKiEvEEvRS5_PT_DpOT0_, symObjAddr: 0xFDFC, symBinAddr: 0x10002BDEC, symSize: 0x34 }
  - { offsetInCU: 0x1C808, offset: 0x4B0E3, size: 0x8, addend: 0x0, symName: __ZNKSt3__110unique_ptrINS_11__tree_nodeIiPvEENS_22__tree_node_destructorINS_9allocatorIS3_EEEEEptB8ue170006Ev, symObjAddr: 0xFE30, symBinAddr: 0x10002BE20, symSize: 0x28 }
  - { offsetInCU: 0x1C82C, offset: 0x4B107, size: 0x8, addend: 0x0, symName: __ZNSt3__110unique_ptrINS_11__tree_nodeIiPvEENS_22__tree_node_destructorINS_9allocatorIS3_EEEEE11get_deleterB8ue170006Ev, symObjAddr: 0xFE58, symBinAddr: 0x10002BE48, symSize: 0x24 }
  - { offsetInCU: 0x1C850, offset: 0x4B12B, size: 0x8, addend: 0x0, symName: __ZNSt3__19allocatorINS_11__tree_nodeIiPvEEE8allocateB8ue170006Em, symObjAddr: 0xFE7C, symBinAddr: 0x10002BE6C, symSize: 0x58 }
  - { offsetInCU: 0x1C88C, offset: 0x4B167, size: 0x8, addend: 0x0, symName: __ZNSt3__116allocator_traitsINS_9allocatorINS_11__tree_nodeIiPvEEEEE8max_sizeB8ue170006IS5_vEEmRKS5_, symObjAddr: 0xFED4, symBinAddr: 0x10002BEC4, symSize: 0x24 }
  - { offsetInCU: 0x1C8B9, offset: 0x4B194, size: 0x8, addend: 0x0, symName: __ZNKSt3__19allocatorINS_11__tree_nodeIiPvEEE8max_sizeB8ue170006Ev, symObjAddr: 0xFEF8, symBinAddr: 0x10002BEE8, symSize: 0x14 }
  - { offsetInCU: 0x1C8DE, offset: 0x4B1B9, size: 0x8, addend: 0x0, symName: __ZNSt3__122__tree_node_destructorINS_9allocatorINS_11__tree_nodeIiPvEEEEEC2B8ue170006ERS5_b, symObjAddr: 0xFF0C, symBinAddr: 0x10002BEFC, symSize: 0x38 }
  - { offsetInCU: 0x1C925, offset: 0x4B200, size: 0x8, addend: 0x0, symName: __ZNSt3__110unique_ptrINS_11__tree_nodeIiPvEENS_22__tree_node_destructorINS_9allocatorIS3_EEEEEC2B8ue170006ILb1EvEEPS3_NS_16__dependent_typeINS_27__unique_ptr_deleter_sfinaeIS7_EEXT_EE20__good_rval_ref_typeE, symObjAddr: 0xFF44, symBinAddr: 0x10002BF34, symSize: 0x48 }
  - { offsetInCU: 0x1C975, offset: 0x4B250, size: 0x8, addend: 0x0, symName: __ZNSt3__117__compressed_pairIPNS_11__tree_nodeIiPvEENS_22__tree_node_destructorINS_9allocatorIS3_EEEEEC1B8ue170006IRS4_S8_EEOT_OT0_, symObjAddr: 0xFF8C, symBinAddr: 0x10002BF7C, symSize: 0x3C }
  - { offsetInCU: 0x1C9CC, offset: 0x4B2A7, size: 0x8, addend: 0x0, symName: __ZNSt3__117__compressed_pairIPNS_11__tree_nodeIiPvEENS_22__tree_node_destructorINS_9allocatorIS3_EEEEEC2B8ue170006IRS4_S8_EEOT_OT0_, symObjAddr: 0xFFC8, symBinAddr: 0x10002BFB8, symSize: 0x48 }
  - { offsetInCU: 0x1CA23, offset: 0x4B2FE, size: 0x8, addend: 0x0, symName: __ZNSt3__122__compressed_pair_elemIPNS_11__tree_nodeIiPvEELi0ELb0EEC2B8ue170006IRS4_vEEOT_, symObjAddr: 0x10010, symBinAddr: 0x10002C000, symSize: 0x24 }
  - { offsetInCU: 0x1CA64, offset: 0x4B33F, size: 0x8, addend: 0x0, symName: __ZNSt3__122__compressed_pair_elemINS_22__tree_node_destructorINS_9allocatorINS_11__tree_nodeIiPvEEEEEELi1ELb0EEC2B8ue170006IS7_vEEOT_, symObjAddr: 0x10034, symBinAddr: 0x10002C024, symSize: 0x24 }
  - { offsetInCU: 0x1CAA5, offset: 0x4B380, size: 0x8, addend: 0x0, symName: __ZNSt3__19allocatorINS_11__tree_nodeIiPvEEE9constructB8ue170006IiJRKiEEEvPT_DpOT0_, symObjAddr: 0x10058, symBinAddr: 0x10002C048, symSize: 0x28 }
  - { offsetInCU: 0x1CAFA, offset: 0x4B3D5, size: 0x8, addend: 0x0, symName: __ZNKSt3__117__compressed_pairIPNS_11__tree_nodeIiPvEENS_22__tree_node_destructorINS_9allocatorIS3_EEEEE5firstB8ue170006Ev, symObjAddr: 0x10080, symBinAddr: 0x10002C070, symSize: 0x24 }
  - { offsetInCU: 0x1CB1E, offset: 0x4B3F9, size: 0x8, addend: 0x0, symName: __ZNKSt3__122__compressed_pair_elemIPNS_11__tree_nodeIiPvEELi0ELb0EE5__getB8ue170006Ev, symObjAddr: 0x100A4, symBinAddr: 0x10002C094, symSize: 0x14 }
  - { offsetInCU: 0x1CB43, offset: 0x4B41E, size: 0x8, addend: 0x0, symName: __ZNSt3__117__compressed_pairIPNS_11__tree_nodeIiPvEENS_22__tree_node_destructorINS_9allocatorIS3_EEEEE6secondB8ue170006Ev, symObjAddr: 0x100B8, symBinAddr: 0x10002C0A8, symSize: 0x28 }
  - { offsetInCU: 0x1CB67, offset: 0x4B442, size: 0x8, addend: 0x0, symName: __ZNSt3__122__compressed_pair_elemINS_22__tree_node_destructorINS_9allocatorINS_11__tree_nodeIiPvEEEEEELi1ELb0EE5__getB8ue170006Ev, symObjAddr: 0x100E0, symBinAddr: 0x10002C0D0, symSize: 0x14 }
  - { offsetInCU: 0x1CB8C, offset: 0x4B467, size: 0x8, addend: 0x0, symName: __ZNSt3__16__treeIiNS_4lessIiEENS_9allocatorIiEEE4sizeB8ue170006Ev, symObjAddr: 0x10420, symBinAddr: 0x10002C0E4, symSize: 0x28 }
  - { offsetInCU: 0x1CBB0, offset: 0x4B48B, size: 0x8, addend: 0x0, symName: __ZNSt3__117__compressed_pairImNS_4lessIiEEE5firstB8ue170006Ev, symObjAddr: 0x10650, symBinAddr: 0x10002C10C, symSize: 0x24 }
  - { offsetInCU: 0x1CBD4, offset: 0x4B4AF, size: 0x8, addend: 0x0, symName: __ZNSt3__117__compressed_pairIPNS_11__tree_nodeIiPvEENS_22__tree_node_destructorINS_9allocatorIS3_EEEEE5firstB8ue170006Ev, symObjAddr: 0x10674, symBinAddr: 0x10002C130, symSize: 0x24 }
  - { offsetInCU: 0x1CBF8, offset: 0x4B4D3, size: 0x8, addend: 0x0, symName: __ZNSt3__122__compressed_pair_elemIPNS_11__tree_nodeIiPvEELi0ELb0EE5__getB8ue170006Ev, symObjAddr: 0x10698, symBinAddr: 0x10002C154, symSize: 0x14 }
  - { offsetInCU: 0x1CC1D, offset: 0x4B4F8, size: 0x8, addend: 0x0, symName: __ZNSt3__110unique_ptrINS_11__tree_nodeIiPvEENS_22__tree_node_destructorINS_9allocatorIS3_EEEEED2B8ue170006Ev, symObjAddr: 0x106AC, symBinAddr: 0x10002C168, symSize: 0x30 }
  - { offsetInCU: 0x1CC46, offset: 0x4B521, size: 0x8, addend: 0x0, symName: __ZNSt3__110unique_ptrINS_11__tree_nodeIiPvEENS_22__tree_node_destructorINS_9allocatorIS3_EEEEE5resetB8ue170006EPS3_, symObjAddr: 0x106DC, symBinAddr: 0x10002C198, symSize: 0x78 }
  - { offsetInCU: 0x1CC88, offset: 0x4B563, size: 0x8, addend: 0x0, symName: __ZNSt3__122__tree_node_destructorINS_9allocatorINS_11__tree_nodeIiPvEEEEEclB8ue170006EPS4_, symObjAddr: 0x10754, symBinAddr: 0x10002C210, symSize: 0x88 }
  - { offsetInCU: 0x1CCBB, offset: 0x4B596, size: 0x8, addend: 0x0, symName: __ZNSt3__115__tree_iteratorIiPNS_11__tree_nodeIiPvEElEC2B8ue170006ES4_, symObjAddr: 0x107DC, symBinAddr: 0x10002C298, symSize: 0x20 }
  - { offsetInCU: 0x1CCF3, offset: 0x4B5CE, size: 0x8, addend: 0x0, symName: __ZNSt3__14pairINS_15__tree_iteratorIiPNS_11__tree_nodeIiPvEElEEbEC2B8ue170006IS6_RbLS3_0EEEOT_OT0_, symObjAddr: 0x107FC, symBinAddr: 0x10002C2B8, symSize: 0x38 }
  - { offsetInCU: 0x1CD50, offset: 0x4B62B, size: 0x8, addend: 0x0, symName: __ZNSt3__14pairINS_21__tree_const_iteratorIiPNS_11__tree_nodeIiPvEElEEbEC2B8ue170006INS_15__tree_iteratorIiS5_lEEbLS3_0EEEONS0_IT_T0_EE, symObjAddr: 0x10834, symBinAddr: 0x10002C2F0, symSize: 0x50 }
  - { offsetInCU: 0x1CDA0, offset: 0x4B67B, size: 0x8, addend: 0x0, symName: __ZNSt3__121__tree_const_iteratorIiPNS_11__tree_nodeIiPvEElEC1B8ue170006ENS_15__tree_iteratorIiS4_lEE, symObjAddr: 0x10884, symBinAddr: 0x10002C340, symSize: 0x34 }
  - { offsetInCU: 0x1CDD8, offset: 0x4B6B3, size: 0x8, addend: 0x0, symName: __ZNSt3__121__tree_const_iteratorIiPNS_11__tree_nodeIiPvEElEC2B8ue170006ENS_15__tree_iteratorIiS4_lEE, symObjAddr: 0x108B8, symBinAddr: 0x10002C374, symSize: 0x20 }
  - { offsetInCU: 0x1CE10, offset: 0x4B6EB, size: 0x8, addend: 0x0, symName: __ZNKSt3__112__hash_tableINS_17__hash_value_typeIiP14BulkTaskLaunchEENS_22__unordered_map_hasherIiS4_NS_4hashIiEENS_8equal_toIiEELb1EEENS_21__unordered_map_equalIiS4_S9_S7_Lb1EEENS_9allocatorIS4_EEE4sizeB8ue170006Ev, symObjAddr: 0x10BF4, symBinAddr: 0x10002C394, symSize: 0x2C }
  - { offsetInCU: 0x1CE34, offset: 0x4B70F, size: 0x8, addend: 0x0, symName: __ZNKSt3__117__compressed_pairImNS_22__unordered_map_hasherIiNS_17__hash_value_typeIiP14BulkTaskLaunchEENS_4hashIiEENS_8equal_toIiEELb1EEEE5firstB8ue170006Ev, symObjAddr: 0x10C20, symBinAddr: 0x10002C3C0, symSize: 0x24 }
  - { offsetInCU: 0x1CE58, offset: 0x4B733, size: 0x8, addend: 0x0, symName: __ZNKSt3__16__treeIiNS_4lessIiEENS_9allocatorIiEEE4sizeB8ue170006Ev, symObjAddr: 0x10C44, symBinAddr: 0x10002C3E4, symSize: 0x28 }
  - { offsetInCU: 0x1CE7C, offset: 0x4B757, size: 0x8, addend: 0x0, symName: __ZNKSt3__117__compressed_pairImNS_4lessIiEEE5firstB8ue170006Ev, symObjAddr: 0x10C6C, symBinAddr: 0x10002C40C, symSize: 0x24 }
  - { offsetInCU: 0x1CEA0, offset: 0x4B77B, size: 0x8, addend: 0x0, symName: __ZNKSt3__16vectorIiNS_9allocatorIiEEE11__make_iterB8ue170006EPKi, symObjAddr: 0x10C90, symBinAddr: 0x10002C430, symSize: 0x30 }
  - { offsetInCU: 0x1CED3, offset: 0x4B7AE, size: 0x8, addend: 0x0, symName: __ZNSt3__111__wrap_iterIPKiEC1B8ue170006ES2_, symObjAddr: 0x10CC0, symBinAddr: 0x10002C460, symSize: 0x34 }
  - { offsetInCU: 0x1CF0A, offset: 0x4B7E5, size: 0x8, addend: 0x0, symName: __ZNSt3__111__wrap_iterIPKiEC2B8ue170006ES2_, symObjAddr: 0x10CF4, symBinAddr: 0x10002C494, symSize: 0x20 }
  - { offsetInCU: 0x1CF41, offset: 0x4B81C, size: 0x8, addend: 0x0, symName: __ZNSt3__114pointer_traitsIPNS_4pairIKiP14BulkTaskLaunchEEE10pointer_toB8ue170006ERS5_, symObjAddr: 0x10D14, symBinAddr: 0x10002C4B4, symSize: 0x14 }
...
